---
triple:          'arm64-apple-darwin'
binary-path:     '/Users/admin/Documents/GitHub/sharp-sell/sdk/iOS/Frameworks/Release/iphoneos/Release-iphoneos/rive_common/rive_common.framework/rive_common'
relocations:
  - { offsetInCU: 0x34, offset: 0x78841, size: 0x8, addend: 0x0, symName: _rive_commonVersionString, symObjAddr: 0x0, symBinAddr: 0x1018A0, symSize: 0x0 }
  - { offsetInCU: 0x69, offset: 0x78876, size: 0x8, addend: 0x0, symName: _rive_commonVersionNumber, symObjAddr: 0x30, symBinAddr: 0x1018D0, symSize: 0x0 }
  - { offsetInCU: 0x3A, offset: 0x788C6, size: 0x8, addend: 0x0, symName: __ZN4rive4Font13gFallbackProcE, symObjAddr: 0x9B8F0, symBinAddr: 0x13ADB0, symSize: 0x0 }
  - { offsetInCU: 0x6B75, offset: 0x7F401, size: 0x8, addend: 0x0, symName: __ZNSt3__1L19piecewise_constructE, symObjAddr: 0x42D7, symBinAddr: 0x101907, symSize: 0x0 }
  - { offsetInCU: 0x187F1, offset: 0x9107D, size: 0x8, addend: 0x0, symName: __ZNSt3__119__allocate_at_leastB8ue170006INS_9allocatorI12hb_feature_tEEEENS_19__allocation_resultINS_16allocator_traitsIT_E7pointerEEERS6_m, symObjAddr: 0x2804, symBinAddr: 0x6804, symSize: 0x34 }
  - { offsetInCU: 0x18899, offset: 0x91125, size: 0x8, addend: 0x0, symName: __ZNSt3__113unordered_mapIjjNS_4hashIjEENS_8equal_toIjEENS_9allocatorINS_4pairIKjjEEEEEC2ERKSA_, symObjAddr: 0x2838, symBinAddr: 0x6838, symSize: 0x74 }
  - { offsetInCU: 0x18A89, offset: 0x91315, size: 0x8, addend: 0x0, symName: __ZNSt3__119__allocate_at_leastB8ue170006INS_9allocatorIN4rive7TextRunEEEEENS_19__allocation_resultINS_16allocator_traitsIT_E7pointerEEERS7_m, symObjAddr: 0x3AA4, symBinAddr: 0x7AA4, symSize: 0x34 }
  - { offsetInCU: 0x18B31, offset: 0x913BD, size: 0x8, addend: 0x0, symName: __ZNSt3__142__uninitialized_allocator_move_if_noexceptB8ue170006INS_9allocatorIN4rive7TextRunEEENS_16reverse_iteratorIPS3_EES7_S7_EET2_RT_T0_T1_S8_, symObjAddr: 0x3AD8, symBinAddr: 0x7AD8, symSize: 0xBC }
  - { offsetInCU: 0x18B50, offset: 0x913DC, size: 0x8, addend: 0x0, symName: __ZNSt3__119__allocate_at_leastB8ue170006INS_9allocatorIjEEEENS_19__allocation_resultINS_16allocator_traitsIT_E7pointerEEERS5_m, symObjAddr: 0x1E70, symBinAddr: 0x5E70, symSize: 0x34 }
  - { offsetInCU: 0x18BF8, offset: 0x91484, size: 0x8, addend: 0x0, symName: __ZNSt3__120__throw_length_errorB8ue170006EPKc, symObjAddr: 0x1EA4, symBinAddr: 0x5EA4, symSize: 0x50 }
  - { offsetInCU: 0x18C0D, offset: 0x91499, size: 0x8, addend: 0x0, symName: __ZNSt3__120__throw_length_errorB8ue170006EPKc, symObjAddr: 0x1EA4, symBinAddr: 0x5EA4, symSize: 0x50 }
  - { offsetInCU: 0x1922B, offset: 0x91AB7, size: 0x8, addend: 0x0, symName: __ZNSt3__142__uninitialized_allocator_move_if_noexceptB8ue170006INS_9allocatorIN4rive7TextRunEEENS_16reverse_iteratorIPS3_EES7_S7_EET2_RT_T0_T1_S8_, symObjAddr: 0x3AD8, symBinAddr: 0x7AD8, symSize: 0xBC }
  - { offsetInCU: 0x19E12, offset: 0x9269E, size: 0x8, addend: 0x0, symName: __ZSt28__throw_bad_array_new_lengthB8ue170006v, symObjAddr: 0x1F18, symBinAddr: 0x5F18, symSize: 0x28 }
  - { offsetInCU: 0x1C7B0, offset: 0x9503C, size: 0x8, addend: 0x0, symName: __ZNSt3__16vectorIN4rive7TextRunENS_9allocatorIS2_EEE26__swap_out_circular_bufferERNS_14__split_bufferIS2_RS4_EE, symObjAddr: 0x3A30, symBinAddr: 0x7A30, symSize: 0x74 }
  - { offsetInCU: 0x1EC59, offset: 0x974E5, size: 0x8, addend: 0x0, symName: __ZN6HBFont6DecodeEN4rive4SpanIKhEE, symObjAddr: 0x0, symBinAddr: 0x4000, symSize: 0xA0 }
  - { offsetInCU: 0x1EE1E, offset: 0x976AA, size: 0x8, addend: 0x0, symName: __ZN6HBFontC1EP9hb_font_t, symObjAddr: 0xA0, symBinAddr: 0x40A0, symSize: 0x84 }
  - { offsetInCU: 0x1F815, offset: 0x980A1, size: 0x8, addend: 0x0, symName: __ZN6HBFontC2EP9hb_font_tNSt3__113unordered_mapIjfNS2_4hashIjEENS2_8equal_toIjEENS2_9allocatorINS2_4pairIKjfEEEEEENS3_IjjS5_S7_NS8_INS9_ISA_jEEEEEENS2_6vectorI12hb_feature_tNS8_ISI_EEEE, symObjAddr: 0x1A8, symBinAddr: 0x41A8, symSize: 0x19C }
  - { offsetInCU: 0x1FE19, offset: 0x986A5, size: 0x8, addend: 0x0, symName: __ZNSt3__112__hash_tableINS_17__hash_value_typeIjjEENS_22__unordered_map_hasherIjS2_NS_4hashIjEENS_8equal_toIjEELb1EEENS_21__unordered_map_equalIjS2_S7_S5_Lb1EEENS_9allocatorIS2_EEED2Ev, symObjAddr: 0x26F0, symBinAddr: 0x66F0, symSize: 0x48 }
  - { offsetInCU: 0x200CB, offset: 0x98957, size: 0x8, addend: 0x0, symName: __ZNSt3__112__hash_tableINS_17__hash_value_typeIjfEENS_22__unordered_map_hasherIjS2_NS_4hashIjEENS_8equal_toIjEELb1EEENS_21__unordered_map_equalIjS2_S7_S5_Lb1EEENS_9allocatorIS2_EEED2Ev, symObjAddr: 0x26A8, symBinAddr: 0x66A8, symSize: 0x48 }
  - { offsetInCU: 0x2037D, offset: 0x98C09, size: 0x8, addend: 0x0, symName: __ZN6HBFontC2EP9hb_font_t, symObjAddr: 0x124, symBinAddr: 0x4124, symSize: 0x84 }
  - { offsetInCU: 0x20CD5, offset: 0x99561, size: 0x8, addend: 0x0, symName: __ZNSt3__16vectorI12hb_feature_tNS_9allocatorIS1_EEE16__init_with_sizeB8ue170006IPS1_S6_EEvT_T0_m, symObjAddr: 0x2738, symBinAddr: 0x6738, symSize: 0x78 }
  - { offsetInCU: 0x2113D, offset: 0x999C9, size: 0x8, addend: 0x0, symName: __ZNSt3__113unordered_mapIjjNS_4hashIjEENS_8equal_toIjEENS_9allocatorINS_4pairIKjjEEEEEC2ERKSA_, symObjAddr: 0x2838, symBinAddr: 0x6838, symSize: 0x74 }
  - { offsetInCU: 0x21496, offset: 0x99D22, size: 0x8, addend: 0x0, symName: __ZNSt3__113unordered_mapIjfNS_4hashIjEENS_8equal_toIjEENS_9allocatorINS_4pairIKjfEEEEEC2ERKSA_, symObjAddr: 0x2CFC, symBinAddr: 0x6CFC, symSize: 0x74 }
  - { offsetInCU: 0x21ADA, offset: 0x9A366, size: 0x8, addend: 0x0, symName: __ZN6HBFontC1EP9hb_font_tNSt3__113unordered_mapIjfNS2_4hashIjEENS2_8equal_toIjEENS2_9allocatorINS2_4pairIKjfEEEEEENS3_IjjS5_S7_NS8_INS9_ISA_jEEEEEENS2_6vectorI12hb_feature_tNS8_ISI_EEEE, symObjAddr: 0x344, symBinAddr: 0x4344, symSize: 0x4 }
  - { offsetInCU: 0x21B21, offset: 0x9A3AD, size: 0x8, addend: 0x0, symName: __ZN6HBFontC1EP9hb_font_tNSt3__113unordered_mapIjfNS2_4hashIjEENS2_8equal_toIjEENS2_9allocatorINS2_4pairIKjfEEEEEENS3_IjjS5_S7_NS8_INS9_ISA_jEEEEEENS2_6vectorI12hb_feature_tNS8_ISI_EEEE, symObjAddr: 0x344, symBinAddr: 0x4344, symSize: 0x4 }
  - { offsetInCU: 0x21B83, offset: 0x9A40F, size: 0x8, addend: 0x0, symName: __ZL13rpath_move_toP15hb_draw_funcs_tPvP15hb_draw_state_tffS1_, symObjAddr: 0x348, symBinAddr: 0x4348, symSize: 0x18 }
  - { offsetInCU: 0x21C44, offset: 0x9A4D0, size: 0x8, addend: 0x0, symName: __ZL13rpath_line_toP15hb_draw_funcs_tPvP15hb_draw_state_tffS1_, symObjAddr: 0x360, symBinAddr: 0x4360, symSize: 0x18 }
  - { offsetInCU: 0x21D1D, offset: 0x9A5A9, size: 0x8, addend: 0x0, symName: __ZL13rpath_quad_toP15hb_draw_funcs_tPvP15hb_draw_state_tffffS1_, symObjAddr: 0x378, symBinAddr: 0x4378, symSize: 0x20 }
  - { offsetInCU: 0x21E40, offset: 0x9A6CC, size: 0x8, addend: 0x0, symName: __ZL14rpath_cubic_toP15hb_draw_funcs_tPvP15hb_draw_state_tffffffS1_, symObjAddr: 0x398, symBinAddr: 0x4398, symSize: 0x28 }
  - { offsetInCU: 0x21F37, offset: 0x9A7C3, size: 0x8, addend: 0x0, symName: __ZL11rpath_closeP15hb_draw_funcs_tPvP15hb_draw_state_tS1_, symObjAddr: 0x3C0, symBinAddr: 0x43C0, symSize: 0x8 }
  - { offsetInCU: 0x21F7A, offset: 0x9A806, size: 0x8, addend: 0x0, symName: __ZN6HBFontD2Ev, symObjAddr: 0x3C8, symBinAddr: 0x43C8, symSize: 0x60 }
  - { offsetInCU: 0x2221A, offset: 0x9AAA6, size: 0x8, addend: 0x0, symName: __ZN6HBFontD1Ev, symObjAddr: 0x434, symBinAddr: 0x4434, symSize: 0x4 }
  - { offsetInCU: 0x2223E, offset: 0x9AACA, size: 0x8, addend: 0x0, symName: __ZN6HBFontD1Ev, symObjAddr: 0x434, symBinAddr: 0x4434, symSize: 0x4 }
  - { offsetInCU: 0x2226E, offset: 0x9AAFA, size: 0x8, addend: 0x0, symName: __ZN6HBFontD0Ev, symObjAddr: 0x438, symBinAddr: 0x4438, symSize: 0x14 }
  - { offsetInCU: 0x22615, offset: 0x9AEA1, size: 0x8, addend: 0x0, symName: __ZNK6HBFont8featuresEv, symObjAddr: 0x44C, symBinAddr: 0x444C, symSize: 0xB0 }
  - { offsetInCU: 0x22A40, offset: 0x9B2CC, size: 0x8, addend: 0x0, symName: __ZL12fillFeaturesP9hb_face_tjRNSt3__113unordered_setIjNS1_4hashIjEENS1_8equal_toIjEENS1_9allocatorIjEEEE, symObjAddr: 0x4FC, symBinAddr: 0x44FC, symSize: 0x18C }
  - { offsetInCU: 0x232B3, offset: 0x9BB3F, size: 0x8, addend: 0x0, symName: __ZNSt3__112__hash_tableIjNS_4hashIjEENS_8equal_toIjEENS_9allocatorIjEEED2Ev, symObjAddr: 0x31C0, symBinAddr: 0x71C0, symSize: 0x48 }
  - { offsetInCU: 0x236CB, offset: 0x9BF57, size: 0x8, addend: 0x0, symName: __ZNSt3__16vectorIjNS_9allocatorIjEEEC2Em, symObjAddr: 0x1DA8, symBinAddr: 0x5DA8, symSize: 0x74 }
  - { offsetInCU: 0x239A8, offset: 0x9C234, size: 0x8, addend: 0x0, symName: __ZL20fillLanguageFeaturesP9hb_face_tjjjRNSt3__113unordered_setIjNS1_4hashIjEENS1_8equal_toIjEENS1_9allocatorIjEEEE, symObjAddr: 0x1CC0, symBinAddr: 0x5CC0, symSize: 0xE8 }
  - { offsetInCU: 0x23F1A, offset: 0x9C7A6, size: 0x8, addend: 0x0, symName: __ZNK6HBFont7getAxisEt, symObjAddr: 0x688, symBinAddr: 0x4688, symSize: 0x54 }
  - { offsetInCU: 0x24066, offset: 0x9C8F2, size: 0x8, addend: 0x0, symName: __ZNK6HBFont12getAxisCountEv, symObjAddr: 0x6DC, symBinAddr: 0x46DC, symSize: 0x20 }
  - { offsetInCU: 0x240F5, offset: 0x9C981, size: 0x8, addend: 0x0, symName: __ZNK6HBFont12getAxisValueEj, symObjAddr: 0x6FC, symBinAddr: 0x46FC, symSize: 0xB4 }
  - { offsetInCU: 0x24231, offset: 0x9CABD, size: 0x8, addend: 0x0, symName: __ZNKSt3__112__hash_tableINS_17__hash_value_typeIjfEENS_22__unordered_map_hasherIjS2_NS_4hashIjEENS_8equal_toIjEELb1EEENS_21__unordered_map_equalIjS2_S7_S5_Lb1EEENS_9allocatorIS2_EEE4findIjEENS_21__hash_const_iteratorIPNS_11__hash_nodeIS2_PvEEEERKT_, symObjAddr: 0x3208, symBinAddr: 0x7208, symSize: 0xB4 }
  - { offsetInCU: 0x2428D, offset: 0x9CB19, size: 0x8, addend: 0x0, symName: __ZNKSt3__112__hash_tableINS_17__hash_value_typeIjfEENS_22__unordered_map_hasherIjS2_NS_4hashIjEENS_8equal_toIjEELb1EEENS_21__unordered_map_equalIjS2_S7_S5_Lb1EEENS_9allocatorIS2_EEE4findIjEENS_21__hash_const_iteratorIPNS_11__hash_nodeIS2_PvEEEERKT_, symObjAddr: 0x3208, symBinAddr: 0x7208, symSize: 0xB4 }
  - { offsetInCU: 0x242AB, offset: 0x9CB37, size: 0x8, addend: 0x0, symName: __ZNKSt3__112__hash_tableINS_17__hash_value_typeIjfEENS_22__unordered_map_hasherIjS2_NS_4hashIjEENS_8equal_toIjEELb1EEENS_21__unordered_map_equalIjS2_S7_S5_Lb1EEENS_9allocatorIS2_EEE4findIjEENS_21__hash_const_iteratorIPNS_11__hash_nodeIS2_PvEEEERKT_, symObjAddr: 0x3208, symBinAddr: 0x7208, symSize: 0xB4 }
  - { offsetInCU: 0x243FE, offset: 0x9CC8A, size: 0x8, addend: 0x0, symName: __ZNK6HBFont15getFeatureValueEj, symObjAddr: 0x7B0, symBinAddr: 0x47B0, symSize: 0x38 }
  - { offsetInCU: 0x24489, offset: 0x9CD15, size: 0x8, addend: 0x0, symName: __ZNKSt3__112__hash_tableINS_17__hash_value_typeIjjEENS_22__unordered_map_hasherIjS2_NS_4hashIjEENS_8equal_toIjEELb1EEENS_21__unordered_map_equalIjS2_S7_S5_Lb1EEENS_9allocatorIS2_EEE4findIjEENS_21__hash_const_iteratorIPNS_11__hash_nodeIS2_PvEEEERKT_, symObjAddr: 0x32BC, symBinAddr: 0x72BC, symSize: 0xB4 }
  - { offsetInCU: 0x244E5, offset: 0x9CD71, size: 0x8, addend: 0x0, symName: __ZNKSt3__112__hash_tableINS_17__hash_value_typeIjjEENS_22__unordered_map_hasherIjS2_NS_4hashIjEENS_8equal_toIjEELb1EEENS_21__unordered_map_equalIjS2_S7_S5_Lb1EEENS_9allocatorIS2_EEE4findIjEENS_21__hash_const_iteratorIPNS_11__hash_nodeIS2_PvEEEERKT_, symObjAddr: 0x32BC, symBinAddr: 0x72BC, symSize: 0xB4 }
  - { offsetInCU: 0x24503, offset: 0x9CD8F, size: 0x8, addend: 0x0, symName: __ZNKSt3__112__hash_tableINS_17__hash_value_typeIjjEENS_22__unordered_map_hasherIjS2_NS_4hashIjEENS_8equal_toIjEELb1EEENS_21__unordered_map_equalIjS2_S7_S5_Lb1EEENS_9allocatorIS2_EEE4findIjEENS_21__hash_const_iteratorIPNS_11__hash_nodeIS2_PvEEEERKT_, symObjAddr: 0x32BC, symBinAddr: 0x72BC, symSize: 0xB4 }
  - { offsetInCU: 0x24DB9, offset: 0x9D645, size: 0x8, addend: 0x0, symName: __ZNK6HBFont11withOptionsEN4rive4SpanIKNS0_4Font5CoordEEENS1_IKNS2_7FeatureEEE, symObjAddr: 0x7E8, symBinAddr: 0x47E8, symSize: 0x3D4 }
  - { offsetInCU: 0x263D9, offset: 0x9EC65, size: 0x8, addend: 0x0, symName: __ZNSt3__112__hash_tableINS_17__hash_value_typeIjfEENS_22__unordered_map_hasherIjS2_NS_4hashIjEENS_8equal_toIjEELb1EEENS_21__unordered_map_equalIjS2_S7_S5_Lb1EEENS_9allocatorIS2_EEE25__emplace_unique_key_argsIjJRKNS_21piecewise_construct_tENS_5tupleIJRKjEEENSI_IJEEEEEENS_4pairINS_15__hash_iteratorIPNS_11__hash_nodeIS2_PvEEEEbEERKT_DpOT0_, symObjAddr: 0x3370, symBinAddr: 0x7370, symSize: 0x220 }
  - { offsetInCU: 0x26ABF, offset: 0x9F34B, size: 0x8, addend: 0x0, symName: __ZNSt3__112__hash_tableINS_17__hash_value_typeIjjEENS_22__unordered_map_hasherIjS2_NS_4hashIjEENS_8equal_toIjEELb1EEENS_21__unordered_map_equalIjS2_S7_S5_Lb1EEENS_9allocatorIS2_EEE25__emplace_unique_key_argsIjJRKNS_21piecewise_construct_tENS_5tupleIJRKjEEENSI_IJEEEEEENS_4pairINS_15__hash_iteratorIPNS_11__hash_nodeIS2_PvEEEEbEERKT_DpOT0_, symObjAddr: 0x3590, symBinAddr: 0x7590, symSize: 0x220 }
  - { offsetInCU: 0x27162, offset: 0x9F9EE, size: 0x8, addend: 0x0, symName: __ZNKSt3__16vectorI12hb_feature_tNS_9allocatorIS1_EEE20__throw_length_errorB8ue170006Ev, symObjAddr: 0x27F0, symBinAddr: 0x67F0, symSize: 0x14 }
  - { offsetInCU: 0x2718B, offset: 0x9FA17, size: 0x8, addend: 0x0, symName: __ZNSt3__119__allocate_at_leastB8ue170006INS_9allocatorI12hb_feature_tEEEENS_19__allocation_resultINS_16allocator_traitsIT_E7pointerEEERS6_m, symObjAddr: 0x2804, symBinAddr: 0x6804, symSize: 0x34 }
  - { offsetInCU: 0x27208, offset: 0x9FA94, size: 0x8, addend: 0x0, symName: __ZNK6HBFont7getPathEt, symObjAddr: 0xBBC, symBinAddr: 0x4BBC, symSize: 0x54 }
  - { offsetInCU: 0x2732F, offset: 0x9FBBB, size: 0x8, addend: 0x0, symName: __ZN4rive7RawPathD1Ev, symObjAddr: 0xC10, symBinAddr: 0x4C10, symSize: 0x40 }
  - { offsetInCU: 0x284EB, offset: 0xA0D77, size: 0x8, addend: 0x0, symName: __ZNK6HBFont11onShapeTextEN4rive4SpanIKjEENS1_IKNS0_7TextRunEEE, symObjAddr: 0xC50, symBinAddr: 0x4C50, symSize: 0xBB8 }
  - { offsetInCU: 0x2B77D, offset: 0xA4009, size: 0x8, addend: 0x0, symName: __ZNSt3__16vectorIN4rive7TextRunENS_9allocatorIS2_EEE7reserveEm, symObjAddr: 0x1808, symBinAddr: 0x5808, symSize: 0x90 }
  - { offsetInCU: 0x2B967, offset: 0xA41F3, size: 0x8, addend: 0x0, symName: __ZNSt3__16vectorIN4rive7TextRunENS_9allocatorIS2_EEE9push_backB8ue170006ERKS2_, symObjAddr: 0x1898, symBinAddr: 0x5898, symSize: 0x144 }
  - { offsetInCU: 0x2BF6A, offset: 0xA47F6, size: 0x8, addend: 0x0, symName: __ZN4rive11SimpleArrayINS_8GlyphRunEEC2Em, symObjAddr: 0x3CBC, symBinAddr: 0x7CBC, symSize: 0x50 }
  - { offsetInCU: 0x2C007, offset: 0xA4893, size: 0x8, addend: 0x0, symName: __ZL9shape_runPKjRKN4rive7TextRunEj, symObjAddr: 0x19DC, symBinAddr: 0x59DC, symSize: 0x22C }
  - { offsetInCU: 0x2C52A, offset: 0xA4DB6, size: 0x8, addend: 0x0, symName: __ZN4rive18SimpleArrayBuilderINS_8GlyphRunEE9growToFitEv, symObjAddr: 0x37B0, symBinAddr: 0x77B0, symSize: 0x50 }
  - { offsetInCU: 0x2C57A, offset: 0xA4E06, size: 0x8, addend: 0x0, symName: __ZN4rive8GlyphRunaSEOS0_, symObjAddr: 0x3800, symBinAddr: 0x7800, symSize: 0xF4 }
  - { offsetInCU: 0x2C7D1, offset: 0xA505D, size: 0x8, addend: 0x0, symName: __ZN4rive8GlyphRunC2ENS_11SimpleArrayItEENS1_IjEENS1_IfEES4_NS1_INS_5Vec2DEEE, symObjAddr: 0x249C, symBinAddr: 0x649C, symSize: 0x138 }
  - { offsetInCU: 0x2CE98, offset: 0xA5724, size: 0x8, addend: 0x0, symName: __ZN4rive18SimpleArrayBuilderINS_8GlyphRunEE6resizeEm, symObjAddr: 0x38F4, symBinAddr: 0x78F4, symSize: 0x84 }
  - { offsetInCU: 0x2CF39, offset: 0xA57C5, size: 0x8, addend: 0x0, symName: __ZN4rive18SimpleArrayBuilderINS_9ParagraphEE9growToFitEv, symObjAddr: 0x3D0C, symBinAddr: 0x7D0C, symSize: 0x54 }
  - { offsetInCU: 0x2CF89, offset: 0xA5815, size: 0x8, addend: 0x0, symName: __ZN4rive11SimpleArrayINS_8GlyphRunEEaSEOS2_, symObjAddr: 0x3E2C, symBinAddr: 0x7E2C, symSize: 0x48 }
  - { offsetInCU: 0x2CFCE, offset: 0xA585A, size: 0x8, addend: 0x0, symName: __ZN4rive17SimpleArrayHelperINS_8GlyphRunELb0EE13DestructArrayEPS1_S3_, symObjAddr: 0x25D4, symBinAddr: 0x65D4, symSize: 0x90 }
  - { offsetInCU: 0x2D2B1, offset: 0xA5B3D, size: 0x8, addend: 0x0, symName: __ZNSt3__16vectorIN4rive7TextRunENS_9allocatorIS2_EEE16__destroy_vectorclB8ue170006Ev, symObjAddr: 0x3978, symBinAddr: 0x7978, symSize: 0x40 }
  - { offsetInCU: 0x2D3AD, offset: 0xA5C39, size: 0x8, addend: 0x0, symName: __ZN4rive18SimpleArrayBuilderINS_9ParagraphEE6resizeEm, symObjAddr: 0x3D60, symBinAddr: 0x7D60, symSize: 0xCC }
  - { offsetInCU: 0x2D46B, offset: 0xA5CF7, size: 0x8, addend: 0x0, symName: __ZN4rive17SimpleArrayHelperINS_9ParagraphELb0EE13DestructArrayEPS1_S3_, symObjAddr: 0x2664, symBinAddr: 0x6664, symSize: 0x44 }
  - { offsetInCU: 0x2D52E, offset: 0xA5DBA, size: 0x8, addend: 0x0, symName: __ZN4rive8GlyphRunD1Ev, symObjAddr: 0x1C08, symBinAddr: 0x5C08, symSize: 0x7C }
  - { offsetInCU: 0x2D7D3, offset: 0xA605F, size: 0x8, addend: 0x0, symName: __ZNK6HBFont11onShapeTextEN4rive4SpanIKjEENS1_IKNS0_7TextRunEEE.cold.1, symObjAddr: 0x3E74, symBinAddr: 0x100D40, symSize: 0x34 }
  - { offsetInCU: 0x2DA5E, offset: 0xA62EA, size: 0x8, addend: 0x0, symName: __ZNSt3__114__split_bufferIN4rive7TextRunERNS_9allocatorIS2_EEED2Ev, symObjAddr: 0x3C28, symBinAddr: 0x7C28, symSize: 0x30 }
  - { offsetInCU: 0x2DB5B, offset: 0xA63E7, size: 0x8, addend: 0x0, symName: __ZNKSt3__16vectorIN4rive7TextRunENS_9allocatorIS2_EEE20__throw_length_errorB8ue170006Ev, symObjAddr: 0x3A1C, symBinAddr: 0x7A1C, symSize: 0x14 }
  - { offsetInCU: 0x2DB84, offset: 0xA6410, size: 0x8, addend: 0x0, symName: __ZNSt3__16vectorIN4rive7TextRunENS_9allocatorIS2_EEE26__swap_out_circular_bufferERNS_14__split_bufferIS2_RS4_EE, symObjAddr: 0x3A30, symBinAddr: 0x7A30, symSize: 0x74 }
  - { offsetInCU: 0x2DFE5, offset: 0xA6871, size: 0x8, addend: 0x0, symName: __ZN4rive8GlyphRunC2Em, symObjAddr: 0x2390, symBinAddr: 0x6390, symSize: 0xB0 }
  - { offsetInCU: 0x2E347, offset: 0xA6BD3, size: 0x8, addend: 0x0, symName: __ZNK6HBFont8hasGlyphEN4rive4SpanIKjEE, symObjAddr: 0x1C84, symBinAddr: 0x5C84, symSize: 0x3C }
  - { offsetInCU: 0x2E4C2, offset: 0xA6D4E, size: 0x8, addend: 0x0, symName: __ZNSt3__112__hash_tableIjNS_4hashIjEENS_8equal_toIjEENS_9allocatorIjEEE25__emplace_unique_key_argsIjJRjEEENS_4pairINS_15__hash_iteratorIPNS_11__hash_nodeIjPvEEEEbEERKT_DpOT0_, symObjAddr: 0x1F40, symBinAddr: 0x5F40, symSize: 0x21C }
  - { offsetInCU: 0x2EC23, offset: 0xA74AF, size: 0x8, addend: 0x0, symName: __ZNSt3__16vectorIjNS_9allocatorIjEEE11__vallocateB8ue170006Em, symObjAddr: 0x1E1C, symBinAddr: 0x5E1C, symSize: 0x40 }
  - { offsetInCU: 0x2ECA3, offset: 0xA752F, size: 0x8, addend: 0x0, symName: __ZNKSt3__16vectorIjNS_9allocatorIjEEE20__throw_length_errorB8ue170006Ev, symObjAddr: 0x1E5C, symBinAddr: 0x5E5C, symSize: 0x14 }
  - { offsetInCU: 0x2ECCD, offset: 0xA7559, size: 0x8, addend: 0x0, symName: __ZNKSt3__16vectorIjNS_9allocatorIjEEE20__throw_length_errorB8ue170006Ev, symObjAddr: 0x1E5C, symBinAddr: 0x5E5C, symSize: 0x14 }
  - { offsetInCU: 0x2ECF6, offset: 0xA7582, size: 0x8, addend: 0x0, symName: __ZNSt3__119__allocate_at_leastB8ue170006INS_9allocatorIjEEEENS_19__allocation_resultINS_16allocator_traitsIT_E7pointerEEERS5_m, symObjAddr: 0x1E70, symBinAddr: 0x5E70, symSize: 0x34 }
  - { offsetInCU: 0x2ED24, offset: 0xA75B0, size: 0x8, addend: 0x0, symName: __ZNSt12length_errorC1B8ue170006EPKc, symObjAddr: 0x1EF4, symBinAddr: 0x5EF4, symSize: 0x24 }
  - { offsetInCU: 0x2F09C, offset: 0xA7928, size: 0x8, addend: 0x0, symName: __ZNSt3__112__hash_tableIjNS_4hashIjEENS_8equal_toIjEENS_9allocatorIjEEE8__rehashILb1EEEvm, symObjAddr: 0x215C, symBinAddr: 0x615C, symSize: 0xDC }
  - { offsetInCU: 0x2F18F, offset: 0xA7A1B, size: 0x8, addend: 0x0, symName: __ZNSt3__112__hash_tableIjNS_4hashIjEENS_8equal_toIjEENS_9allocatorIjEEE11__do_rehashILb1EEEvm, symObjAddr: 0x2238, symBinAddr: 0x6238, symSize: 0x158 }
  - { offsetInCU: 0x2F662, offset: 0xA7EEE, size: 0x8, addend: 0x0, symName: __ZN4rive8GlyphRunC2Em, symObjAddr: 0x2390, symBinAddr: 0x6390, symSize: 0xB0 }
  - { offsetInCU: 0x2F7EE, offset: 0xA807A, size: 0x8, addend: 0x0, symName: __ZN4rive11SimpleArrayINS_5Vec2DEEC2Em, symObjAddr: 0x2440, symBinAddr: 0x6440, symSize: 0x5C }
  - { offsetInCU: 0x2F868, offset: 0xA80F4, size: 0x8, addend: 0x0, symName: __ZN4rive8GlyphRunC2Em.cold.1, symObjAddr: 0x3EA8, symBinAddr: 0x100D74, symSize: 0x20 }
  - { offsetInCU: 0x2F883, offset: 0xA810F, size: 0x8, addend: 0x0, symName: __ZN4rive8GlyphRunC2Em.cold.1, symObjAddr: 0x3EA8, symBinAddr: 0x100D74, symSize: 0x20 }
  - { offsetInCU: 0x2F898, offset: 0xA8124, size: 0x8, addend: 0x0, symName: __ZN4rive8GlyphRunC2Em.cold.1, symObjAddr: 0x3EA8, symBinAddr: 0x100D74, symSize: 0x20 }
  - { offsetInCU: 0x2F8AD, offset: 0xA8139, size: 0x8, addend: 0x0, symName: __ZN4rive8GlyphRunC2Em.cold.1, symObjAddr: 0x3EA8, symBinAddr: 0x100D74, symSize: 0x20 }
  - { offsetInCU: 0x2FA51, offset: 0xA82DD, size: 0x8, addend: 0x0, symName: __ZN4rive8GlyphRunC2ENS_11SimpleArrayItEENS1_IjEENS1_IfEES4_NS1_INS_5Vec2DEEE.cold.1, symObjAddr: 0x3EC8, symBinAddr: 0x100D94, symSize: 0x20 }
  - { offsetInCU: 0x2FA6C, offset: 0xA82F8, size: 0x8, addend: 0x0, symName: __ZN4rive8GlyphRunC2ENS_11SimpleArrayItEENS1_IjEENS1_IfEES4_NS1_INS_5Vec2DEEE.cold.1, symObjAddr: 0x3EC8, symBinAddr: 0x100D94, symSize: 0x20 }
  - { offsetInCU: 0x2FA81, offset: 0xA830D, size: 0x8, addend: 0x0, symName: __ZN4rive8GlyphRunC2ENS_11SimpleArrayItEENS1_IjEENS1_IfEES4_NS1_INS_5Vec2DEEE.cold.1, symObjAddr: 0x3EC8, symBinAddr: 0x100D94, symSize: 0x20 }
  - { offsetInCU: 0x2FA96, offset: 0xA8322, size: 0x8, addend: 0x0, symName: __ZN4rive8GlyphRunC2ENS_11SimpleArrayItEENS1_IjEENS1_IfEES4_NS1_INS_5Vec2DEEE.cold.1, symObjAddr: 0x3EC8, symBinAddr: 0x100D94, symSize: 0x20 }
  - { offsetInCU: 0x2FFE5, offset: 0xA8871, size: 0x8, addend: 0x0, symName: __ZNSt3__16vectorI12hb_feature_tNS_9allocatorIS1_EEE11__vallocateB8ue170006Em, symObjAddr: 0x27B0, symBinAddr: 0x67B0, symSize: 0x40 }
  - { offsetInCU: 0x30065, offset: 0xA88F1, size: 0x8, addend: 0x0, symName: __ZNKSt3__16vectorI12hb_feature_tNS_9allocatorIS1_EEE20__throw_length_errorB8ue170006Ev, symObjAddr: 0x27F0, symBinAddr: 0x67F0, symSize: 0x14 }
  - { offsetInCU: 0x303F1, offset: 0xA8C7D, size: 0x8, addend: 0x0, symName: __ZNSt3__112__hash_tableINS_17__hash_value_typeIjjEENS_22__unordered_map_hasherIjS2_NS_4hashIjEENS_8equal_toIjEELb1EEENS_21__unordered_map_equalIjS2_S7_S5_Lb1EEENS_9allocatorIS2_EEE8__rehashILb1EEEvm, symObjAddr: 0x28AC, symBinAddr: 0x68AC, symSize: 0xDC }
  - { offsetInCU: 0x304E4, offset: 0xA8D70, size: 0x8, addend: 0x0, symName: __ZNSt3__112__hash_tableINS_17__hash_value_typeIjjEENS_22__unordered_map_hasherIjS2_NS_4hashIjEENS_8equal_toIjEELb1EEENS_21__unordered_map_equalIjS2_S7_S5_Lb1EEENS_9allocatorIS2_EEE25__emplace_unique_key_argsIjJRKNS_4pairIKjjEEEEENSF_INS_15__hash_iteratorIPNS_11__hash_nodeIS2_PvEEEEbEERKT_DpOT0_, symObjAddr: 0x2AE0, symBinAddr: 0x6AE0, symSize: 0x21C }
  - { offsetInCU: 0x30AED, offset: 0xA9379, size: 0x8, addend: 0x0, symName: __ZNSt3__112__hash_tableINS_17__hash_value_typeIjjEENS_22__unordered_map_hasherIjS2_NS_4hashIjEENS_8equal_toIjEELb1EEENS_21__unordered_map_equalIjS2_S7_S5_Lb1EEENS_9allocatorIS2_EEE11__do_rehashILb1EEEvm, symObjAddr: 0x2988, symBinAddr: 0x6988, symSize: 0x158 }
  - { offsetInCU: 0x30FC0, offset: 0xA984C, size: 0x8, addend: 0x0, symName: __ZNSt3__112__hash_tableINS_17__hash_value_typeIjjEENS_22__unordered_map_hasherIjS2_NS_4hashIjEENS_8equal_toIjEELb1EEENS_21__unordered_map_equalIjS2_S7_S5_Lb1EEENS_9allocatorIS2_EEE25__emplace_unique_key_argsIjJRKNS_4pairIKjjEEEEENSF_INS_15__hash_iteratorIPNS_11__hash_nodeIS2_PvEEEEbEERKT_DpOT0_, symObjAddr: 0x2AE0, symBinAddr: 0x6AE0, symSize: 0x21C }
  - { offsetInCU: 0x315EE, offset: 0xA9E7A, size: 0x8, addend: 0x0, symName: __ZNSt3__112__hash_tableINS_17__hash_value_typeIjfEENS_22__unordered_map_hasherIjS2_NS_4hashIjEENS_8equal_toIjEELb1EEENS_21__unordered_map_equalIjS2_S7_S5_Lb1EEENS_9allocatorIS2_EEE8__rehashILb1EEEvm, symObjAddr: 0x2D70, symBinAddr: 0x6D70, symSize: 0xDC }
  - { offsetInCU: 0x316E1, offset: 0xA9F6D, size: 0x8, addend: 0x0, symName: __ZNSt3__112__hash_tableINS_17__hash_value_typeIjfEENS_22__unordered_map_hasherIjS2_NS_4hashIjEENS_8equal_toIjEELb1EEENS_21__unordered_map_equalIjS2_S7_S5_Lb1EEENS_9allocatorIS2_EEE25__emplace_unique_key_argsIjJRKNS_4pairIKjfEEEEENSF_INS_15__hash_iteratorIPNS_11__hash_nodeIS2_PvEEEEbEERKT_DpOT0_, symObjAddr: 0x2FA4, symBinAddr: 0x6FA4, symSize: 0x21C }
  - { offsetInCU: 0x31CEA, offset: 0xAA576, size: 0x8, addend: 0x0, symName: __ZNSt3__112__hash_tableINS_17__hash_value_typeIjfEENS_22__unordered_map_hasherIjS2_NS_4hashIjEENS_8equal_toIjEELb1EEENS_21__unordered_map_equalIjS2_S7_S5_Lb1EEENS_9allocatorIS2_EEE11__do_rehashILb1EEEvm, symObjAddr: 0x2E4C, symBinAddr: 0x6E4C, symSize: 0x158 }
  - { offsetInCU: 0x321BD, offset: 0xAAA49, size: 0x8, addend: 0x0, symName: __ZNSt3__112__hash_tableINS_17__hash_value_typeIjfEENS_22__unordered_map_hasherIjS2_NS_4hashIjEENS_8equal_toIjEELb1EEENS_21__unordered_map_equalIjS2_S7_S5_Lb1EEENS_9allocatorIS2_EEE25__emplace_unique_key_argsIjJRKNS_4pairIKjfEEEEENSF_INS_15__hash_iteratorIPNS_11__hash_nodeIS2_PvEEEEbEERKT_DpOT0_, symObjAddr: 0x2FA4, symBinAddr: 0x6FA4, symSize: 0x21C }
  - { offsetInCU: 0x32BE8, offset: 0xAB474, size: 0x8, addend: 0x0, symName: __ZNSt3__16vectorIN4rive7TextRunENS_9allocatorIS2_EEE7__clearB8ue170006Ev, symObjAddr: 0x39B8, symBinAddr: 0x79B8, symSize: 0x64 }
  - { offsetInCU: 0x32EC0, offset: 0xAB74C, size: 0x8, addend: 0x0, symName: __ZNSt3__128__exception_guard_exceptionsINS_29_AllocatorDestroyRangeReverseINS_9allocatorIN4rive7TextRunEEENS_16reverse_iteratorIPS4_EEEEED2B8ue170006Ev, symObjAddr: 0x3B94, symBinAddr: 0x7B94, symSize: 0x34 }
  - { offsetInCU: 0x32F01, offset: 0xAB78D, size: 0x8, addend: 0x0, symName: __ZNKSt3__129_AllocatorDestroyRangeReverseINS_9allocatorIN4rive7TextRunEEENS_16reverse_iteratorIPS3_EEEclB8ue170006Ev, symObjAddr: 0x3BC8, symBinAddr: 0x7BC8, symSize: 0x60 }
  - { offsetInCU: 0x330F4, offset: 0xAB980, size: 0x8, addend: 0x0, symName: __ZNSt3__114__split_bufferIN4rive7TextRunERNS_9allocatorIS2_EEE5clearB8ue170006Ev, symObjAddr: 0x3C58, symBinAddr: 0x7C58, symSize: 0x64 }
  - { offsetInCU: 0x33379, offset: 0xABC05, size: 0x8, addend: 0x0, symName: _OUTLINED_FUNCTION_0, symObjAddr: 0x3EE8, symBinAddr: 0x7E74, symSize: 0xC }
  - { offsetInCU: 0x100CE, offset: 0xBBD11, size: 0x8, addend: 0x0, symName: __ZN5graph4swapERNS_7graph_t8vertex_tES2_, symObjAddr: 0x108C, symBinAddr: 0x8DF4, symSize: 0xA4 }
  - { offsetInCU: 0x6E579, offset: 0x11A1BC, size: 0x8, addend: 0x0, symName: __ZN5graph24gsubgpos_graph_context_tC2EjRNS_7graph_tE, symObjAddr: 0x0, symBinAddr: 0x7E80, symSize: 0xEC }
  - { offsetInCU: 0x6E8A2, offset: 0x11A4E5, size: 0x8, addend: 0x0, symName: __ZN5graph5GSTAR14graph_to_gstarERNS_7graph_tE, symObjAddr: 0xEC, symBinAddr: 0x7F6C, symSize: 0x5C }
  - { offsetInCU: 0x6E971, offset: 0x11A5B4, size: 0x8, addend: 0x0, symName: __ZN5graph5GSTAR12find_lookupsIN2OT6Layout10SmallTypesEEEvRNS_7graph_tER12hb_hashmap_tIjPNS_6LookupELb0EE, symObjAddr: 0x51C, symBinAddr: 0x8290, symSize: 0x20C }
  - { offsetInCU: 0x6EDE7, offset: 0x11AA2A, size: 0x8, addend: 0x0, symName: __ZNK5graph7graph_t16index_for_offsetEjPKv, symObjAddr: 0x728, symBinAddr: 0x849C, symSize: 0x70 }
  - { offsetInCU: 0x6EE50, offset: 0x11AA93, size: 0x8, addend: 0x0, symName: __ZNK5graph7graph_t16index_for_offsetEjPKv, symObjAddr: 0x728, symBinAddr: 0x849C, symSize: 0x70 }
  - { offsetInCU: 0x6EE76, offset: 0x11AAB9, size: 0x8, addend: 0x0, symName: __ZNK5graph7graph_t16index_for_offsetEjPKv, symObjAddr: 0x728, symBinAddr: 0x849C, symSize: 0x70 }
  - { offsetInCU: 0x6EED0, offset: 0x11AB13, size: 0x8, addend: 0x0, symName: __ZN12hb_hashmap_tIjPN5graph6LookupELb0EE4finiEv, symObjAddr: 0x11C4, symBinAddr: 0x8F2C, symSize: 0x6C }
  - { offsetInCU: 0x6F0A4, offset: 0x11ACE7, size: 0x8, addend: 0x0, symName: __ZN5graph5GSTAR8sanitizeERKNS_7graph_t8vertex_tE, symObjAddr: 0x4B0, symBinAddr: 0x8224, symSize: 0x6C }
  - { offsetInCU: 0x6F1C6, offset: 0x11AE09, size: 0x8, addend: 0x0, symName: __ZN5graph24gsubgpos_graph_context_tC1EjRNS_7graph_tE, symObjAddr: 0x148, symBinAddr: 0x7FC8, symSize: 0x4 }
  - { offsetInCU: 0x6F210, offset: 0x11AE53, size: 0x8, addend: 0x0, symName: __ZN5graph24gsubgpos_graph_context_tC1EjRNS_7graph_tE, symObjAddr: 0x148, symBinAddr: 0x7FC8, symSize: 0x4 }
  - { offsetInCU: 0x6F283, offset: 0x11AEC6, size: 0x8, addend: 0x0, symName: __ZN5graph24gsubgpos_graph_context_t11create_nodeEj, symObjAddr: 0x14C, symBinAddr: 0x7FCC, symSize: 0x70 }
  - { offsetInCU: 0x6F346, offset: 0x11AF89, size: 0x8, addend: 0x0, symName: __ZN11hb_vector_tIPcLb0EE4pushIRS0_S0_LPv0EEEPS0_OT_, symObjAddr: 0xB70, symBinAddr: 0x88E4, symSize: 0x60 }
  - { offsetInCU: 0x6F3F5, offset: 0x11B038, size: 0x8, addend: 0x0, symName: __ZN5graph7graph_t8new_nodeEPcS1_, symObjAddr: 0x1BC, symBinAddr: 0x803C, symSize: 0x1E8 }
  - { offsetInCU: 0x6FCA4, offset: 0x11B8E7, size: 0x8, addend: 0x0, symName: __ZN11hb_vector_tIN5graph7graph_t8vertex_tELb0EE4pushEv, symObjAddr: 0xC58, symBinAddr: 0x89CC, symSize: 0x78 }
  - { offsetInCU: 0x6FD1E, offset: 0x11B961, size: 0x8, addend: 0x0, symName: __ZN5graph7graph_t8vertex_t12remap_parentEjj, symObjAddr: 0xCD0, symBinAddr: 0x8A44, symSize: 0x70 }
  - { offsetInCU: 0x6FD5E, offset: 0x11B9A1, size: 0x8, addend: 0x0, symName: __ZN5graph7graph_t8vertex_t12remap_parentEjj, symObjAddr: 0xCD0, symBinAddr: 0x8A44, symSize: 0x70 }
  - { offsetInCU: 0x6FFD8, offset: 0x11BC1B, size: 0x8, addend: 0x0, symName: __ZN12hb_hashmap_tIjPN5graph6LookupELb0EE13set_with_hashIRKjRS2_EEbOT_jOT0_b, symObjAddr: 0x798, symBinAddr: 0x850C, symSize: 0xFC }
  - { offsetInCU: 0x7016C, offset: 0x11BDAF, size: 0x8, addend: 0x0, symName: __ZN12hb_hashmap_tIjPN5graph6LookupELb0EE6resizeEj, symObjAddr: 0x894, symBinAddr: 0x8608, symSize: 0x154 }
  - { offsetInCU: 0x702BA, offset: 0x11BEFD, size: 0x8, addend: 0x0, symName: __ZNK12hb_hashmap_tIjPN5graph6LookupELb0EE13item_for_hashERKjj, symObjAddr: 0x9E8, symBinAddr: 0x875C, symSize: 0x8C }
  - { offsetInCU: 0x703C2, offset: 0x11C005, size: 0x8, addend: 0x0, symName: __ZN12hb_hashmap_tIjPN5graph6LookupELb0EE13set_with_hashIjS2_EEbOT_jOT0_b, symObjAddr: 0xA74, symBinAddr: 0x87E8, symSize: 0xFC }
  - { offsetInCU: 0x705A2, offset: 0x11C1E5, size: 0x8, addend: 0x0, symName: __ZN11hb_vector_tIPcLb0EE5allocEj, symObjAddr: 0xBD0, symBinAddr: 0x8944, symSize: 0x88 }
  - { offsetInCU: 0x706A2, offset: 0x11C2E5, size: 0x8, addend: 0x0, symName: __ZN11hb_vector_tIN5graph7graph_t8vertex_tELb0EE6resizeEib, symObjAddr: 0xD40, symBinAddr: 0x8AB4, symSize: 0xA4 }
  - { offsetInCU: 0x7098E, offset: 0x11C5D1, size: 0x8, addend: 0x0, symName: __ZN11hb_vector_tIN5graph7graph_t8vertex_tELb0EE5allocEj, symObjAddr: 0xDE4, symBinAddr: 0x8B58, symSize: 0x8C }
  - { offsetInCU: 0x70A31, offset: 0x11C674, size: 0x8, addend: 0x0, symName: __ZN11hb_vector_tIN5graph7graph_t8vertex_tELb0EE13shrink_vectorEj, symObjAddr: 0xE70, symBinAddr: 0x8BE4, symSize: 0xB8 }
  - { offsetInCU: 0x70CA7, offset: 0x11C8EA, size: 0x8, addend: 0x0, symName: __ZN11hb_vector_tIN5graph7graph_t8vertex_tELb0EE14realloc_vectorIS2_LPv0EEEPS2_j, symObjAddr: 0xF28, symBinAddr: 0x8C9C, symSize: 0x158 }
  - { offsetInCU: 0x717DA, offset: 0x11D41D, size: 0x8, addend: 0x0, symName: __Z4swapRN22hb_serialize_context_t8object_tES1_, symObjAddr: 0x1130, symBinAddr: 0x8E98, symSize: 0x94 }
  - { offsetInCU: 0x71813, offset: 0x11D456, size: 0x8, addend: 0x0, symName: __Z4swapRN22hb_serialize_context_t8object_tES1_, symObjAddr: 0x1130, symBinAddr: 0x8E98, symSize: 0x94 }
  - { offsetInCU: 0x71838, offset: 0x11D47B, size: 0x8, addend: 0x0, symName: __Z4swapRN22hb_serialize_context_t8object_tES1_, symObjAddr: 0x1130, symBinAddr: 0x8E98, symSize: 0x94 }
  - { offsetInCU: 0x71D18, offset: 0x11D95B, size: 0x8, addend: 0x0, symName: __ZN17hb_lockable_set_tIN20hb_user_data_array_t19hb_user_data_item_tE10hb_mutex_tE4finiERS2_, symObjAddr: 0x1230, symBinAddr: 0x8F98, symSize: 0xB4 }
  - { offsetInCU: 0x13A, offset: 0x11DDD2, size: 0x8, addend: 0x0, symName: __ZL16feature_mappings, symObjAddr: 0x111A0, symBinAddr: 0x101A08, symSize: 0x0 }
  - { offsetInCU: 0x41483, offset: 0x15F11B, size: 0x8, addend: 0x0, symName: __ZNK3AAT11FeatureName18get_selector_infosEjPjP37hb_aat_layout_feature_selector_info_tS1_PKv, symObjAddr: 0x127C, symBinAddr: 0xA2B4, symSize: 0xC0 }
  - { offsetInCU: 0x43E64, offset: 0x161AFC, size: 0x8, addend: 0x0, symName: __ZNK3AAT9KerxTableINS_4kerxEE8sanitizeEP21hb_sanitize_context_t, symObjAddr: 0xB1CC, symBinAddr: 0x14204, symSize: 0x184 }
  - { offsetInCU: 0x442F3, offset: 0x161F8B, size: 0x8, addend: 0x0, symName: __ZNK3AAT9KerxTableINS_4kerxEE5applyEPNS_22hb_aat_apply_context_tE, symObjAddr: 0x834, symBinAddr: 0x986C, symSize: 0x1F4 }
  - { offsetInCU: 0x466FA, offset: 0x164392, size: 0x8, addend: 0x0, symName: __ZN3AAT22hb_aat_apply_context_tC2EPK18hb_ot_shape_plan_tP9hb_font_tP11hb_buffer_tP9hb_blob_t, symObjAddr: 0x0, symBinAddr: 0x904C, symSize: 0xFC }
  - { offsetInCU: 0x469FF, offset: 0x164697, size: 0x8, addend: 0x0, symName: __ZNK16hb_lazy_loader_tIN2OT18GDEF_accelerator_tE21hb_face_lazy_loader_tIS1_Lj23EE9hb_face_tLj23ES1_E10get_storedEv, symObjAddr: 0x144C, symBinAddr: 0xA484, symSize: 0x70 }
  - { offsetInCU: 0x46B75, offset: 0x16480D, size: 0x8, addend: 0x0, symName: __ZN3AAT22hb_aat_apply_context_tC1EPK18hb_ot_shape_plan_tP9hb_font_tP11hb_buffer_tP9hb_blob_t, symObjAddr: 0xFC, symBinAddr: 0x9148, symSize: 0x4 }
  - { offsetInCU: 0x46BB9, offset: 0x164851, size: 0x8, addend: 0x0, symName: __ZN3AAT22hb_aat_apply_context_tC1EPK18hb_ot_shape_plan_tP9hb_font_tP11hb_buffer_tP9hb_blob_t, symObjAddr: 0xFC, symBinAddr: 0x9148, symSize: 0x4 }
  - { offsetInCU: 0x46C03, offset: 0x16489B, size: 0x8, addend: 0x0, symName: __ZN3AAT22hb_aat_apply_context_tD2Ev, symObjAddr: 0x100, symBinAddr: 0x914C, symSize: 0x34 }
  - { offsetInCU: 0x46C62, offset: 0x1648FA, size: 0x8, addend: 0x0, symName: __ZN3AAT22hb_aat_apply_context_tD1Ev, symObjAddr: 0x140, symBinAddr: 0x9180, symSize: 0x4 }
  - { offsetInCU: 0x46C86, offset: 0x16491E, size: 0x8, addend: 0x0, symName: __ZN3AAT22hb_aat_apply_context_tD1Ev, symObjAddr: 0x140, symBinAddr: 0x9180, symSize: 0x4 }
  - { offsetInCU: 0x46EC5, offset: 0x164B5D, size: 0x8, addend: 0x0, symName: __Z34hb_aat_layout_find_feature_mappingj, symObjAddr: 0x14C, symBinAddr: 0x9184, symSize: 0x50 }
  - { offsetInCU: 0x471A7, offset: 0x164E3F, size: 0x8, addend: 0x0, symName: __Z25hb_aat_layout_compile_mapPK20hb_aat_map_builder_tP12hb_aat_map_t, symObjAddr: 0x19C, symBinAddr: 0x91D4, symSize: 0xB0 }
  - { offsetInCU: 0x4746D, offset: 0x165105, size: 0x8, addend: 0x0, symName: __ZNK16hb_lazy_loader_tIN3AAT4morxE22hb_table_lazy_loader_tIS1_Lj27ELb0EE9hb_face_tLj27E9hb_blob_tE10get_storedEv, symObjAddr: 0x2F54, symBinAddr: 0xBF8C, symSize: 0x74 }
  - { offsetInCU: 0x47600, offset: 0x165298, size: 0x8, addend: 0x0, symName: __ZNK3AAT8mortmorxINS_13ExtendedTypesELj1836020344EE13compile_flagsEPK20hb_aat_map_builder_tP12hb_aat_map_t, symObjAddr: 0x24C, symBinAddr: 0x9284, symSize: 0x70 }
  - { offsetInCU: 0x477A2, offset: 0x16543A, size: 0x8, addend: 0x0, symName: __ZNK16hb_lazy_loader_tIN3AAT4mortE22hb_table_lazy_loader_tIS1_Lj28ELb0EE9hb_face_tLj28E9hb_blob_tE10get_storedEv, symObjAddr: 0x565C, symBinAddr: 0xE694, symSize: 0x74 }
  - { offsetInCU: 0x47935, offset: 0x1655CD, size: 0x8, addend: 0x0, symName: __ZNK3AAT8mortmorxINS_13ObsoleteTypesELj1836020340EE13compile_flagsEPK20hb_aat_map_builder_tP12hb_aat_map_t, symObjAddr: 0x2BC, symBinAddr: 0x92F4, symSize: 0x70 }
  - { offsetInCU: 0x47B8A, offset: 0x165822, size: 0x8, addend: 0x0, symName: __ZNK3AAT5ChainINS_13ExtendedTypesEE13compile_flagsEPK20hb_aat_map_builder_t, symObjAddr: 0x4EEC, symBinAddr: 0xDF24, symSize: 0x150 }
  - { offsetInCU: 0x47FBD, offset: 0x165C55, size: 0x8, addend: 0x0, symName: __ZN11hb_vector_tIjLb0EE4pushIjjLPv0EEEPjOT_, symObjAddr: 0x4E8C, symBinAddr: 0xDEC4, symSize: 0x60 }
  - { offsetInCU: 0x480EE, offset: 0x165D86, size: 0x8, addend: 0x0, symName: __ZNK3AAT5ChainINS_13ObsoleteTypesEE13compile_flagsEPK20hb_aat_map_builder_t, symObjAddr: 0x6944, symBinAddr: 0xF97C, symSize: 0x150 }
  - { offsetInCU: 0x4854E, offset: 0x1661E6, size: 0x8, addend: 0x0, symName: _hb_aat_layout_has_substitution, symObjAddr: 0x32C, symBinAddr: 0x9364, symSize: 0x78 }
  - { offsetInCU: 0x4887A, offset: 0x166512, size: 0x8, addend: 0x0, symName: __Z24hb_aat_layout_substitutePK18hb_ot_shape_plan_tP9hb_font_tP11hb_buffer_t, symObjAddr: 0x3A4, symBinAddr: 0x93DC, symSize: 0x168 }
  - { offsetInCU: 0x48D4B, offset: 0x1669E3, size: 0x8, addend: 0x0, symName: __ZN11hb_buffer_t7messageEP9hb_font_tPKcz, symObjAddr: 0x50C, symBinAddr: 0x9544, symSize: 0x38 }
  - { offsetInCU: 0x48DD2, offset: 0x166A6A, size: 0x8, addend: 0x0, symName: __ZNK3AAT8mortmorxINS_13ExtendedTypesELj1836020344EE5applyEPNS_22hb_aat_apply_context_tE, symObjAddr: 0x544, symBinAddr: 0x957C, symSize: 0xB0 }
  - { offsetInCU: 0x48F9D, offset: 0x166C35, size: 0x8, addend: 0x0, symName: __ZNK3AAT8mortmorxINS_13ObsoleteTypesELj1836020340EE5applyEPNS_22hb_aat_apply_context_tE, symObjAddr: 0x5F4, symBinAddr: 0x962C, symSize: 0xB0 }
  - { offsetInCU: 0x491CF, offset: 0x166E67, size: 0x8, addend: 0x0, symName: __ZNK3AAT5ChainINS_13ExtendedTypesEE5applyEPNS_22hb_aat_apply_context_tEj, symObjAddr: 0x6A94, symBinAddr: 0xFACC, symSize: 0x17C }
  - { offsetInCU: 0x49576, offset: 0x16720E, size: 0x8, addend: 0x0, symName: __ZNK3AAT5ChainINS_13ObsoleteTypesEE5applyEPNS_22hb_aat_apply_context_tEj, symObjAddr: 0x94CC, symBinAddr: 0x12504, symSize: 0x178 }
  - { offsetInCU: 0x49911, offset: 0x1675A9, size: 0x8, addend: 0x0, symName: __Z39hb_aat_layout_zero_width_deleted_glyphsP11hb_buffer_t, symObjAddr: 0x6A4, symBinAddr: 0x96DC, symSize: 0x40 }
  - { offsetInCU: 0x4998F, offset: 0x167627, size: 0x8, addend: 0x0, symName: __Z35hb_aat_layout_remove_deleted_glyphsP11hb_buffer_t, symObjAddr: 0x6E4, symBinAddr: 0x971C, symSize: 0xC }
  - { offsetInCU: 0x499BA, offset: 0x167652, size: 0x8, addend: 0x0, symName: __ZL16is_deleted_glyphPK15hb_glyph_info_t, symObjAddr: 0x6F0, symBinAddr: 0x9728, symSize: 0x14 }
  - { offsetInCU: 0x49A99, offset: 0x167731, size: 0x8, addend: 0x0, symName: _hb_aat_layout_has_positioning, symObjAddr: 0x704, symBinAddr: 0x973C, symSize: 0x40 }
  - { offsetInCU: 0x49BE6, offset: 0x16787E, size: 0x8, addend: 0x0, symName: __ZNK16hb_lazy_loader_tIN3AAT4kerxE22hb_table_lazy_loader_tIS1_Lj29ELb0EE9hb_face_tLj29E9hb_blob_tE10get_storedEv, symObjAddr: 0xAF08, symBinAddr: 0x13F40, symSize: 0x74 }
  - { offsetInCU: 0x49E3B, offset: 0x167AD3, size: 0x8, addend: 0x0, symName: __Z22hb_aat_layout_positionPK18hb_ot_shape_plan_tP9hb_font_tP11hb_buffer_t, symObjAddr: 0x744, symBinAddr: 0x977C, symSize: 0xF0 }
  - { offsetInCU: 0x4A157, offset: 0x167DEF, size: 0x8, addend: 0x0, symName: __ZNK16hb_lazy_loader_tIN3AAT4ankrE22hb_table_lazy_loader_tIS1_Lj30ELb0EE9hb_face_tLj30E9hb_blob_tE10get_storedEv, symObjAddr: 0xC2F4, symBinAddr: 0x1532C, symSize: 0x74 }
  - { offsetInCU: 0x4A4FA, offset: 0x168192, size: 0x8, addend: 0x0, symName: __ZN11hb_buffer_t13reverse_rangeEjj, symObjAddr: 0x6C74, symBinAddr: 0xFCAC, symSize: 0x74 }
  - { offsetInCU: 0x4A644, offset: 0x1682DC, size: 0x8, addend: 0x0, symName: __ZN21hb_sanitize_context_t10set_objectIN3AAT12KerxSubTableEEEvPKT_, symObjAddr: 0xB3B4, symBinAddr: 0x143EC, symSize: 0x58 }
  - { offsetInCU: 0x4A68A, offset: 0x168322, size: 0x8, addend: 0x0, symName: __ZN21hb_sanitize_context_t10set_objectIN3AAT12KerxSubTableEEEvPKT_, symObjAddr: 0xB3B4, symBinAddr: 0x143EC, symSize: 0x58 }
  - { offsetInCU: 0x4A71F, offset: 0x1683B7, size: 0x8, addend: 0x0, symName: __ZNK3AAT12KerxSubTable8dispatchINS_22hb_aat_apply_context_tEJEEENT_8return_tEPS3_DpOT0_, symObjAddr: 0xD16C, symBinAddr: 0x161A4, symSize: 0x40 }
  - { offsetInCU: 0x4A776, offset: 0x16840E, size: 0x8, addend: 0x0, symName: __ZNK3AAT12KerxSubTable8dispatchINS_22hb_aat_apply_context_tEJEEENT_8return_tEPS3_DpOT0_, symObjAddr: 0xD16C, symBinAddr: 0x161A4, symSize: 0x40 }
  - { offsetInCU: 0x4A794, offset: 0x16842C, size: 0x8, addend: 0x0, symName: __ZNK3AAT12KerxSubTable8dispatchINS_22hb_aat_apply_context_tEJEEENT_8return_tEPS3_DpOT0_, symObjAddr: 0xD16C, symBinAddr: 0x161A4, symSize: 0x40 }
  - { offsetInCU: 0x4A7B4, offset: 0x16844C, size: 0x8, addend: 0x0, symName: __ZNK3AAT12KerxSubTable8dispatchINS_22hb_aat_apply_context_tEJEEENT_8return_tEPS3_DpOT0_, symObjAddr: 0xD16C, symBinAddr: 0x161A4, symSize: 0x40 }
  - { offsetInCU: 0x4A9B5, offset: 0x16864D, size: 0x8, addend: 0x0, symName: _hb_aat_layout_has_tracking, symObjAddr: 0xA28, symBinAddr: 0x9A60, symSize: 0x40 }
  - { offsetInCU: 0x4AAE1, offset: 0x168779, size: 0x8, addend: 0x0, symName: __ZNK16hb_lazy_loader_tIN3AAT4trakE22hb_table_lazy_loader_tIS1_Lj31ELb0EE9hb_face_tLj31E9hb_blob_tE10get_storedEv, symObjAddr: 0x103D0, symBinAddr: 0x19408, symSize: 0x74 }
  - { offsetInCU: 0x4ACA2, offset: 0x16893A, size: 0x8, addend: 0x0, symName: __Z19hb_aat_layout_trackPK18hb_ot_shape_plan_tP9hb_font_tP11hb_buffer_t, symObjAddr: 0xA68, symBinAddr: 0x9AA0, symSize: 0x98 }
  - { offsetInCU: 0x4AEEB, offset: 0x168B83, size: 0x8, addend: 0x0, symName: __ZNK3AAT4trak5applyEPNS_22hb_aat_apply_context_tE, symObjAddr: 0xB00, symBinAddr: 0x9B38, symSize: 0x290 }
  - { offsetInCU: 0x4B4AD, offset: 0x169145, size: 0x8, addend: 0x0, symName: __ZNK3AAT9TrackData12get_trackingEPKvf, symObjAddr: 0xF38, symBinAddr: 0x9F70, symSize: 0x124 }
  - { offsetInCU: 0x4B99E, offset: 0x169636, size: 0x8, addend: 0x0, symName: _hb_aat_layout_get_feature_types, symObjAddr: 0xD90, symBinAddr: 0x9DC8, symSize: 0x58 }
  - { offsetInCU: 0x4BAE0, offset: 0x169778, size: 0x8, addend: 0x0, symName: __ZNK16hb_lazy_loader_tIN3AAT4featE22hb_table_lazy_loader_tIS1_Lj33ELb0EE9hb_face_tLj33E9hb_blob_tE10get_storedEv, symObjAddr: 0x10B04, symBinAddr: 0x19B3C, symSize: 0x78 }
  - { offsetInCU: 0x4BC73, offset: 0x16990B, size: 0x8, addend: 0x0, symName: __ZNK3AAT4feat17get_feature_typesEjPjP28hb_aat_layout_feature_type_t, symObjAddr: 0xDE8, symBinAddr: 0x9E20, symSize: 0x7C }
  - { offsetInCU: 0x4BEDD, offset: 0x169B75, size: 0x8, addend: 0x0, symName: __ZN9hb_sink_tI10hb_array_tI28hb_aat_layout_feature_type_tEEclI13hb_map_iter_tI17hb_sorted_array_tIKN3AAT11FeatureNameEEMS8_KFS1_vEL24hb_function_sortedness_t0ELPv0EELSE_0EEEvT_, symObjAddr: 0x1140, symBinAddr: 0xA178, symSize: 0xC8 }
  - { offsetInCU: 0x4C374, offset: 0x16A00C, size: 0x8, addend: 0x0, symName: _hb_aat_layout_feature_type_get_name_id, symObjAddr: 0xE64, symBinAddr: 0x9E9C, symSize: 0x58 }
  - { offsetInCU: 0x4C506, offset: 0x16A19E, size: 0x8, addend: 0x0, symName: __ZNK3AAT4feat11get_featureE28hb_aat_layout_feature_type_t, symObjAddr: 0x1208, symBinAddr: 0xA240, symSize: 0x74 }
  - { offsetInCU: 0x4C53E, offset: 0x16A1D6, size: 0x8, addend: 0x0, symName: __ZNK3AAT4feat11get_featureE28hb_aat_layout_feature_type_t, symObjAddr: 0x1208, symBinAddr: 0xA240, symSize: 0x74 }
  - { offsetInCU: 0x4C55D, offset: 0x16A1F5, size: 0x8, addend: 0x0, symName: __ZNK3AAT4feat11get_featureE28hb_aat_layout_feature_type_t, symObjAddr: 0x1208, symBinAddr: 0xA240, symSize: 0x74 }
  - { offsetInCU: 0x4C6F5, offset: 0x16A38D, size: 0x8, addend: 0x0, symName: _hb_aat_layout_feature_type_get_selector_infos, symObjAddr: 0xEBC, symBinAddr: 0x9EF4, symSize: 0x7C }
  - { offsetInCU: 0x4CA76, offset: 0x16A70E, size: 0x8, addend: 0x0, symName: __ZNK3AAT9TrackData14interpolate_atEjfRKNS_15TrackTableEntryEPKv, symObjAddr: 0x105C, symBinAddr: 0xA094, symSize: 0xD8 }
  - { offsetInCU: 0x4CB2A, offset: 0x16A7C2, size: 0x8, addend: 0x0, symName: __ZNK3AAT9TrackData14interpolate_atEjfRKNS_15TrackTableEntryEPKv, symObjAddr: 0x105C, symBinAddr: 0xA094, symSize: 0xD8 }
  - { offsetInCU: 0x4CB49, offset: 0x16A7E1, size: 0x8, addend: 0x0, symName: __ZNK3AAT9TrackData14interpolate_atEjfRKNS_15TrackTableEntryEPKv, symObjAddr: 0x105C, symBinAddr: 0xA094, symSize: 0xD8 }
  - { offsetInCU: 0x4CFB1, offset: 0x16AC49, size: 0x8, addend: 0x0, symName: __ZNK3AAT11FeatureName16get_feature_typeEv, symObjAddr: 0x1134, symBinAddr: 0xA16C, symSize: 0xC }
  - { offsetInCU: 0x4CFDB, offset: 0x16AC73, size: 0x8, addend: 0x0, symName: __ZNK3AAT11FeatureName16get_feature_typeEv, symObjAddr: 0x1134, symBinAddr: 0xA16C, symSize: 0xC }
  - { offsetInCU: 0x4CFF8, offset: 0x16AC90, size: 0x8, addend: 0x0, symName: __ZNK3AAT11FeatureName16get_feature_typeEv, symObjAddr: 0x1134, symBinAddr: 0xA16C, symSize: 0xC }
  - { offsetInCU: 0x4D881, offset: 0x16B519, size: 0x8, addend: 0x0, symName: __ZN9hb_sink_tI10hb_array_tI37hb_aat_layout_feature_selector_info_tEEclI13hb_map_iter_tIS0_IKN3AAT11SettingNameEEZNKS6_11FeatureName18get_selector_infosEjPjPS1_SB_PKvEUlRS8_E_L24hb_function_sortedness_t0ELPv0EELSI_0EEEvT_, symObjAddr: 0x133C, symBinAddr: 0xA374, symSize: 0xD0 }
  - { offsetInCU: 0x4DF14, offset: 0x16BBAC, size: 0x8, addend: 0x0, symName: __ZNK13hb_map_iter_tI10hb_array_tIKN3AAT11SettingNameEEZNKS1_11FeatureName18get_selector_infosEjPjP37hb_aat_layout_feature_selector_info_tS6_PKvEUlRS3_E_L24hb_function_sortedness_t0ELPv0EE8__item__Ev, symObjAddr: 0x140C, symBinAddr: 0xA444, symSize: 0x40 }
  - { offsetInCU: 0x4DF3E, offset: 0x16BBD6, size: 0x8, addend: 0x0, symName: __ZNK13hb_map_iter_tI10hb_array_tIKN3AAT11SettingNameEEZNKS1_11FeatureName18get_selector_infosEjPjP37hb_aat_layout_feature_selector_info_tS6_PKvEUlRS3_E_L24hb_function_sortedness_t0ELPv0EE8__item__Ev, symObjAddr: 0x140C, symBinAddr: 0xA444, symSize: 0x40 }
  - { offsetInCU: 0x4E428, offset: 0x16C0C0, size: 0x8, addend: 0x0, symName: __ZN16hb_lazy_loader_tIN2OT18GDEF_accelerator_tE21hb_face_lazy_loader_tIS1_Lj23EE9hb_face_tLj23ES1_E6createEPS4_, symObjAddr: 0x14E8, symBinAddr: 0xA520, symSize: 0x34 }
  - { offsetInCU: 0x4E4C1, offset: 0x16C159, size: 0x8, addend: 0x0, symName: __ZN16hb_lazy_loader_tIN2OT18GDEF_accelerator_tE21hb_face_lazy_loader_tIS1_Lj23EE9hb_face_tLj23ES1_E10do_destroyEPS1_, symObjAddr: 0x14BC, symBinAddr: 0xA4F4, symSize: 0x2C }
  - { offsetInCU: 0x4E59D, offset: 0x16C235, size: 0x8, addend: 0x0, symName: __ZN2OT4GDEF13accelerator_tD2Ev, symObjAddr: 0x2F24, symBinAddr: 0xBF5C, symSize: 0x30 }
  - { offsetInCU: 0x4E686, offset: 0x16C31E, size: 0x8, addend: 0x0, symName: __ZN2OT4GDEF13accelerator_tC2EP9hb_face_t, symObjAddr: 0x151C, symBinAddr: 0xA554, symSize: 0xAC }
  - { offsetInCU: 0x4EAC1, offset: 0x16C759, size: 0x8, addend: 0x0, symName: __ZN21hb_sanitize_context_t15reference_tableIN2OT4GDEFEEEP9hb_blob_tPK9hb_face_tj, symObjAddr: 0x15C8, symBinAddr: 0xA600, symSize: 0x5C }
  - { offsetInCU: 0x4EBB9, offset: 0x16C851, size: 0x8, addend: 0x0, symName: __ZN21hb_sanitize_context_t13sanitize_blobIN2OT4GDEFEEEP9hb_blob_tS4_, symObjAddr: 0x1624, symBinAddr: 0xA65C, symSize: 0x168 }
  - { offsetInCU: 0x4EE16, offset: 0x16CAAE, size: 0x8, addend: 0x0, symName: __ZNK2OT4GDEF8sanitizeEP21hb_sanitize_context_t, symObjAddr: 0x178C, symBinAddr: 0xA7C4, symSize: 0x5C }
  - { offsetInCU: 0x4EE5C, offset: 0x16CAF4, size: 0x8, addend: 0x0, symName: __ZNK2OT4GDEF8sanitizeEP21hb_sanitize_context_t, symObjAddr: 0x178C, symBinAddr: 0xA7C4, symSize: 0x5C }
  - { offsetInCU: 0x4EE82, offset: 0x16CB1A, size: 0x8, addend: 0x0, symName: __ZNK2OT4GDEF8sanitizeEP21hb_sanitize_context_t, symObjAddr: 0x178C, symBinAddr: 0xA7C4, symSize: 0x5C }
  - { offsetInCU: 0x4EEA8, offset: 0x16CB40, size: 0x8, addend: 0x0, symName: __ZNK2OT4GDEF8sanitizeEP21hb_sanitize_context_t, symObjAddr: 0x178C, symBinAddr: 0xA7C4, symSize: 0x5C }
  - { offsetInCU: 0x4F005, offset: 0x16CC9D, size: 0x8, addend: 0x0, symName: __ZNK2OT14GDEFVersion1_2INS_6Layout10SmallTypesEE8sanitizeEP21hb_sanitize_context_t, symObjAddr: 0x17E8, symBinAddr: 0xA820, symSize: 0x118 }
  - { offsetInCU: 0x4F1E9, offset: 0x16CE81, size: 0x8, addend: 0x0, symName: __ZNK2OT8OffsetToINS_8ClassDefENS_7IntTypeItLj2EEELb1EE8sanitizeIJEEEbP21hb_sanitize_context_tPKvDpOT_, symObjAddr: 0x1900, symBinAddr: 0xA938, symSize: 0xA0 }
  - { offsetInCU: 0x4F48E, offset: 0x16D126, size: 0x8, addend: 0x0, symName: __ZNK2OT8OffsetToINS_10AttachListENS_7IntTypeItLj2EEELb1EE8sanitizeIJEEEbP21hb_sanitize_context_tPKvDpOT_, symObjAddr: 0x19A0, symBinAddr: 0xA9D8, symSize: 0xA0 }
  - { offsetInCU: 0x4F733, offset: 0x16D3CB, size: 0x8, addend: 0x0, symName: __ZNK2OT8OffsetToINS_12LigCaretListENS_7IntTypeItLj2EEELb1EE8sanitizeIJEEEbP21hb_sanitize_context_tPKvDpOT_, symObjAddr: 0x1A40, symBinAddr: 0xAA78, symSize: 0xA0 }
  - { offsetInCU: 0x4F9D8, offset: 0x16D670, size: 0x8, addend: 0x0, symName: __ZNK2OT8OffsetToINS_13MarkGlyphSetsENS_7IntTypeItLj2EEELb1EE8sanitizeIJEEEbP21hb_sanitize_context_tPKvDpOT_, symObjAddr: 0x1AE0, symBinAddr: 0xAB18, symSize: 0xA0 }
  - { offsetInCU: 0x4FC7D, offset: 0x16D915, size: 0x8, addend: 0x0, symName: __ZNK2OT8OffsetToINS_14VariationStoreENS_7IntTypeIjLj4EEELb1EE8sanitizeIJEEEbP21hb_sanitize_context_tPKvDpOT_, symObjAddr: 0x1B80, symBinAddr: 0xABB8, symSize: 0xA0 }
  - { offsetInCU: 0x5011B, offset: 0x16DDB3, size: 0x8, addend: 0x0, symName: __ZNK2OT8ClassDef8sanitizeEP21hb_sanitize_context_t, symObjAddr: 0x1C20, symBinAddr: 0xAC58, symSize: 0x6C }
  - { offsetInCU: 0x50161, offset: 0x16DDF9, size: 0x8, addend: 0x0, symName: __ZNK2OT8ClassDef8sanitizeEP21hb_sanitize_context_t, symObjAddr: 0x1C20, symBinAddr: 0xAC58, symSize: 0x6C }
  - { offsetInCU: 0x50187, offset: 0x16DE1F, size: 0x8, addend: 0x0, symName: __ZNK2OT8ClassDef8sanitizeEP21hb_sanitize_context_t, symObjAddr: 0x1C20, symBinAddr: 0xAC58, symSize: 0x6C }
  - { offsetInCU: 0x501AC, offset: 0x16DE44, size: 0x8, addend: 0x0, symName: __ZNK2OT8ClassDef8sanitizeEP21hb_sanitize_context_t, symObjAddr: 0x1C20, symBinAddr: 0xAC58, symSize: 0x6C }
  - { offsetInCU: 0x50422, offset: 0x16E0BA, size: 0x8, addend: 0x0, symName: __ZNK2OT10AttachList8sanitizeEP21hb_sanitize_context_t, symObjAddr: 0x1E00, symBinAddr: 0xAE38, symSize: 0x48 }
  - { offsetInCU: 0x50649, offset: 0x16E2E1, size: 0x8, addend: 0x0, symName: __ZNK2OT12LigCaretList8sanitizeEP21hb_sanitize_context_t, symObjAddr: 0x2194, symBinAddr: 0xB1CC, symSize: 0x48 }
  - { offsetInCU: 0x50872, offset: 0x16E50A, size: 0x8, addend: 0x0, symName: __ZNK2OT13MarkGlyphSets8sanitizeEP21hb_sanitize_context_t, symObjAddr: 0x2850, symBinAddr: 0xB888, symSize: 0x84 }
  - { offsetInCU: 0x50B93, offset: 0x16E82B, size: 0x8, addend: 0x0, symName: __ZNK2OT14VariationStore8sanitizeEP21hb_sanitize_context_t, symObjAddr: 0x2A7C, symBinAddr: 0xBAB4, symSize: 0xA0 }
  - { offsetInCU: 0x50D90, offset: 0x16EA28, size: 0x8, addend: 0x0, symName: __ZNK2OT17ClassDefFormat1_3INS_6Layout10SmallTypesEE8sanitizeEP21hb_sanitize_context_t, symObjAddr: 0x1C8C, symBinAddr: 0xACC4, symSize: 0x44 }
  - { offsetInCU: 0x50DD6, offset: 0x16EA6E, size: 0x8, addend: 0x0, symName: __ZNK2OT17ClassDefFormat1_3INS_6Layout10SmallTypesEE8sanitizeEP21hb_sanitize_context_t, symObjAddr: 0x1C8C, symBinAddr: 0xACC4, symSize: 0x44 }
  - { offsetInCU: 0x50DFC, offset: 0x16EA94, size: 0x8, addend: 0x0, symName: __ZNK2OT17ClassDefFormat1_3INS_6Layout10SmallTypesEE8sanitizeEP21hb_sanitize_context_t, symObjAddr: 0x1C8C, symBinAddr: 0xACC4, symSize: 0x44 }
  - { offsetInCU: 0x50E65, offset: 0x16EAFD, size: 0x8, addend: 0x0, symName: __ZNK2OT7ArrayOfINS_6Layout6Common11RangeRecordINS1_10SmallTypesEEENS_7IntTypeItLj2EEEE16sanitize_shallowEP21hb_sanitize_context_t, symObjAddr: 0x1D64, symBinAddr: 0xAD9C, symSize: 0x9C }
  - { offsetInCU: 0x50EAB, offset: 0x16EB43, size: 0x8, addend: 0x0, symName: __ZNK2OT7ArrayOfINS_6Layout6Common11RangeRecordINS1_10SmallTypesEEENS_7IntTypeItLj2EEEE16sanitize_shallowEP21hb_sanitize_context_t, symObjAddr: 0x1D64, symBinAddr: 0xAD9C, symSize: 0x9C }
  - { offsetInCU: 0x50ED1, offset: 0x16EB69, size: 0x8, addend: 0x0, symName: __ZNK2OT7ArrayOfINS_6Layout6Common11RangeRecordINS1_10SmallTypesEEENS_7IntTypeItLj2EEEE16sanitize_shallowEP21hb_sanitize_context_t, symObjAddr: 0x1D64, symBinAddr: 0xAD9C, symSize: 0x9C }
  - { offsetInCU: 0x50EF6, offset: 0x16EB8E, size: 0x8, addend: 0x0, symName: __ZNK2OT7ArrayOfINS_6Layout6Common11RangeRecordINS1_10SmallTypesEEENS_7IntTypeItLj2EEEE16sanitize_shallowEP21hb_sanitize_context_t, symObjAddr: 0x1D64, symBinAddr: 0xAD9C, symSize: 0x9C }
  - { offsetInCU: 0x5107E, offset: 0x16ED16, size: 0x8, addend: 0x0, symName: __ZNK2OT7ArrayOfINS_7IntTypeItLj2EEES2_E16sanitize_shallowEP21hb_sanitize_context_t, symObjAddr: 0x1CD0, symBinAddr: 0xAD08, symSize: 0x94 }
  - { offsetInCU: 0x510C4, offset: 0x16ED5C, size: 0x8, addend: 0x0, symName: __ZNK2OT7ArrayOfINS_7IntTypeItLj2EEES2_E16sanitize_shallowEP21hb_sanitize_context_t, symObjAddr: 0x1CD0, symBinAddr: 0xAD08, symSize: 0x94 }
  - { offsetInCU: 0x510EA, offset: 0x16ED82, size: 0x8, addend: 0x0, symName: __ZNK2OT7ArrayOfINS_7IntTypeItLj2EEES2_E16sanitize_shallowEP21hb_sanitize_context_t, symObjAddr: 0x1CD0, symBinAddr: 0xAD08, symSize: 0x94 }
  - { offsetInCU: 0x5110F, offset: 0x16EDA7, size: 0x8, addend: 0x0, symName: __ZNK2OT7ArrayOfINS_7IntTypeItLj2EEES2_E16sanitize_shallowEP21hb_sanitize_context_t, symObjAddr: 0x1CD0, symBinAddr: 0xAD08, symSize: 0x94 }
  - { offsetInCU: 0x51363, offset: 0x16EFFB, size: 0x8, addend: 0x0, symName: __ZNK2OT8OffsetToINS_6Layout6Common8CoverageENS_7IntTypeItLj2EEELb1EE8sanitizeIJEEEbP21hb_sanitize_context_tPKvDpOT_, symObjAddr: 0x1E48, symBinAddr: 0xAE80, symSize: 0xA0 }
  - { offsetInCU: 0x5160E, offset: 0x16F2A6, size: 0x8, addend: 0x0, symName: __ZNK2OT7ArrayOfINS_8OffsetToINS_11AttachPointENS_7IntTypeItLj2EEELb1EEES4_E8sanitizeIJPKNS_10AttachListEEEEbP21hb_sanitize_context_tDpOT_, symObjAddr: 0x1EE8, symBinAddr: 0xAF20, symSize: 0x74 }
  - { offsetInCU: 0x51909, offset: 0x16F5A1, size: 0x8, addend: 0x0, symName: __ZNK2OT6Layout6Common8Coverage8sanitizeEP21hb_sanitize_context_t, symObjAddr: 0x1F5C, symBinAddr: 0xAF94, symSize: 0x70 }
  - { offsetInCU: 0x5194D, offset: 0x16F5E5, size: 0x8, addend: 0x0, symName: __ZNK2OT6Layout6Common8Coverage8sanitizeEP21hb_sanitize_context_t, symObjAddr: 0x1F5C, symBinAddr: 0xAF94, symSize: 0x70 }
  - { offsetInCU: 0x51972, offset: 0x16F60A, size: 0x8, addend: 0x0, symName: __ZNK2OT6Layout6Common8Coverage8sanitizeEP21hb_sanitize_context_t, symObjAddr: 0x1F5C, symBinAddr: 0xAF94, symSize: 0x70 }
  - { offsetInCU: 0x51997, offset: 0x16F62F, size: 0x8, addend: 0x0, symName: __ZNK2OT6Layout6Common8Coverage8sanitizeEP21hb_sanitize_context_t, symObjAddr: 0x1F5C, symBinAddr: 0xAF94, symSize: 0x70 }
  - { offsetInCU: 0x51B52, offset: 0x16F7EA, size: 0x8, addend: 0x0, symName: __ZNK2OT7ArrayOfINS_8OffsetToINS_11AttachPointENS_7IntTypeItLj2EEELb1EEES4_E16sanitize_shallowEP21hb_sanitize_context_t, symObjAddr: 0x2060, symBinAddr: 0xB098, symSize: 0x94 }
  - { offsetInCU: 0x51B98, offset: 0x16F830, size: 0x8, addend: 0x0, symName: __ZNK2OT7ArrayOfINS_8OffsetToINS_11AttachPointENS_7IntTypeItLj2EEELb1EEES4_E16sanitize_shallowEP21hb_sanitize_context_t, symObjAddr: 0x2060, symBinAddr: 0xB098, symSize: 0x94 }
  - { offsetInCU: 0x51BBE, offset: 0x16F856, size: 0x8, addend: 0x0, symName: __ZNK2OT7ArrayOfINS_8OffsetToINS_11AttachPointENS_7IntTypeItLj2EEELb1EEES4_E16sanitize_shallowEP21hb_sanitize_context_t, symObjAddr: 0x2060, symBinAddr: 0xB098, symSize: 0x94 }
  - { offsetInCU: 0x51BE3, offset: 0x16F87B, size: 0x8, addend: 0x0, symName: __ZNK2OT7ArrayOfINS_8OffsetToINS_11AttachPointENS_7IntTypeItLj2EEELb1EEES4_E16sanitize_shallowEP21hb_sanitize_context_t, symObjAddr: 0x2060, symBinAddr: 0xB098, symSize: 0x94 }
  - { offsetInCU: 0x51D21, offset: 0x16F9B9, size: 0x8, addend: 0x0, symName: __ZNK2OT8OffsetToINS_11AttachPointENS_7IntTypeItLj2EEELb1EE8sanitizeIJEEEbP21hb_sanitize_context_tPKvDpOT_, symObjAddr: 0x20F4, symBinAddr: 0xB12C, symSize: 0xA0 }
  - { offsetInCU: 0x52084, offset: 0x16FD1C, size: 0x8, addend: 0x0, symName: __ZNK2OT7ArrayOfINS_11HBGlyphID16ENS_7IntTypeItLj2EEEE16sanitize_shallowEP21hb_sanitize_context_t, symObjAddr: 0x1FCC, symBinAddr: 0xB004, symSize: 0x94 }
  - { offsetInCU: 0x520CA, offset: 0x16FD62, size: 0x8, addend: 0x0, symName: __ZNK2OT7ArrayOfINS_11HBGlyphID16ENS_7IntTypeItLj2EEEE16sanitize_shallowEP21hb_sanitize_context_t, symObjAddr: 0x1FCC, symBinAddr: 0xB004, symSize: 0x94 }
  - { offsetInCU: 0x520F0, offset: 0x16FD88, size: 0x8, addend: 0x0, symName: __ZNK2OT7ArrayOfINS_11HBGlyphID16ENS_7IntTypeItLj2EEEE16sanitize_shallowEP21hb_sanitize_context_t, symObjAddr: 0x1FCC, symBinAddr: 0xB004, symSize: 0x94 }
  - { offsetInCU: 0x52115, offset: 0x16FDAD, size: 0x8, addend: 0x0, symName: __ZNK2OT7ArrayOfINS_11HBGlyphID16ENS_7IntTypeItLj2EEEE16sanitize_shallowEP21hb_sanitize_context_t, symObjAddr: 0x1FCC, symBinAddr: 0xB004, symSize: 0x94 }
  - { offsetInCU: 0x52503, offset: 0x17019B, size: 0x8, addend: 0x0, symName: __ZNK2OT7ArrayOfINS_8OffsetToINS_8LigGlyphENS_7IntTypeItLj2EEELb1EEES4_E8sanitizeIJPKNS_12LigCaretListEEEEbP21hb_sanitize_context_tDpOT_, symObjAddr: 0x21DC, symBinAddr: 0xB214, symSize: 0x74 }
  - { offsetInCU: 0x526FC, offset: 0x170394, size: 0x8, addend: 0x0, symName: __ZNK2OT7ArrayOfINS_8OffsetToINS_8LigGlyphENS_7IntTypeItLj2EEELb1EEES4_E16sanitize_shallowEP21hb_sanitize_context_t, symObjAddr: 0x2250, symBinAddr: 0xB288, symSize: 0x94 }
  - { offsetInCU: 0x52742, offset: 0x1703DA, size: 0x8, addend: 0x0, symName: __ZNK2OT7ArrayOfINS_8OffsetToINS_8LigGlyphENS_7IntTypeItLj2EEELb1EEES4_E16sanitize_shallowEP21hb_sanitize_context_t, symObjAddr: 0x2250, symBinAddr: 0xB288, symSize: 0x94 }
  - { offsetInCU: 0x52768, offset: 0x170400, size: 0x8, addend: 0x0, symName: __ZNK2OT7ArrayOfINS_8OffsetToINS_8LigGlyphENS_7IntTypeItLj2EEELb1EEES4_E16sanitize_shallowEP21hb_sanitize_context_t, symObjAddr: 0x2250, symBinAddr: 0xB288, symSize: 0x94 }
  - { offsetInCU: 0x5278D, offset: 0x170425, size: 0x8, addend: 0x0, symName: __ZNK2OT7ArrayOfINS_8OffsetToINS_8LigGlyphENS_7IntTypeItLj2EEELb1EEES4_E16sanitize_shallowEP21hb_sanitize_context_t, symObjAddr: 0x2250, symBinAddr: 0xB288, symSize: 0x94 }
  - { offsetInCU: 0x528CB, offset: 0x170563, size: 0x8, addend: 0x0, symName: __ZNK2OT8OffsetToINS_8LigGlyphENS_7IntTypeItLj2EEELb1EE8sanitizeIJEEEbP21hb_sanitize_context_tPKvDpOT_, symObjAddr: 0x22E4, symBinAddr: 0xB31C, symSize: 0xB0 }
  - { offsetInCU: 0x52DEA, offset: 0x170A82, size: 0x8, addend: 0x0, symName: __ZNK2OT7ArrayOfINS_8OffsetToINS_10CaretValueENS_7IntTypeItLj2EEELb1EEES4_E8sanitizeIJPKNS_8LigGlyphEEEEbP21hb_sanitize_context_tDpOT_, symObjAddr: 0x2394, symBinAddr: 0xB3CC, symSize: 0x74 }
  - { offsetInCU: 0x52FE3, offset: 0x170C7B, size: 0x8, addend: 0x0, symName: __ZNK2OT7ArrayOfINS_8OffsetToINS_10CaretValueENS_7IntTypeItLj2EEELb1EEES4_E16sanitize_shallowEP21hb_sanitize_context_t, symObjAddr: 0x2408, symBinAddr: 0xB440, symSize: 0x94 }
  - { offsetInCU: 0x53029, offset: 0x170CC1, size: 0x8, addend: 0x0, symName: __ZNK2OT7ArrayOfINS_8OffsetToINS_10CaretValueENS_7IntTypeItLj2EEELb1EEES4_E16sanitize_shallowEP21hb_sanitize_context_t, symObjAddr: 0x2408, symBinAddr: 0xB440, symSize: 0x94 }
  - { offsetInCU: 0x5304F, offset: 0x170CE7, size: 0x8, addend: 0x0, symName: __ZNK2OT7ArrayOfINS_8OffsetToINS_10CaretValueENS_7IntTypeItLj2EEELb1EEES4_E16sanitize_shallowEP21hb_sanitize_context_t, symObjAddr: 0x2408, symBinAddr: 0xB440, symSize: 0x94 }
  - { offsetInCU: 0x53074, offset: 0x170D0C, size: 0x8, addend: 0x0, symName: __ZNK2OT7ArrayOfINS_8OffsetToINS_10CaretValueENS_7IntTypeItLj2EEELb1EEES4_E16sanitize_shallowEP21hb_sanitize_context_t, symObjAddr: 0x2408, symBinAddr: 0xB440, symSize: 0x94 }
  - { offsetInCU: 0x531B2, offset: 0x170E4A, size: 0x8, addend: 0x0, symName: __ZNK2OT8OffsetToINS_10CaretValueENS_7IntTypeItLj2EEELb1EE8sanitizeIJEEEbP21hb_sanitize_context_tPKvDpOT_, symObjAddr: 0x249C, symBinAddr: 0xB4D4, symSize: 0xA0 }
  - { offsetInCU: 0x53677, offset: 0x17130F, size: 0x8, addend: 0x0, symName: __ZNK2OT10CaretValue8sanitizeEP21hb_sanitize_context_t, symObjAddr: 0x253C, symBinAddr: 0xB574, symSize: 0x84 }
  - { offsetInCU: 0x536BD, offset: 0x171355, size: 0x8, addend: 0x0, symName: __ZNK2OT10CaretValue8sanitizeEP21hb_sanitize_context_t, symObjAddr: 0x253C, symBinAddr: 0xB574, symSize: 0x84 }
  - { offsetInCU: 0x536E3, offset: 0x17137B, size: 0x8, addend: 0x0, symName: __ZNK2OT10CaretValue8sanitizeEP21hb_sanitize_context_t, symObjAddr: 0x253C, symBinAddr: 0xB574, symSize: 0x84 }
  - { offsetInCU: 0x53708, offset: 0x1713A0, size: 0x8, addend: 0x0, symName: __ZNK2OT10CaretValue8sanitizeEP21hb_sanitize_context_t, symObjAddr: 0x253C, symBinAddr: 0xB574, symSize: 0x84 }
  - { offsetInCU: 0x53788, offset: 0x171420, size: 0x8, addend: 0x0, symName: __ZNK2OT17CaretValueFormat38sanitizeEP21hb_sanitize_context_t, symObjAddr: 0x25C0, symBinAddr: 0xB5F8, symSize: 0x48 }
  - { offsetInCU: 0x537CC, offset: 0x171464, size: 0x8, addend: 0x0, symName: __ZNK2OT17CaretValueFormat38sanitizeEP21hb_sanitize_context_t, symObjAddr: 0x25C0, symBinAddr: 0xB5F8, symSize: 0x48 }
  - { offsetInCU: 0x537F3, offset: 0x17148B, size: 0x8, addend: 0x0, symName: __ZNK2OT17CaretValueFormat38sanitizeEP21hb_sanitize_context_t, symObjAddr: 0x25C0, symBinAddr: 0xB5F8, symSize: 0x48 }
  - { offsetInCU: 0x5386A, offset: 0x171502, size: 0x8, addend: 0x0, symName: __ZNK2OT8OffsetToINS_6DeviceENS_7IntTypeItLj2EEELb1EE8sanitizeIJEEEbP21hb_sanitize_context_tPKvDpOT_, symObjAddr: 0x2608, symBinAddr: 0xB640, symSize: 0xA0 }
  - { offsetInCU: 0x53CA9, offset: 0x171941, size: 0x8, addend: 0x0, symName: __ZNK2OT6Device8sanitizeEP21hb_sanitize_context_t, symObjAddr: 0x26A8, symBinAddr: 0xB6E0, symSize: 0xA4 }
  - { offsetInCU: 0x53E8F, offset: 0x171B27, size: 0x8, addend: 0x0, symName: __ZNK2OT13HintingDevice8sanitizeEP21hb_sanitize_context_t, symObjAddr: 0x274C, symBinAddr: 0xB784, symSize: 0xB0 }
  - { offsetInCU: 0x53FBB, offset: 0x171C53, size: 0x8, addend: 0x0, symName: __ZNK2OT13HintingDevice8get_sizeEv, symObjAddr: 0x27FC, symBinAddr: 0xB834, symSize: 0x54 }
  - { offsetInCU: 0x53FF6, offset: 0x171C8E, size: 0x8, addend: 0x0, symName: __ZNK2OT13HintingDevice8get_sizeEv, symObjAddr: 0x27FC, symBinAddr: 0xB834, symSize: 0x54 }
  - { offsetInCU: 0x54016, offset: 0x171CAE, size: 0x8, addend: 0x0, symName: __ZNK2OT13HintingDevice8get_sizeEv, symObjAddr: 0x27FC, symBinAddr: 0xB834, symSize: 0x54 }
  - { offsetInCU: 0x540EC, offset: 0x171D84, size: 0x8, addend: 0x0, symName: __ZNK2OT7ArrayOfINS_8OffsetToINS_6Layout6Common8CoverageENS_7IntTypeIjLj4EEELb1EEENS5_ItLj2EEEE8sanitizeIJPKNS_20MarkGlyphSetsFormat1EEEEbP21hb_sanitize_context_tDpOT_, symObjAddr: 0x28D4, symBinAddr: 0xB90C, symSize: 0x74 }
  - { offsetInCU: 0x542E5, offset: 0x171F7D, size: 0x8, addend: 0x0, symName: __ZNK2OT7ArrayOfINS_8OffsetToINS_6Layout6Common8CoverageENS_7IntTypeIjLj4EEELb1EEENS5_ItLj2EEEE16sanitize_shallowEP21hb_sanitize_context_t, symObjAddr: 0x2948, symBinAddr: 0xB980, symSize: 0x94 }
  - { offsetInCU: 0x5432B, offset: 0x171FC3, size: 0x8, addend: 0x0, symName: __ZNK2OT7ArrayOfINS_8OffsetToINS_6Layout6Common8CoverageENS_7IntTypeIjLj4EEELb1EEENS5_ItLj2EEEE16sanitize_shallowEP21hb_sanitize_context_t, symObjAddr: 0x2948, symBinAddr: 0xB980, symSize: 0x94 }
  - { offsetInCU: 0x54351, offset: 0x171FE9, size: 0x8, addend: 0x0, symName: __ZNK2OT7ArrayOfINS_8OffsetToINS_6Layout6Common8CoverageENS_7IntTypeIjLj4EEELb1EEENS5_ItLj2EEEE16sanitize_shallowEP21hb_sanitize_context_t, symObjAddr: 0x2948, symBinAddr: 0xB980, symSize: 0x94 }
  - { offsetInCU: 0x54376, offset: 0x17200E, size: 0x8, addend: 0x0, symName: __ZNK2OT7ArrayOfINS_8OffsetToINS_6Layout6Common8CoverageENS_7IntTypeIjLj4EEELb1EEENS5_ItLj2EEEE16sanitize_shallowEP21hb_sanitize_context_t, symObjAddr: 0x2948, symBinAddr: 0xB980, symSize: 0x94 }
  - { offsetInCU: 0x544B4, offset: 0x17214C, size: 0x8, addend: 0x0, symName: __ZNK2OT8OffsetToINS_6Layout6Common8CoverageENS_7IntTypeIjLj4EEELb1EE8sanitizeIJEEEbP21hb_sanitize_context_tPKvDpOT_, symObjAddr: 0x29DC, symBinAddr: 0xBA14, symSize: 0xA0 }
  - { offsetInCU: 0x54905, offset: 0x17259D, size: 0x8, addend: 0x0, symName: __ZNK2OT8OffsetToINS_13VarRegionListENS_7IntTypeIjLj4EEELb1EE8sanitizeIJEEEbP21hb_sanitize_context_tPKvDpOT_, symObjAddr: 0x2B1C, symBinAddr: 0xBB54, symSize: 0xA0 }
  - { offsetInCU: 0x54BB0, offset: 0x172848, size: 0x8, addend: 0x0, symName: __ZNK2OT7ArrayOfINS_8OffsetToINS_7VarDataENS_7IntTypeIjLj4EEELb1EEENS3_ItLj2EEEE8sanitizeIJPKNS_14VariationStoreEEEEbP21hb_sanitize_context_tDpOT_, symObjAddr: 0x2BBC, symBinAddr: 0xBBF4, symSize: 0x74 }
  - { offsetInCU: 0x54EB0, offset: 0x172B48, size: 0x8, addend: 0x0, symName: __ZNK2OT13VarRegionList8sanitizeEP21hb_sanitize_context_t, symObjAddr: 0x2C30, symBinAddr: 0xBC68, symSize: 0xA4 }
  - { offsetInCU: 0x54EF6, offset: 0x172B8E, size: 0x8, addend: 0x0, symName: __ZNK2OT13VarRegionList8sanitizeEP21hb_sanitize_context_t, symObjAddr: 0x2C30, symBinAddr: 0xBC68, symSize: 0xA4 }
  - { offsetInCU: 0x54F1C, offset: 0x172BB4, size: 0x8, addend: 0x0, symName: __ZNK2OT13VarRegionList8sanitizeEP21hb_sanitize_context_t, symObjAddr: 0x2C30, symBinAddr: 0xBC68, symSize: 0xA4 }
  - { offsetInCU: 0x551A0, offset: 0x172E38, size: 0x8, addend: 0x0, symName: __ZNK2OT7ArrayOfINS_8OffsetToINS_7VarDataENS_7IntTypeIjLj4EEELb1EEENS3_ItLj2EEEE16sanitize_shallowEP21hb_sanitize_context_t, symObjAddr: 0x2CD4, symBinAddr: 0xBD0C, symSize: 0x94 }
  - { offsetInCU: 0x551E6, offset: 0x172E7E, size: 0x8, addend: 0x0, symName: __ZNK2OT7ArrayOfINS_8OffsetToINS_7VarDataENS_7IntTypeIjLj4EEELb1EEENS3_ItLj2EEEE16sanitize_shallowEP21hb_sanitize_context_t, symObjAddr: 0x2CD4, symBinAddr: 0xBD0C, symSize: 0x94 }
  - { offsetInCU: 0x5520C, offset: 0x172EA4, size: 0x8, addend: 0x0, symName: __ZNK2OT7ArrayOfINS_8OffsetToINS_7VarDataENS_7IntTypeIjLj4EEELb1EEENS3_ItLj2EEEE16sanitize_shallowEP21hb_sanitize_context_t, symObjAddr: 0x2CD4, symBinAddr: 0xBD0C, symSize: 0x94 }
  - { offsetInCU: 0x55231, offset: 0x172EC9, size: 0x8, addend: 0x0, symName: __ZNK2OT7ArrayOfINS_8OffsetToINS_7VarDataENS_7IntTypeIjLj4EEELb1EEENS3_ItLj2EEEE16sanitize_shallowEP21hb_sanitize_context_t, symObjAddr: 0x2CD4, symBinAddr: 0xBD0C, symSize: 0x94 }
  - { offsetInCU: 0x5536F, offset: 0x173007, size: 0x8, addend: 0x0, symName: __ZNK2OT8OffsetToINS_7VarDataENS_7IntTypeIjLj4EEELb1EE8sanitizeIJEEEbP21hb_sanitize_context_tPKvDpOT_, symObjAddr: 0x2D68, symBinAddr: 0xBDA0, symSize: 0xA0 }
  - { offsetInCU: 0x55975, offset: 0x17360D, size: 0x8, addend: 0x0, symName: __ZNK2OT7VarData8sanitizeEP21hb_sanitize_context_t, symObjAddr: 0x2E08, symBinAddr: 0xBE40, symSize: 0x11C }
  - { offsetInCU: 0x55D65, offset: 0x1739FD, size: 0x8, addend: 0x0, symName: __ZNK17hb_data_wrapper_tI9hb_face_tLj27EE11call_createI9hb_blob_t22hb_table_lazy_loader_tIN3AAT4morxELj27ELb0EEEEPT_v, symObjAddr: 0x2FC8, symBinAddr: 0xC000, symSize: 0x50 }
  - { offsetInCU: 0x55E57, offset: 0x173AEF, size: 0x8, addend: 0x0, symName: __ZN16hb_lazy_loader_tIN3AAT4morxE22hb_table_lazy_loader_tIS1_Lj27ELb0EE9hb_face_tLj27E9hb_blob_tE10do_destroyEPS5_, symObjAddr: 0x3018, symBinAddr: 0xC050, symSize: 0x3C }
  - { offsetInCU: 0x55EF6, offset: 0x173B8E, size: 0x8, addend: 0x0, symName: __ZN21hb_sanitize_context_t15reference_tableIN3AAT4morxEEEP9hb_blob_tPK9hb_face_tj, symObjAddr: 0x3054, symBinAddr: 0xC08C, symSize: 0x5C }
  - { offsetInCU: 0x55FCE, offset: 0x173C66, size: 0x8, addend: 0x0, symName: __ZN21hb_sanitize_context_t13sanitize_blobIN3AAT4morxEEEP9hb_blob_tS4_, symObjAddr: 0x30B0, symBinAddr: 0xC0E8, symSize: 0x168 }
  - { offsetInCU: 0x561E3, offset: 0x173E7B, size: 0x8, addend: 0x0, symName: __ZNK3AAT8mortmorxINS_13ExtendedTypesELj1836020344EE8sanitizeEP21hb_sanitize_context_t, symObjAddr: 0x3218, symBinAddr: 0xC250, symSize: 0xEC }
  - { offsetInCU: 0x56531, offset: 0x1741C9, size: 0x8, addend: 0x0, symName: __ZNK3AAT5ChainINS_13ExtendedTypesEE8sanitizeEP21hb_sanitize_context_tj, symObjAddr: 0x3304, symBinAddr: 0xC33C, symSize: 0x178 }
  - { offsetInCU: 0x56A90, offset: 0x174728, size: 0x8, addend: 0x0, symName: __ZNK3AAT13ChainSubtableINS_13ExtendedTypesEE8sanitizeEP21hb_sanitize_context_t, symObjAddr: 0x347C, symBinAddr: 0xC4B4, symSize: 0xC4 }
  - { offsetInCU: 0x56D86, offset: 0x174A1E, size: 0x8, addend: 0x0, symName: __ZN21hb_sanitize_context_t10set_objectIN3AAT13ChainSubtableINS1_13ExtendedTypesEEEEEvPKT_, symObjAddr: 0x3598, symBinAddr: 0xC5D0, symSize: 0x58 }
  - { offsetInCU: 0x56DCC, offset: 0x174A64, size: 0x8, addend: 0x0, symName: __ZN21hb_sanitize_context_t10set_objectIN3AAT13ChainSubtableINS1_13ExtendedTypesEEEEEvPKT_, symObjAddr: 0x3598, symBinAddr: 0xC5D0, symSize: 0x58 }
  - { offsetInCU: 0x56E61, offset: 0x174AF9, size: 0x8, addend: 0x0, symName: __ZNK3AAT13ChainSubtableINS_13ExtendedTypesEE8dispatchI21hb_sanitize_context_tJEEENT_8return_tEPS5_DpOT0_, symObjAddr: 0x3540, symBinAddr: 0xC578, symSize: 0x58 }
  - { offsetInCU: 0x56EB8, offset: 0x174B50, size: 0x8, addend: 0x0, symName: __ZNK3AAT13ChainSubtableINS_13ExtendedTypesEE8dispatchI21hb_sanitize_context_tJEEENT_8return_tEPS5_DpOT0_, symObjAddr: 0x3540, symBinAddr: 0xC578, symSize: 0x58 }
  - { offsetInCU: 0x56ED6, offset: 0x174B6E, size: 0x8, addend: 0x0, symName: __ZNK3AAT13ChainSubtableINS_13ExtendedTypesEE8dispatchI21hb_sanitize_context_tJEEENT_8return_tEPS5_DpOT0_, symObjAddr: 0x3540, symBinAddr: 0xC578, symSize: 0x58 }
  - { offsetInCU: 0x56EF6, offset: 0x174B8E, size: 0x8, addend: 0x0, symName: __ZNK3AAT13ChainSubtableINS_13ExtendedTypesEE8dispatchI21hb_sanitize_context_tJEEENT_8return_tEPS5_DpOT0_, symObjAddr: 0x3540, symBinAddr: 0xC578, symSize: 0x58 }
  - { offsetInCU: 0x573F1, offset: 0x175089, size: 0x8, addend: 0x0, symName: __ZNK3AAT10StateTableINS_13ExtendedTypesEvE8sanitizeEP21hb_sanitize_context_tPj, symObjAddr: 0x35F0, symBinAddr: 0xC628, symSize: 0x22C }
  - { offsetInCU: 0x5789E, offset: 0x175536, size: 0x8, addend: 0x0, symName: __ZNK3AAT18ContextualSubtableINS_13ExtendedTypesEE8sanitizeEP21hb_sanitize_context_t, symObjAddr: 0x3E94, symBinAddr: 0xCECC, symSize: 0xBC }
  - { offsetInCU: 0x57A05, offset: 0x17569D, size: 0x8, addend: 0x0, symName: __ZNK3AAT16LigatureSubtableINS_13ExtendedTypesEE8sanitizeEP21hb_sanitize_context_t, symObjAddr: 0x4918, symBinAddr: 0xD950, symSize: 0x90 }
  - { offsetInCU: 0x57B8C, offset: 0x175824, size: 0x8, addend: 0x0, symName: __ZNK3AAT6LookupIN2OT11HBGlyphID16EE8sanitizeEP21hb_sanitize_context_t, symObjAddr: 0x42F0, symBinAddr: 0xD328, symSize: 0xEC }
  - { offsetInCU: 0x57DFD, offset: 0x175A95, size: 0x8, addend: 0x0, symName: __ZNK3AAT17InsertionSubtableINS_13ExtendedTypesEE8sanitizeEP21hb_sanitize_context_t, symObjAddr: 0x4BE8, symBinAddr: 0xDC20, symSize: 0x78 }
  - { offsetInCU: 0x5800A, offset: 0x175CA2, size: 0x8, addend: 0x0, symName: __ZNK2OT8OffsetToIN3AAT6LookupINS_7IntTypeItLj2EEEEENS3_IjLj4EEELb0EE8sanitizeIJEEEbP21hb_sanitize_context_tPKvDpOT_, symObjAddr: 0x381C, symBinAddr: 0xC854, symSize: 0x50 }
  - { offsetInCU: 0x5805F, offset: 0x175CF7, size: 0x8, addend: 0x0, symName: __ZNK2OT8OffsetToIN3AAT6LookupINS_7IntTypeItLj2EEEEENS3_IjLj4EEELb0EE8sanitizeIJEEEbP21hb_sanitize_context_tPKvDpOT_, symObjAddr: 0x381C, symBinAddr: 0xC854, symSize: 0x50 }
  - { offsetInCU: 0x5808D, offset: 0x175D25, size: 0x8, addend: 0x0, symName: __ZNK2OT8OffsetToIN3AAT6LookupINS_7IntTypeItLj2EEEEENS3_IjLj4EEELb0EE8sanitizeIJEEEbP21hb_sanitize_context_tPKvDpOT_, symObjAddr: 0x381C, symBinAddr: 0xC854, symSize: 0x50 }
  - { offsetInCU: 0x580B3, offset: 0x175D4B, size: 0x8, addend: 0x0, symName: __ZNK2OT8OffsetToIN3AAT6LookupINS_7IntTypeItLj2EEEEENS3_IjLj4EEELb0EE8sanitizeIJEEEbP21hb_sanitize_context_tPKvDpOT_, symObjAddr: 0x381C, symBinAddr: 0xC854, symSize: 0x50 }
  - { offsetInCU: 0x582BB, offset: 0x175F53, size: 0x8, addend: 0x0, symName: __ZNK3AAT6LookupIN2OT7IntTypeItLj2EEEE8sanitizeEP21hb_sanitize_context_t, symObjAddr: 0x386C, symBinAddr: 0xC8A4, symSize: 0xEC }
  - { offsetInCU: 0x58685, offset: 0x17631D, size: 0x8, addend: 0x0, symName: __ZNK2OT14UnsizedArrayOfINS_7IntTypeItLj2EEEE8sanitizeIJEEEbP21hb_sanitize_context_tjDpOT_, symObjAddr: 0x3A44, symBinAddr: 0xCA7C, symSize: 0x50 }
  - { offsetInCU: 0x586DA, offset: 0x176372, size: 0x8, addend: 0x0, symName: __ZNK2OT14UnsizedArrayOfINS_7IntTypeItLj2EEEE8sanitizeIJEEEbP21hb_sanitize_context_tjDpOT_, symObjAddr: 0x3A44, symBinAddr: 0xCA7C, symSize: 0x50 }
  - { offsetInCU: 0x58708, offset: 0x1763A0, size: 0x8, addend: 0x0, symName: __ZNK2OT14UnsizedArrayOfINS_7IntTypeItLj2EEEE8sanitizeIJEEEbP21hb_sanitize_context_tjDpOT_, symObjAddr: 0x3A44, symBinAddr: 0xCA7C, symSize: 0x50 }
  - { offsetInCU: 0x58736, offset: 0x1763CE, size: 0x8, addend: 0x0, symName: __ZNK2OT14UnsizedArrayOfINS_7IntTypeItLj2EEEE8sanitizeIJEEEbP21hb_sanitize_context_tjDpOT_, symObjAddr: 0x3A44, symBinAddr: 0xCA7C, symSize: 0x50 }
  - { offsetInCU: 0x587B4, offset: 0x17644C, size: 0x8, addend: 0x0, symName: __ZNK2OT24VarSizedBinSearchArrayOfIN3AAT19LookupSegmentSingleINS_7IntTypeItLj2EEEEEE16sanitize_shallowEP21hb_sanitize_context_t, symObjAddr: 0x3A94, symBinAddr: 0xCACC, symSize: 0x9C }
  - { offsetInCU: 0x587FA, offset: 0x176492, size: 0x8, addend: 0x0, symName: __ZNK2OT24VarSizedBinSearchArrayOfIN3AAT19LookupSegmentSingleINS_7IntTypeItLj2EEEEEE16sanitize_shallowEP21hb_sanitize_context_t, symObjAddr: 0x3A94, symBinAddr: 0xCACC, symSize: 0x9C }
  - { offsetInCU: 0x58820, offset: 0x1764B8, size: 0x8, addend: 0x0, symName: __ZNK2OT24VarSizedBinSearchArrayOfIN3AAT19LookupSegmentSingleINS_7IntTypeItLj2EEEEEE16sanitize_shallowEP21hb_sanitize_context_t, symObjAddr: 0x3A94, symBinAddr: 0xCACC, symSize: 0x9C }
  - { offsetInCU: 0x58846, offset: 0x1764DE, size: 0x8, addend: 0x0, symName: __ZNK2OT24VarSizedBinSearchArrayOfIN3AAT19LookupSegmentSingleINS_7IntTypeItLj2EEEEEE16sanitize_shallowEP21hb_sanitize_context_t, symObjAddr: 0x3A94, symBinAddr: 0xCACC, symSize: 0x9C }
  - { offsetInCU: 0x5899D, offset: 0x176635, size: 0x8, addend: 0x0, symName: __ZNK2OT24VarSizedBinSearchArrayOfIN3AAT18LookupSegmentArrayINS_7IntTypeItLj2EEEEEE8sanitizeIJPKNS1_13LookupFormat4IS4_EEEEEbP21hb_sanitize_context_tDpOT_, symObjAddr: 0x3B30, symBinAddr: 0xCB68, symSize: 0x94 }
  - { offsetInCU: 0x58AEE, offset: 0x176786, size: 0x8, addend: 0x0, symName: __ZNK2OT24VarSizedBinSearchArrayOfIN3AAT12LookupSingleINS_7IntTypeItLj2EEEEEE16sanitize_shallowEP21hb_sanitize_context_t, symObjAddr: 0x3DF8, symBinAddr: 0xCE30, symSize: 0x9C }
  - { offsetInCU: 0x58B34, offset: 0x1767CC, size: 0x8, addend: 0x0, symName: __ZNK2OT24VarSizedBinSearchArrayOfIN3AAT12LookupSingleINS_7IntTypeItLj2EEEEEE16sanitize_shallowEP21hb_sanitize_context_t, symObjAddr: 0x3DF8, symBinAddr: 0xCE30, symSize: 0x9C }
  - { offsetInCU: 0x58B5A, offset: 0x1767F2, size: 0x8, addend: 0x0, symName: __ZNK2OT24VarSizedBinSearchArrayOfIN3AAT12LookupSingleINS_7IntTypeItLj2EEEEEE16sanitize_shallowEP21hb_sanitize_context_t, symObjAddr: 0x3DF8, symBinAddr: 0xCE30, symSize: 0x9C }
  - { offsetInCU: 0x58B80, offset: 0x176818, size: 0x8, addend: 0x0, symName: __ZNK2OT24VarSizedBinSearchArrayOfIN3AAT12LookupSingleINS_7IntTypeItLj2EEEEEE16sanitize_shallowEP21hb_sanitize_context_t, symObjAddr: 0x3DF8, symBinAddr: 0xCE30, symSize: 0x9C }
  - { offsetInCU: 0x58CD2, offset: 0x17696A, size: 0x8, addend: 0x0, symName: __ZNK3AAT13LookupFormat8IN2OT7IntTypeItLj2EEEE8sanitizeEP21hb_sanitize_context_t, symObjAddr: 0x3958, symBinAddr: 0xC990, symSize: 0x50 }
  - { offsetInCU: 0x58D18, offset: 0x1769B0, size: 0x8, addend: 0x0, symName: __ZNK3AAT13LookupFormat8IN2OT7IntTypeItLj2EEEE8sanitizeEP21hb_sanitize_context_t, symObjAddr: 0x3958, symBinAddr: 0xC990, symSize: 0x50 }
  - { offsetInCU: 0x58D3E, offset: 0x1769D6, size: 0x8, addend: 0x0, symName: __ZNK3AAT13LookupFormat8IN2OT7IntTypeItLj2EEEE8sanitizeEP21hb_sanitize_context_t, symObjAddr: 0x3958, symBinAddr: 0xC990, symSize: 0x50 }
  - { offsetInCU: 0x58DC1, offset: 0x176A59, size: 0x8, addend: 0x0, symName: __ZNK3AAT14LookupFormat10IN2OT7IntTypeItLj2EEEE8sanitizeEP21hb_sanitize_context_t, symObjAddr: 0x39A8, symBinAddr: 0xC9E0, symSize: 0x9C }
  - { offsetInCU: 0x58E07, offset: 0x176A9F, size: 0x8, addend: 0x0, symName: __ZNK3AAT14LookupFormat10IN2OT7IntTypeItLj2EEEE8sanitizeEP21hb_sanitize_context_t, symObjAddr: 0x39A8, symBinAddr: 0xC9E0, symSize: 0x9C }
  - { offsetInCU: 0x58E2D, offset: 0x176AC5, size: 0x8, addend: 0x0, symName: __ZNK3AAT14LookupFormat10IN2OT7IntTypeItLj2EEEE8sanitizeEP21hb_sanitize_context_t, symObjAddr: 0x39A8, symBinAddr: 0xC9E0, symSize: 0x9C }
  - { offsetInCU: 0x591C9, offset: 0x176E61, size: 0x8, addend: 0x0, symName: __ZNK2OT24VarSizedBinSearchArrayOfIN3AAT18LookupSegmentArrayINS_7IntTypeItLj2EEEEEE16sanitize_shallowEP21hb_sanitize_context_t, symObjAddr: 0x3BC4, symBinAddr: 0xCBFC, symSize: 0x9C }
  - { offsetInCU: 0x5920F, offset: 0x176EA7, size: 0x8, addend: 0x0, symName: __ZNK2OT24VarSizedBinSearchArrayOfIN3AAT18LookupSegmentArrayINS_7IntTypeItLj2EEEEEE16sanitize_shallowEP21hb_sanitize_context_t, symObjAddr: 0x3BC4, symBinAddr: 0xCBFC, symSize: 0x9C }
  - { offsetInCU: 0x59235, offset: 0x176ECD, size: 0x8, addend: 0x0, symName: __ZNK2OT24VarSizedBinSearchArrayOfIN3AAT18LookupSegmentArrayINS_7IntTypeItLj2EEEEEE16sanitize_shallowEP21hb_sanitize_context_t, symObjAddr: 0x3BC4, symBinAddr: 0xCBFC, symSize: 0x9C }
  - { offsetInCU: 0x5925B, offset: 0x176EF3, size: 0x8, addend: 0x0, symName: __ZNK2OT24VarSizedBinSearchArrayOfIN3AAT18LookupSegmentArrayINS_7IntTypeItLj2EEEEEE16sanitize_shallowEP21hb_sanitize_context_t, symObjAddr: 0x3BC4, symBinAddr: 0xCBFC, symSize: 0x9C }
  - { offsetInCU: 0x593AD, offset: 0x177045, size: 0x8, addend: 0x0, symName: __ZNK2OT24VarSizedBinSearchArrayOfIN3AAT18LookupSegmentArrayINS_7IntTypeItLj2EEEEEE18last_is_terminatorEv, symObjAddr: 0x3D48, symBinAddr: 0xCD80, symSize: 0x5C }
  - { offsetInCU: 0x593F9, offset: 0x177091, size: 0x8, addend: 0x0, symName: __ZNK2OT24VarSizedBinSearchArrayOfIN3AAT18LookupSegmentArrayINS_7IntTypeItLj2EEEEEE18last_is_terminatorEv, symObjAddr: 0x3D48, symBinAddr: 0xCD80, symSize: 0x5C }
  - { offsetInCU: 0x59419, offset: 0x1770B1, size: 0x8, addend: 0x0, symName: __ZNK2OT24VarSizedBinSearchArrayOfIN3AAT18LookupSegmentArrayINS_7IntTypeItLj2EEEEEE18last_is_terminatorEv, symObjAddr: 0x3D48, symBinAddr: 0xCD80, symSize: 0x5C }
  - { offsetInCU: 0x594D5, offset: 0x17716D, size: 0x8, addend: 0x0, symName: __ZNK2OT24VarSizedBinSearchArrayOfIN3AAT18LookupSegmentArrayINS_7IntTypeItLj2EEEEEEixEi, symObjAddr: 0x3C60, symBinAddr: 0xCC98, symSize: 0x60 }
  - { offsetInCU: 0x59623, offset: 0x1772BB, size: 0x8, addend: 0x0, symName: __ZNK3AAT18LookupSegmentArrayIN2OT7IntTypeItLj2EEEE8sanitizeEP21hb_sanitize_context_tPKv, symObjAddr: 0x3CC0, symBinAddr: 0xCCF8, symSize: 0x88 }
  - { offsetInCU: 0x597C6, offset: 0x17745E, size: 0x8, addend: 0x0, symName: __ZNK2OT8OffsetToINS_14UnsizedArrayOfINS_7IntTypeItLj2EEEEES3_Lb0EE8sanitizeIJjEEEbP21hb_sanitize_context_tPKvDpOT_, symObjAddr: 0x3DA4, symBinAddr: 0xCDDC, symSize: 0x54 }
  - { offsetInCU: 0x5982C, offset: 0x1774C4, size: 0x8, addend: 0x0, symName: __ZNK2OT8OffsetToINS_14UnsizedArrayOfINS_7IntTypeItLj2EEEEES3_Lb0EE8sanitizeIJjEEEbP21hb_sanitize_context_tPKvDpOT_, symObjAddr: 0x3DA4, symBinAddr: 0xCDDC, symSize: 0x54 }
  - { offsetInCU: 0x5985A, offset: 0x1774F2, size: 0x8, addend: 0x0, symName: __ZNK2OT8OffsetToINS_14UnsizedArrayOfINS_7IntTypeItLj2EEEEES3_Lb0EE8sanitizeIJjEEEbP21hb_sanitize_context_tPKvDpOT_, symObjAddr: 0x3DA4, symBinAddr: 0xCDDC, symSize: 0x54 }
  - { offsetInCU: 0x59880, offset: 0x177518, size: 0x8, addend: 0x0, symName: __ZNK2OT8OffsetToINS_14UnsizedArrayOfINS_7IntTypeItLj2EEEEES3_Lb0EE8sanitizeIJjEEEbP21hb_sanitize_context_tPKvDpOT_, symObjAddr: 0x3DA4, symBinAddr: 0xCDDC, symSize: 0x54 }
  - { offsetInCU: 0x59AF9, offset: 0x177791, size: 0x8, addend: 0x0, symName: __ZNK3AAT10StateTableINS_13ExtendedTypesENS_18ContextualSubtableIS1_E9EntryDataEE8sanitizeEP21hb_sanitize_context_tPj, symObjAddr: 0x3F50, symBinAddr: 0xCF88, symSize: 0x22C }
  - { offsetInCU: 0x59FA6, offset: 0x177C3E, size: 0x8, addend: 0x0, symName: __ZNK2OT8OffsetToINS_23UnsizedListOfOffset16ToIN3AAT6LookupINS_11HBGlyphID16EEENS_7IntTypeIjLj4EEELb0EEES7_Lb0EE8sanitizeIJRjEEEbP21hb_sanitize_context_tPKvDpOT_, symObjAddr: 0x417C, symBinAddr: 0xD1B4, symSize: 0x74 }
  - { offsetInCU: 0x5A3F0, offset: 0x178088, size: 0x8, addend: 0x0, symName: __ZNK2OT14UnsizedArrayOfINS_8OffsetToIN3AAT6LookupINS_11HBGlyphID16EEENS_7IntTypeIjLj4EEELb0EEEE8sanitizeIJPKNS_23UnsizedListOfOffset16ToIS5_S7_Lb0EEEEEEbP21hb_sanitize_context_tjDpOT_, symObjAddr: 0x41F0, symBinAddr: 0xD228, symSize: 0xB0 }
  - { offsetInCU: 0x5A742, offset: 0x1783DA, size: 0x8, addend: 0x0, symName: __ZNK2OT8OffsetToIN3AAT6LookupINS_11HBGlyphID16EEENS_7IntTypeIjLj4EEELb0EE8sanitizeIJEEEbP21hb_sanitize_context_tPKvDpOT_, symObjAddr: 0x42A0, symBinAddr: 0xD2D8, symSize: 0x50 }
  - { offsetInCU: 0x5A797, offset: 0x17842F, size: 0x8, addend: 0x0, symName: __ZNK2OT8OffsetToIN3AAT6LookupINS_11HBGlyphID16EEENS_7IntTypeIjLj4EEELb0EE8sanitizeIJEEEbP21hb_sanitize_context_tPKvDpOT_, symObjAddr: 0x42A0, symBinAddr: 0xD2D8, symSize: 0x50 }
  - { offsetInCU: 0x5A7C5, offset: 0x17845D, size: 0x8, addend: 0x0, symName: __ZNK2OT8OffsetToIN3AAT6LookupINS_11HBGlyphID16EEENS_7IntTypeIjLj4EEELb0EE8sanitizeIJEEEbP21hb_sanitize_context_tPKvDpOT_, symObjAddr: 0x42A0, symBinAddr: 0xD2D8, symSize: 0x50 }
  - { offsetInCU: 0x5A7EB, offset: 0x178483, size: 0x8, addend: 0x0, symName: __ZNK2OT8OffsetToIN3AAT6LookupINS_11HBGlyphID16EEENS_7IntTypeIjLj4EEELb0EE8sanitizeIJEEEbP21hb_sanitize_context_tPKvDpOT_, symObjAddr: 0x42A0, symBinAddr: 0xD2D8, symSize: 0x50 }
  - { offsetInCU: 0x5AB31, offset: 0x1787C9, size: 0x8, addend: 0x0, symName: __ZNK2OT14UnsizedArrayOfINS_11HBGlyphID16EE8sanitizeIJEEEbP21hb_sanitize_context_tjDpOT_, symObjAddr: 0x44C8, symBinAddr: 0xD500, symSize: 0x50 }
  - { offsetInCU: 0x5AB86, offset: 0x17881E, size: 0x8, addend: 0x0, symName: __ZNK2OT14UnsizedArrayOfINS_11HBGlyphID16EE8sanitizeIJEEEbP21hb_sanitize_context_tjDpOT_, symObjAddr: 0x44C8, symBinAddr: 0xD500, symSize: 0x50 }
  - { offsetInCU: 0x5ABB4, offset: 0x17884C, size: 0x8, addend: 0x0, symName: __ZNK2OT14UnsizedArrayOfINS_11HBGlyphID16EE8sanitizeIJEEEbP21hb_sanitize_context_tjDpOT_, symObjAddr: 0x44C8, symBinAddr: 0xD500, symSize: 0x50 }
  - { offsetInCU: 0x5ABE2, offset: 0x17887A, size: 0x8, addend: 0x0, symName: __ZNK2OT14UnsizedArrayOfINS_11HBGlyphID16EE8sanitizeIJEEEbP21hb_sanitize_context_tjDpOT_, symObjAddr: 0x44C8, symBinAddr: 0xD500, symSize: 0x50 }
  - { offsetInCU: 0x5AC60, offset: 0x1788F8, size: 0x8, addend: 0x0, symName: __ZNK2OT24VarSizedBinSearchArrayOfIN3AAT19LookupSegmentSingleINS_11HBGlyphID16EEEE16sanitize_shallowEP21hb_sanitize_context_t, symObjAddr: 0x4518, symBinAddr: 0xD550, symSize: 0x9C }
  - { offsetInCU: 0x5ACA6, offset: 0x17893E, size: 0x8, addend: 0x0, symName: __ZNK2OT24VarSizedBinSearchArrayOfIN3AAT19LookupSegmentSingleINS_11HBGlyphID16EEEE16sanitize_shallowEP21hb_sanitize_context_t, symObjAddr: 0x4518, symBinAddr: 0xD550, symSize: 0x9C }
  - { offsetInCU: 0x5ACCC, offset: 0x178964, size: 0x8, addend: 0x0, symName: __ZNK2OT24VarSizedBinSearchArrayOfIN3AAT19LookupSegmentSingleINS_11HBGlyphID16EEEE16sanitize_shallowEP21hb_sanitize_context_t, symObjAddr: 0x4518, symBinAddr: 0xD550, symSize: 0x9C }
  - { offsetInCU: 0x5ACF2, offset: 0x17898A, size: 0x8, addend: 0x0, symName: __ZNK2OT24VarSizedBinSearchArrayOfIN3AAT19LookupSegmentSingleINS_11HBGlyphID16EEEE16sanitize_shallowEP21hb_sanitize_context_t, symObjAddr: 0x4518, symBinAddr: 0xD550, symSize: 0x9C }
  - { offsetInCU: 0x5AE49, offset: 0x178AE1, size: 0x8, addend: 0x0, symName: __ZNK2OT24VarSizedBinSearchArrayOfIN3AAT18LookupSegmentArrayINS_11HBGlyphID16EEEE8sanitizeIJPKNS1_13LookupFormat4IS3_EEEEEbP21hb_sanitize_context_tDpOT_, symObjAddr: 0x45B4, symBinAddr: 0xD5EC, symSize: 0x94 }
  - { offsetInCU: 0x5AF9A, offset: 0x178C32, size: 0x8, addend: 0x0, symName: __ZNK2OT24VarSizedBinSearchArrayOfIN3AAT12LookupSingleINS_11HBGlyphID16EEEE16sanitize_shallowEP21hb_sanitize_context_t, symObjAddr: 0x487C, symBinAddr: 0xD8B4, symSize: 0x9C }
  - { offsetInCU: 0x5AFE0, offset: 0x178C78, size: 0x8, addend: 0x0, symName: __ZNK2OT24VarSizedBinSearchArrayOfIN3AAT12LookupSingleINS_11HBGlyphID16EEEE16sanitize_shallowEP21hb_sanitize_context_t, symObjAddr: 0x487C, symBinAddr: 0xD8B4, symSize: 0x9C }
  - { offsetInCU: 0x5B006, offset: 0x178C9E, size: 0x8, addend: 0x0, symName: __ZNK2OT24VarSizedBinSearchArrayOfIN3AAT12LookupSingleINS_11HBGlyphID16EEEE16sanitize_shallowEP21hb_sanitize_context_t, symObjAddr: 0x487C, symBinAddr: 0xD8B4, symSize: 0x9C }
  - { offsetInCU: 0x5B02C, offset: 0x178CC4, size: 0x8, addend: 0x0, symName: __ZNK2OT24VarSizedBinSearchArrayOfIN3AAT12LookupSingleINS_11HBGlyphID16EEEE16sanitize_shallowEP21hb_sanitize_context_t, symObjAddr: 0x487C, symBinAddr: 0xD8B4, symSize: 0x9C }
  - { offsetInCU: 0x5B17E, offset: 0x178E16, size: 0x8, addend: 0x0, symName: __ZNK3AAT13LookupFormat8IN2OT11HBGlyphID16EE8sanitizeEP21hb_sanitize_context_t, symObjAddr: 0x43DC, symBinAddr: 0xD414, symSize: 0x50 }
  - { offsetInCU: 0x5B1C4, offset: 0x178E5C, size: 0x8, addend: 0x0, symName: __ZNK3AAT13LookupFormat8IN2OT11HBGlyphID16EE8sanitizeEP21hb_sanitize_context_t, symObjAddr: 0x43DC, symBinAddr: 0xD414, symSize: 0x50 }
  - { offsetInCU: 0x5B1EA, offset: 0x178E82, size: 0x8, addend: 0x0, symName: __ZNK3AAT13LookupFormat8IN2OT11HBGlyphID16EE8sanitizeEP21hb_sanitize_context_t, symObjAddr: 0x43DC, symBinAddr: 0xD414, symSize: 0x50 }
  - { offsetInCU: 0x5B26D, offset: 0x178F05, size: 0x8, addend: 0x0, symName: __ZNK3AAT14LookupFormat10IN2OT11HBGlyphID16EE8sanitizeEP21hb_sanitize_context_t, symObjAddr: 0x442C, symBinAddr: 0xD464, symSize: 0x9C }
  - { offsetInCU: 0x5B2B3, offset: 0x178F4B, size: 0x8, addend: 0x0, symName: __ZNK3AAT14LookupFormat10IN2OT11HBGlyphID16EE8sanitizeEP21hb_sanitize_context_t, symObjAddr: 0x442C, symBinAddr: 0xD464, symSize: 0x9C }
  - { offsetInCU: 0x5B2D9, offset: 0x178F71, size: 0x8, addend: 0x0, symName: __ZNK3AAT14LookupFormat10IN2OT11HBGlyphID16EE8sanitizeEP21hb_sanitize_context_t, symObjAddr: 0x442C, symBinAddr: 0xD464, symSize: 0x9C }
  - { offsetInCU: 0x5B559, offset: 0x1791F1, size: 0x8, addend: 0x0, symName: __ZNK2OT24VarSizedBinSearchArrayOfIN3AAT18LookupSegmentArrayINS_11HBGlyphID16EEEE16sanitize_shallowEP21hb_sanitize_context_t, symObjAddr: 0x4648, symBinAddr: 0xD680, symSize: 0x9C }
  - { offsetInCU: 0x5B59F, offset: 0x179237, size: 0x8, addend: 0x0, symName: __ZNK2OT24VarSizedBinSearchArrayOfIN3AAT18LookupSegmentArrayINS_11HBGlyphID16EEEE16sanitize_shallowEP21hb_sanitize_context_t, symObjAddr: 0x4648, symBinAddr: 0xD680, symSize: 0x9C }
  - { offsetInCU: 0x5B5C5, offset: 0x17925D, size: 0x8, addend: 0x0, symName: __ZNK2OT24VarSizedBinSearchArrayOfIN3AAT18LookupSegmentArrayINS_11HBGlyphID16EEEE16sanitize_shallowEP21hb_sanitize_context_t, symObjAddr: 0x4648, symBinAddr: 0xD680, symSize: 0x9C }
  - { offsetInCU: 0x5B5EB, offset: 0x179283, size: 0x8, addend: 0x0, symName: __ZNK2OT24VarSizedBinSearchArrayOfIN3AAT18LookupSegmentArrayINS_11HBGlyphID16EEEE16sanitize_shallowEP21hb_sanitize_context_t, symObjAddr: 0x4648, symBinAddr: 0xD680, symSize: 0x9C }
  - { offsetInCU: 0x5B73D, offset: 0x1793D5, size: 0x8, addend: 0x0, symName: __ZNK2OT24VarSizedBinSearchArrayOfIN3AAT18LookupSegmentArrayINS_11HBGlyphID16EEEE18last_is_terminatorEv, symObjAddr: 0x47CC, symBinAddr: 0xD804, symSize: 0x5C }
  - { offsetInCU: 0x5B789, offset: 0x179421, size: 0x8, addend: 0x0, symName: __ZNK2OT24VarSizedBinSearchArrayOfIN3AAT18LookupSegmentArrayINS_11HBGlyphID16EEEE18last_is_terminatorEv, symObjAddr: 0x47CC, symBinAddr: 0xD804, symSize: 0x5C }
  - { offsetInCU: 0x5B7A9, offset: 0x179441, size: 0x8, addend: 0x0, symName: __ZNK2OT24VarSizedBinSearchArrayOfIN3AAT18LookupSegmentArrayINS_11HBGlyphID16EEEE18last_is_terminatorEv, symObjAddr: 0x47CC, symBinAddr: 0xD804, symSize: 0x5C }
  - { offsetInCU: 0x5B865, offset: 0x1794FD, size: 0x8, addend: 0x0, symName: __ZNK2OT24VarSizedBinSearchArrayOfIN3AAT18LookupSegmentArrayINS_11HBGlyphID16EEEEixEi, symObjAddr: 0x46E4, symBinAddr: 0xD71C, symSize: 0x60 }
  - { offsetInCU: 0x5B9B3, offset: 0x17964B, size: 0x8, addend: 0x0, symName: __ZNK3AAT18LookupSegmentArrayIN2OT11HBGlyphID16EE8sanitizeEP21hb_sanitize_context_tPKv, symObjAddr: 0x4744, symBinAddr: 0xD77C, symSize: 0x88 }
  - { offsetInCU: 0x5BB56, offset: 0x1797EE, size: 0x8, addend: 0x0, symName: __ZNK2OT8OffsetToINS_14UnsizedArrayOfINS_11HBGlyphID16EEENS_7IntTypeItLj2EEELb0EE8sanitizeIJjEEEbP21hb_sanitize_context_tPKvDpOT_, symObjAddr: 0x4828, symBinAddr: 0xD860, symSize: 0x54 }
  - { offsetInCU: 0x5BBBC, offset: 0x179854, size: 0x8, addend: 0x0, symName: __ZNK2OT8OffsetToINS_14UnsizedArrayOfINS_11HBGlyphID16EEENS_7IntTypeItLj2EEELb0EE8sanitizeIJjEEEbP21hb_sanitize_context_tPKvDpOT_, symObjAddr: 0x4828, symBinAddr: 0xD860, symSize: 0x54 }
  - { offsetInCU: 0x5BBEA, offset: 0x179882, size: 0x8, addend: 0x0, symName: __ZNK2OT8OffsetToINS_14UnsizedArrayOfINS_11HBGlyphID16EEENS_7IntTypeItLj2EEELb0EE8sanitizeIJjEEEbP21hb_sanitize_context_tPKvDpOT_, symObjAddr: 0x4828, symBinAddr: 0xD860, symSize: 0x54 }
  - { offsetInCU: 0x5BC10, offset: 0x1798A8, size: 0x8, addend: 0x0, symName: __ZNK2OT8OffsetToINS_14UnsizedArrayOfINS_11HBGlyphID16EEENS_7IntTypeItLj2EEELb0EE8sanitizeIJjEEEbP21hb_sanitize_context_tPKvDpOT_, symObjAddr: 0x4828, symBinAddr: 0xD860, symSize: 0x54 }
  - { offsetInCU: 0x5BE82, offset: 0x179B1A, size: 0x8, addend: 0x0, symName: __ZNK3AAT10StateTableINS_13ExtendedTypesENS_13LigatureEntryILb1EE9EntryDataEE8sanitizeEP21hb_sanitize_context_tPj, symObjAddr: 0x49A8, symBinAddr: 0xD9E0, symSize: 0x240 }
  - { offsetInCU: 0x5C419, offset: 0x17A0B1, size: 0x8, addend: 0x0, symName: __ZNK3AAT10StateTableINS_13ExtendedTypesENS_17InsertionSubtableIS1_E9EntryDataEE8sanitizeEP21hb_sanitize_context_tPj, symObjAddr: 0x4C60, symBinAddr: 0xDC98, symSize: 0x22C }
  - { offsetInCU: 0x5C9B2, offset: 0x17A64A, size: 0x8, addend: 0x0, symName: __ZN11hb_vector_tIjLb0EE5allocEj, symObjAddr: 0x503C, symBinAddr: 0xE074, symSize: 0x88 }
  - { offsetInCU: 0x5CC49, offset: 0x17A8E1, size: 0x8, addend: 0x0, symName: __ZNK17hb_sorted_array_tIKN20hb_aat_map_builder_t14feature_info_tEE12bsearch_implIS1_JEEEbRKT_PjDpT0_, symObjAddr: 0x5100, symBinAddr: 0xE138, symSize: 0x78 }
  - { offsetInCU: 0x5CD57, offset: 0x17A9EF, size: 0x8, addend: 0x0, symName: __ZNK16hb_lazy_loader_tIN3AAT4ltagE22hb_table_lazy_loader_tIS1_Lj32ELb0EE9hb_face_tLj32E9hb_blob_tE10get_storedEv, symObjAddr: 0x5178, symBinAddr: 0xE1B0, symSize: 0x74 }
  - { offsetInCU: 0x5CEEB, offset: 0x17AB83, size: 0x8, addend: 0x0, symName: __ZNK3AAT4ltag12get_languageEj, symObjAddr: 0x50C4, symBinAddr: 0xE0FC, symSize: 0x3C }
  - { offsetInCU: 0x5CF35, offset: 0x17ABCD, size: 0x8, addend: 0x0, symName: __ZNK3AAT4ltag12get_languageEj, symObjAddr: 0x50C4, symBinAddr: 0xE0FC, symSize: 0x3C }
  - { offsetInCU: 0x5CF64, offset: 0x17ABFC, size: 0x8, addend: 0x0, symName: __ZNK3AAT4ltag12get_languageEj, symObjAddr: 0x50C4, symBinAddr: 0xE0FC, symSize: 0x3C }
  - { offsetInCU: 0x5CF84, offset: 0x17AC1C, size: 0x8, addend: 0x0, symName: __ZNK3AAT4ltag12get_languageEj, symObjAddr: 0x50C4, symBinAddr: 0xE0FC, symSize: 0x3C }
  - { offsetInCU: 0x5D393, offset: 0x17B02B, size: 0x8, addend: 0x0, symName: __ZNK17hb_data_wrapper_tI9hb_face_tLj32EE11call_createI9hb_blob_t22hb_table_lazy_loader_tIN3AAT4ltagELj32ELb0EEEEPT_v, symObjAddr: 0x51EC, symBinAddr: 0xE224, symSize: 0x50 }
  - { offsetInCU: 0x5D485, offset: 0x17B11D, size: 0x8, addend: 0x0, symName: __ZN16hb_lazy_loader_tIN3AAT4ltagE22hb_table_lazy_loader_tIS1_Lj32ELb0EE9hb_face_tLj32E9hb_blob_tE10do_destroyEPS5_, symObjAddr: 0x523C, symBinAddr: 0xE274, symSize: 0x3C }
  - { offsetInCU: 0x5D524, offset: 0x17B1BC, size: 0x8, addend: 0x0, symName: __ZN21hb_sanitize_context_t15reference_tableIN3AAT4ltagEEEP9hb_blob_tPK9hb_face_tj, symObjAddr: 0x5278, symBinAddr: 0xE2B0, symSize: 0x5C }
  - { offsetInCU: 0x5D5FC, offset: 0x17B294, size: 0x8, addend: 0x0, symName: __ZN21hb_sanitize_context_t13sanitize_blobIN3AAT4ltagEEEP9hb_blob_tS4_, symObjAddr: 0x52D4, symBinAddr: 0xE30C, symSize: 0x168 }
  - { offsetInCU: 0x5D811, offset: 0x17B4A9, size: 0x8, addend: 0x0, symName: __ZNK3AAT4ltag8sanitizeEP21hb_sanitize_context_t, symObjAddr: 0x543C, symBinAddr: 0xE474, symSize: 0x74 }
  - { offsetInCU: 0x5D935, offset: 0x17B5CD, size: 0x8, addend: 0x0, symName: __ZNK2OT7ArrayOfIN3AAT13FTStringRangeENS_7IntTypeIjLj4EEEE8sanitizeIJPKNS1_4ltagEEEEbP21hb_sanitize_context_tDpOT_, symObjAddr: 0x54B0, symBinAddr: 0xE4E8, symSize: 0x74 }
  - { offsetInCU: 0x5DB2E, offset: 0x17B7C6, size: 0x8, addend: 0x0, symName: __ZNK2OT7ArrayOfIN3AAT13FTStringRangeENS_7IntTypeIjLj4EEEE16sanitize_shallowEP21hb_sanitize_context_t, symObjAddr: 0x5524, symBinAddr: 0xE55C, symSize: 0xB0 }
  - { offsetInCU: 0x5DB74, offset: 0x17B80C, size: 0x8, addend: 0x0, symName: __ZNK2OT7ArrayOfIN3AAT13FTStringRangeENS_7IntTypeIjLj4EEEE16sanitize_shallowEP21hb_sanitize_context_t, symObjAddr: 0x5524, symBinAddr: 0xE55C, symSize: 0xB0 }
  - { offsetInCU: 0x5DB9A, offset: 0x17B832, size: 0x8, addend: 0x0, symName: __ZNK2OT7ArrayOfIN3AAT13FTStringRangeENS_7IntTypeIjLj4EEEE16sanitize_shallowEP21hb_sanitize_context_t, symObjAddr: 0x5524, symBinAddr: 0xE55C, symSize: 0xB0 }
  - { offsetInCU: 0x5DBBF, offset: 0x17B857, size: 0x8, addend: 0x0, symName: __ZNK2OT7ArrayOfIN3AAT13FTStringRangeENS_7IntTypeIjLj4EEEE16sanitize_shallowEP21hb_sanitize_context_t, symObjAddr: 0x5524, symBinAddr: 0xE55C, symSize: 0xB0 }
  - { offsetInCU: 0x5DCD6, offset: 0x17B96E, size: 0x8, addend: 0x0, symName: __ZNK3AAT13FTStringRange8sanitizeEP21hb_sanitize_context_tPKv, symObjAddr: 0x55D4, symBinAddr: 0xE60C, symSize: 0x88 }
  - { offsetInCU: 0x5DD28, offset: 0x17B9C0, size: 0x8, addend: 0x0, symName: __ZNK3AAT13FTStringRange8sanitizeEP21hb_sanitize_context_tPKv, symObjAddr: 0x55D4, symBinAddr: 0xE60C, symSize: 0x88 }
  - { offsetInCU: 0x5DD4D, offset: 0x17B9E5, size: 0x8, addend: 0x0, symName: __ZNK3AAT13FTStringRange8sanitizeEP21hb_sanitize_context_tPKv, symObjAddr: 0x55D4, symBinAddr: 0xE60C, symSize: 0x88 }
  - { offsetInCU: 0x5DFEB, offset: 0x17BC83, size: 0x8, addend: 0x0, symName: __ZNK17hb_data_wrapper_tI9hb_face_tLj28EE11call_createI9hb_blob_t22hb_table_lazy_loader_tIN3AAT4mortELj28ELb0EEEEPT_v, symObjAddr: 0x56D0, symBinAddr: 0xE708, symSize: 0x50 }
  - { offsetInCU: 0x5E0DD, offset: 0x17BD75, size: 0x8, addend: 0x0, symName: __ZN16hb_lazy_loader_tIN3AAT4mortE22hb_table_lazy_loader_tIS1_Lj28ELb0EE9hb_face_tLj28E9hb_blob_tE10do_destroyEPS5_, symObjAddr: 0x5720, symBinAddr: 0xE758, symSize: 0x3C }
  - { offsetInCU: 0x5E17C, offset: 0x17BE14, size: 0x8, addend: 0x0, symName: __ZN21hb_sanitize_context_t15reference_tableIN3AAT4mortEEEP9hb_blob_tPK9hb_face_tj, symObjAddr: 0x575C, symBinAddr: 0xE794, symSize: 0x5C }
  - { offsetInCU: 0x5E254, offset: 0x17BEEC, size: 0x8, addend: 0x0, symName: __ZN21hb_sanitize_context_t13sanitize_blobIN3AAT4mortEEEP9hb_blob_tS4_, symObjAddr: 0x57B8, symBinAddr: 0xE7F0, symSize: 0x168 }
  - { offsetInCU: 0x5E469, offset: 0x17C101, size: 0x8, addend: 0x0, symName: __ZNK3AAT8mortmorxINS_13ObsoleteTypesELj1836020340EE8sanitizeEP21hb_sanitize_context_t, symObjAddr: 0x5920, symBinAddr: 0xE958, symSize: 0xEC }
  - { offsetInCU: 0x5E75C, offset: 0x17C3F4, size: 0x8, addend: 0x0, symName: __ZNK3AAT5ChainINS_13ObsoleteTypesEE8sanitizeEP21hb_sanitize_context_tj, symObjAddr: 0x5A0C, symBinAddr: 0xEA44, symSize: 0x150 }
  - { offsetInCU: 0x5EBE3, offset: 0x17C87B, size: 0x8, addend: 0x0, symName: __ZNK3AAT13ChainSubtableINS_13ObsoleteTypesEE8sanitizeEP21hb_sanitize_context_t, symObjAddr: 0x5B5C, symBinAddr: 0xEB94, symSize: 0xC4 }
  - { offsetInCU: 0x5EED9, offset: 0x17CB71, size: 0x8, addend: 0x0, symName: __ZN21hb_sanitize_context_t10set_objectIN3AAT13ChainSubtableINS1_13ObsoleteTypesEEEEEvPKT_, symObjAddr: 0x5C78, symBinAddr: 0xECB0, symSize: 0x58 }
  - { offsetInCU: 0x5EF1F, offset: 0x17CBB7, size: 0x8, addend: 0x0, symName: __ZN21hb_sanitize_context_t10set_objectIN3AAT13ChainSubtableINS1_13ObsoleteTypesEEEEEvPKT_, symObjAddr: 0x5C78, symBinAddr: 0xECB0, symSize: 0x58 }
  - { offsetInCU: 0x5EFB4, offset: 0x17CC4C, size: 0x8, addend: 0x0, symName: __ZNK3AAT13ChainSubtableINS_13ObsoleteTypesEE8dispatchI21hb_sanitize_context_tJEEENT_8return_tEPS5_DpOT0_, symObjAddr: 0x5C20, symBinAddr: 0xEC58, symSize: 0x58 }
  - { offsetInCU: 0x5F00B, offset: 0x17CCA3, size: 0x8, addend: 0x0, symName: __ZNK3AAT13ChainSubtableINS_13ObsoleteTypesEE8dispatchI21hb_sanitize_context_tJEEENT_8return_tEPS5_DpOT0_, symObjAddr: 0x5C20, symBinAddr: 0xEC58, symSize: 0x58 }
  - { offsetInCU: 0x5F029, offset: 0x17CCC1, size: 0x8, addend: 0x0, symName: __ZNK3AAT13ChainSubtableINS_13ObsoleteTypesEE8dispatchI21hb_sanitize_context_tJEEENT_8return_tEPS5_DpOT0_, symObjAddr: 0x5C20, symBinAddr: 0xEC58, symSize: 0x58 }
  - { offsetInCU: 0x5F049, offset: 0x17CCE1, size: 0x8, addend: 0x0, symName: __ZNK3AAT13ChainSubtableINS_13ObsoleteTypesEE8dispatchI21hb_sanitize_context_tJEEENT_8return_tEPS5_DpOT0_, symObjAddr: 0x5C20, symBinAddr: 0xEC58, symSize: 0x58 }
  - { offsetInCU: 0x5F544, offset: 0x17D1DC, size: 0x8, addend: 0x0, symName: __ZNK3AAT10StateTableINS_13ObsoleteTypesEvE8sanitizeEP21hb_sanitize_context_tPj, symObjAddr: 0x5CD0, symBinAddr: 0xED08, symSize: 0x2D8 }
  - { offsetInCU: 0x5FC0F, offset: 0x17D8A7, size: 0x8, addend: 0x0, symName: __ZNK3AAT18ContextualSubtableINS_13ObsoleteTypesEE8sanitizeEP21hb_sanitize_context_t, symObjAddr: 0x60CC, symBinAddr: 0xF104, symSize: 0x50 }
  - { offsetInCU: 0x5FCB6, offset: 0x17D94E, size: 0x8, addend: 0x0, symName: __ZNK3AAT16LigatureSubtableINS_13ObsoleteTypesEE8sanitizeEP21hb_sanitize_context_t, symObjAddr: 0x6564, symBinAddr: 0xF59C, symSize: 0x90 }
  - { offsetInCU: 0x5FE3D, offset: 0x17DAD5, size: 0x8, addend: 0x0, symName: __ZNK3AAT17InsertionSubtableINS_13ObsoleteTypesEE8sanitizeEP21hb_sanitize_context_t, symObjAddr: 0x65F4, symBinAddr: 0xF62C, symSize: 0x78 }
  - { offsetInCU: 0x60031, offset: 0x17DCC9, size: 0x8, addend: 0x0, symName: __ZNK2OT8OffsetToIN3AAT10ClassTableINS_7IntTypeIhLj1EEEEENS3_ItLj2EEELb0EE8sanitizeIJEEEbP21hb_sanitize_context_tPKvDpOT_, symObjAddr: 0x5FA8, symBinAddr: 0xEFE0, symSize: 0x50 }
  - { offsetInCU: 0x60086, offset: 0x17DD1E, size: 0x8, addend: 0x0, symName: __ZNK2OT8OffsetToIN3AAT10ClassTableINS_7IntTypeIhLj1EEEEENS3_ItLj2EEELb0EE8sanitizeIJEEEbP21hb_sanitize_context_tPKvDpOT_, symObjAddr: 0x5FA8, symBinAddr: 0xEFE0, symSize: 0x50 }
  - { offsetInCU: 0x600B4, offset: 0x17DD4C, size: 0x8, addend: 0x0, symName: __ZNK2OT8OffsetToIN3AAT10ClassTableINS_7IntTypeIhLj1EEEEENS3_ItLj2EEELb0EE8sanitizeIJEEEbP21hb_sanitize_context_tPKvDpOT_, symObjAddr: 0x5FA8, symBinAddr: 0xEFE0, symSize: 0x50 }
  - { offsetInCU: 0x600DA, offset: 0x17DD72, size: 0x8, addend: 0x0, symName: __ZNK2OT8OffsetToIN3AAT10ClassTableINS_7IntTypeIhLj1EEEEENS3_ItLj2EEELb0EE8sanitizeIJEEEbP21hb_sanitize_context_tPKvDpOT_, symObjAddr: 0x5FA8, symBinAddr: 0xEFE0, symSize: 0x50 }
  - { offsetInCU: 0x602E3, offset: 0x17DF7B, size: 0x8, addend: 0x0, symName: __ZNK3AAT10ClassTableIN2OT7IntTypeIhLj1EEEE8sanitizeEP21hb_sanitize_context_t, symObjAddr: 0x5FF8, symBinAddr: 0xF030, symSize: 0x48 }
  - { offsetInCU: 0x60329, offset: 0x17DFC1, size: 0x8, addend: 0x0, symName: __ZNK3AAT10ClassTableIN2OT7IntTypeIhLj1EEEE8sanitizeEP21hb_sanitize_context_t, symObjAddr: 0x5FF8, symBinAddr: 0xF030, symSize: 0x48 }
  - { offsetInCU: 0x6034F, offset: 0x17DFE7, size: 0x8, addend: 0x0, symName: __ZNK3AAT10ClassTableIN2OT7IntTypeIhLj1EEEE8sanitizeEP21hb_sanitize_context_t, symObjAddr: 0x5FF8, symBinAddr: 0xF030, symSize: 0x48 }
  - { offsetInCU: 0x60420, offset: 0x17E0B8, size: 0x8, addend: 0x0, symName: __ZNK2OT7ArrayOfINS_7IntTypeIhLj1EEENS1_ItLj2EEEE16sanitize_shallowEP21hb_sanitize_context_t, symObjAddr: 0x6040, symBinAddr: 0xF078, symSize: 0x8C }
  - { offsetInCU: 0x60466, offset: 0x17E0FE, size: 0x8, addend: 0x0, symName: __ZNK2OT7ArrayOfINS_7IntTypeIhLj1EEENS1_ItLj2EEEE16sanitize_shallowEP21hb_sanitize_context_t, symObjAddr: 0x6040, symBinAddr: 0xF078, symSize: 0x8C }
  - { offsetInCU: 0x6048C, offset: 0x17E124, size: 0x8, addend: 0x0, symName: __ZNK2OT7ArrayOfINS_7IntTypeIhLj1EEENS1_ItLj2EEEE16sanitize_shallowEP21hb_sanitize_context_t, symObjAddr: 0x6040, symBinAddr: 0xF078, symSize: 0x8C }
  - { offsetInCU: 0x604B1, offset: 0x17E149, size: 0x8, addend: 0x0, symName: __ZNK2OT7ArrayOfINS_7IntTypeIhLj1EEENS1_ItLj2EEEE16sanitize_shallowEP21hb_sanitize_context_t, symObjAddr: 0x6040, symBinAddr: 0xF078, symSize: 0x8C }
  - { offsetInCU: 0x605CB, offset: 0x17E263, size: 0x8, addend: 0x0, symName: __ZNK3AAT10StateTableINS_13ObsoleteTypesENS_18ContextualSubtableIS1_E9EntryDataEE8sanitizeEP21hb_sanitize_context_tPj, symObjAddr: 0x611C, symBinAddr: 0xF154, symSize: 0x2D8 }
  - { offsetInCU: 0x60C9C, offset: 0x17E934, size: 0x8, addend: 0x0, symName: __ZNK2OT8OffsetToINS_23UnsizedListOfOffset16ToIN3AAT6LookupINS_11HBGlyphID16EEENS_7IntTypeItLj2EEELb0EEES7_Lb0EE8sanitizeIJiEEEbP21hb_sanitize_context_tPKvDpOT_, symObjAddr: 0x63F4, symBinAddr: 0xF42C, symSize: 0x74 }
  - { offsetInCU: 0x61171, offset: 0x17EE09, size: 0x8, addend: 0x0, symName: __ZNK2OT14UnsizedArrayOfINS_8OffsetToIN3AAT6LookupINS_11HBGlyphID16EEENS_7IntTypeItLj2EEELb0EEEE8sanitizeIJPKNS_23UnsizedListOfOffset16ToIS5_S7_Lb0EEEEEEbP21hb_sanitize_context_tjDpOT_, symObjAddr: 0x6468, symBinAddr: 0xF4A0, symSize: 0xAC }
  - { offsetInCU: 0x614C3, offset: 0x17F15B, size: 0x8, addend: 0x0, symName: __ZNK2OT8OffsetToIN3AAT6LookupINS_11HBGlyphID16EEENS_7IntTypeItLj2EEELb0EE8sanitizeIJEEEbP21hb_sanitize_context_tPKvDpOT_, symObjAddr: 0x6514, symBinAddr: 0xF54C, symSize: 0x50 }
  - { offsetInCU: 0x61518, offset: 0x17F1B0, size: 0x8, addend: 0x0, symName: __ZNK2OT8OffsetToIN3AAT6LookupINS_11HBGlyphID16EEENS_7IntTypeItLj2EEELb0EE8sanitizeIJEEEbP21hb_sanitize_context_tPKvDpOT_, symObjAddr: 0x6514, symBinAddr: 0xF54C, symSize: 0x50 }
  - { offsetInCU: 0x61546, offset: 0x17F1DE, size: 0x8, addend: 0x0, symName: __ZNK2OT8OffsetToIN3AAT6LookupINS_11HBGlyphID16EEENS_7IntTypeItLj2EEELb0EE8sanitizeIJEEEbP21hb_sanitize_context_tPKvDpOT_, symObjAddr: 0x6514, symBinAddr: 0xF54C, symSize: 0x50 }
  - { offsetInCU: 0x6156C, offset: 0x17F204, size: 0x8, addend: 0x0, symName: __ZNK2OT8OffsetToIN3AAT6LookupINS_11HBGlyphID16EEENS_7IntTypeItLj2EEELb0EE8sanitizeIJEEEbP21hb_sanitize_context_tPKvDpOT_, symObjAddr: 0x6514, symBinAddr: 0xF54C, symSize: 0x50 }
  - { offsetInCU: 0x61729, offset: 0x17F3C1, size: 0x8, addend: 0x0, symName: __ZNK3AAT10StateTableINS_13ObsoleteTypesENS_17InsertionSubtableIS1_E9EntryDataEE8sanitizeEP21hb_sanitize_context_tPj, symObjAddr: 0x666C, symBinAddr: 0xF6A4, symSize: 0x2D8 }
  - { offsetInCU: 0x61F52, offset: 0x17FBEA, size: 0x8, addend: 0x0, symName: __ZNK3AAT13ChainSubtableINS_13ExtendedTypesEE5applyEPNS_22hb_aat_apply_context_tE, symObjAddr: 0x6C10, symBinAddr: 0xFC48, symSize: 0x64 }
  - { offsetInCU: 0x620A2, offset: 0x17FD3A, size: 0x8, addend: 0x0, symName: __ZNK3AAT13ChainSubtableINS_13ExtendedTypesEE8dispatchINS_22hb_aat_apply_context_tEJEEENT_8return_tEPS5_DpOT0_, symObjAddr: 0x6E10, symBinAddr: 0xFE48, symSize: 0x54 }
  - { offsetInCU: 0x620F9, offset: 0x17FD91, size: 0x8, addend: 0x0, symName: __ZNK3AAT13ChainSubtableINS_13ExtendedTypesEE8dispatchINS_22hb_aat_apply_context_tEJEEENT_8return_tEPS5_DpOT0_, symObjAddr: 0x6E10, symBinAddr: 0xFE48, symSize: 0x54 }
  - { offsetInCU: 0x62117, offset: 0x17FDAF, size: 0x8, addend: 0x0, symName: __ZNK3AAT13ChainSubtableINS_13ExtendedTypesEE8dispatchINS_22hb_aat_apply_context_tEJEEENT_8return_tEPS5_DpOT0_, symObjAddr: 0x6E10, symBinAddr: 0xFE48, symSize: 0x54 }
  - { offsetInCU: 0x62137, offset: 0x17FDCF, size: 0x8, addend: 0x0, symName: __ZNK3AAT13ChainSubtableINS_13ExtendedTypesEE8dispatchINS_22hb_aat_apply_context_tEJEEENT_8return_tEPS5_DpOT0_, symObjAddr: 0x6E10, symBinAddr: 0xFE48, symSize: 0x54 }
  - { offsetInCU: 0x63587, offset: 0x18121F, size: 0x8, addend: 0x0, symName: __ZN10hb_array_tI15hb_glyph_info_tE7reverseEjj, symObjAddr: 0x6CE8, symBinAddr: 0xFD20, symSize: 0x94 }
  - { offsetInCU: 0x63671, offset: 0x181309, size: 0x8, addend: 0x0, symName: __ZN10hb_array_tI19hb_glyph_position_tE7reverseEjj, symObjAddr: 0x6D7C, symBinAddr: 0xFDB4, symSize: 0x94 }
  - { offsetInCU: 0x638B9, offset: 0x181551, size: 0x8, addend: 0x0, symName: __ZNK3AAT21RearrangementSubtableINS_13ExtendedTypesEE5applyEPNS_22hb_aat_apply_context_tE, symObjAddr: 0x6E64, symBinAddr: 0xFE9C, symSize: 0x58 }
  - { offsetInCU: 0x63A57, offset: 0x1816EF, size: 0x8, addend: 0x0, symName: __ZNK3AAT18ContextualSubtableINS_13ExtendedTypesEE5applyEPNS_22hb_aat_apply_context_tE, symObjAddr: 0x7AAC, symBinAddr: 0x10AE4, symSize: 0x6C }
  - { offsetInCU: 0x63BFF, offset: 0x181897, size: 0x8, addend: 0x0, symName: __ZNK3AAT16LigatureSubtableINS_13ExtendedTypesEE5applyEPNS_22hb_aat_apply_context_tE, symObjAddr: 0x85E4, symBinAddr: 0x1161C, symSize: 0x74 }
  - { offsetInCU: 0x63DA7, offset: 0x181A3F, size: 0x8, addend: 0x0, symName: __ZNK3AAT21NoncontextualSubtableINS_13ExtendedTypesEE5applyEPNS_22hb_aat_apply_context_tE, symObjAddr: 0x8CA8, symBinAddr: 0x11CE0, symSize: 0xEC }
  - { offsetInCU: 0x64062, offset: 0x181CFA, size: 0x8, addend: 0x0, symName: __ZNK3AAT17InsertionSubtableINS_13ExtendedTypesEE5applyEPNS_22hb_aat_apply_context_tE, symObjAddr: 0x8D94, symBinAddr: 0x11DCC, symSize: 0x6C }
  - { offsetInCU: 0x6439C, offset: 0x182034, size: 0x8, addend: 0x0, symName: __ZN3AAT16StateTableDriverINS_13ExtendedTypesEvE5driveINS_21RearrangementSubtableIS1_E16driver_context_tEEEvPT_, symObjAddr: 0x6EBC, symBinAddr: 0xFEF4, symSize: 0x1E8 }
  - { offsetInCU: 0x6487D, offset: 0x182515, size: 0x8, addend: 0x0, symName: __ZNK3AAT10StateTableINS_13ExtendedTypesEvE9get_classEjj, symObjAddr: 0x70A4, symBinAddr: 0x100DC, symSize: 0x48 }
  - { offsetInCU: 0x64A0E, offset: 0x1826A6, size: 0x8, addend: 0x0, symName: __ZNK3AAT10StateTableINS_13ExtendedTypesEvE9get_entryEij, symObjAddr: 0x70EC, symBinAddr: 0x10124, symSize: 0x48 }
  - { offsetInCU: 0x64A87, offset: 0x18271F, size: 0x8, addend: 0x0, symName: __ZNK3AAT10StateTableINS_13ExtendedTypesEvE9get_entryEij, symObjAddr: 0x70EC, symBinAddr: 0x10124, symSize: 0x48 }
  - { offsetInCU: 0x64AA5, offset: 0x18273D, size: 0x8, addend: 0x0, symName: __ZNK3AAT10StateTableINS_13ExtendedTypesEvE9get_entryEij, symObjAddr: 0x70EC, symBinAddr: 0x10124, symSize: 0x48 }
  - { offsetInCU: 0x64C62, offset: 0x1828FA, size: 0x8, addend: 0x0, symName: __ZN11hb_buffer_t16_set_glyph_flagsEjjjbb, symObjAddr: 0x7858, symBinAddr: 0x10890, symSize: 0x254 }
  - { offsetInCU: 0x64CE3, offset: 0x18297B, size: 0x8, addend: 0x0, symName: __ZN11hb_buffer_t16_set_glyph_flagsEjjjbb, symObjAddr: 0x7858, symBinAddr: 0x10890, symSize: 0x254 }
  - { offsetInCU: 0x6504F, offset: 0x182CE7, size: 0x8, addend: 0x0, symName: __ZN3AAT21RearrangementSubtableINS_13ExtendedTypesEE16driver_context_t10transitionEPNS_16StateTableDriverIS1_vEERKNS_5EntryIvEE, symObjAddr: 0x7134, symBinAddr: 0x1016C, symSize: 0x2C0 }
  - { offsetInCU: 0x65280, offset: 0x182F18, size: 0x8, addend: 0x0, symName: __ZN11hb_buffer_t10next_glyphEv, symObjAddr: 0x73F4, symBinAddr: 0x1042C, symSize: 0x98 }
  - { offsetInCU: 0x65354, offset: 0x182FEC, size: 0x8, addend: 0x0, symName: __ZNK3AAT6LookupIN2OT7IntTypeItLj2EEEE9get_valueEjj, symObjAddr: 0x748C, symBinAddr: 0x104C4, symSize: 0xD8 }
  - { offsetInCU: 0x6576F, offset: 0x183407, size: 0x8, addend: 0x0, symName: __ZNK2OT24VarSizedBinSearchArrayOfIN3AAT19LookupSegmentSingleINS_7IntTypeItLj2EEEEEE7bsearchIjEEPKS5_RKT_, symObjAddr: 0x75E0, symBinAddr: 0x10618, symSize: 0xA4 }
  - { offsetInCU: 0x6595F, offset: 0x1835F7, size: 0x8, addend: 0x0, symName: __ZNK3AAT13LookupFormat4IN2OT7IntTypeItLj2EEEE9get_valueEj, symObjAddr: 0x7564, symBinAddr: 0x1059C, symSize: 0x7C }
  - { offsetInCU: 0x65B8E, offset: 0x183826, size: 0x8, addend: 0x0, symName: __ZNK2OT24VarSizedBinSearchArrayOfIN3AAT12LookupSingleINS_7IntTypeItLj2EEEEEE7bsearchIjEEPKS5_RKT_, symObjAddr: 0x7784, symBinAddr: 0x107BC, symSize: 0x98 }
  - { offsetInCU: 0x65D6C, offset: 0x183A04, size: 0x8, addend: 0x0, symName: __ZNK2OT24VarSizedBinSearchArrayOfIN3AAT18LookupSegmentArrayINS_7IntTypeItLj2EEEEEE7bsearchIjEEPKS5_RKT_, symObjAddr: 0x76E0, symBinAddr: 0x10718, symSize: 0xA4 }
  - { offsetInCU: 0x660B5, offset: 0x183D4D, size: 0x8, addend: 0x0, symName: __ZNK2OT24VarSizedBinSearchArrayOfIN3AAT19LookupSegmentSingleINS_7IntTypeItLj2EEEEEE18last_is_terminatorEv, symObjAddr: 0x7684, symBinAddr: 0x106BC, symSize: 0x5C }
  - { offsetInCU: 0x66101, offset: 0x183D99, size: 0x8, addend: 0x0, symName: __ZNK2OT24VarSizedBinSearchArrayOfIN3AAT19LookupSegmentSingleINS_7IntTypeItLj2EEEEEE18last_is_terminatorEv, symObjAddr: 0x7684, symBinAddr: 0x106BC, symSize: 0x5C }
  - { offsetInCU: 0x66121, offset: 0x183DB9, size: 0x8, addend: 0x0, symName: __ZNK2OT24VarSizedBinSearchArrayOfIN3AAT19LookupSegmentSingleINS_7IntTypeItLj2EEEEEE18last_is_terminatorEv, symObjAddr: 0x7684, symBinAddr: 0x106BC, symSize: 0x5C }
  - { offsetInCU: 0x66339, offset: 0x183FD1, size: 0x8, addend: 0x0, symName: __ZNK2OT24VarSizedBinSearchArrayOfIN3AAT12LookupSingleINS_7IntTypeItLj2EEEEEE18last_is_terminatorEv, symObjAddr: 0x781C, symBinAddr: 0x10854, symSize: 0x3C }
  - { offsetInCU: 0x66385, offset: 0x18401D, size: 0x8, addend: 0x0, symName: __ZNK2OT24VarSizedBinSearchArrayOfIN3AAT12LookupSingleINS_7IntTypeItLj2EEEEEE18last_is_terminatorEv, symObjAddr: 0x781C, symBinAddr: 0x10854, symSize: 0x3C }
  - { offsetInCU: 0x663A5, offset: 0x18403D, size: 0x8, addend: 0x0, symName: __ZNK2OT24VarSizedBinSearchArrayOfIN3AAT12LookupSingleINS_7IntTypeItLj2EEEEEE18last_is_terminatorEv, symObjAddr: 0x781C, symBinAddr: 0x10854, symSize: 0x3C }
  - { offsetInCU: 0x66667, offset: 0x1842FF, size: 0x8, addend: 0x0, symName: __ZN3AAT18ContextualSubtableINS_13ExtendedTypesEE16driver_context_tC2EPKS2_PNS_22hb_aat_apply_context_tE, symObjAddr: 0x7CF8, symBinAddr: 0x10D30, symSize: 0x54 }
  - { offsetInCU: 0x66802, offset: 0x18449A, size: 0x8, addend: 0x0, symName: __ZN3AAT16StateTableDriverINS_13ExtendedTypesENS_18ContextualSubtableIS1_E9EntryDataEE5driveINS3_16driver_context_tEEEvPT_, symObjAddr: 0x7B18, symBinAddr: 0x10B50, symSize: 0x1E0 }
  - { offsetInCU: 0x66B87, offset: 0x18481F, size: 0x8, addend: 0x0, symName: __ZNK3AAT10StateTableINS_13ExtendedTypesENS_18ContextualSubtableIS1_E9EntryDataEE9get_classEjj, symObjAddr: 0x7D4C, symBinAddr: 0x10D84, symSize: 0x48 }
  - { offsetInCU: 0x66D18, offset: 0x1849B0, size: 0x8, addend: 0x0, symName: __ZNK3AAT10StateTableINS_13ExtendedTypesENS_18ContextualSubtableIS1_E9EntryDataEE9get_entryEij, symObjAddr: 0x7D94, symBinAddr: 0x10DCC, symSize: 0x48 }
  - { offsetInCU: 0x66D91, offset: 0x184A29, size: 0x8, addend: 0x0, symName: __ZNK3AAT10StateTableINS_13ExtendedTypesENS_18ContextualSubtableIS1_E9EntryDataEE9get_entryEij, symObjAddr: 0x7D94, symBinAddr: 0x10DCC, symSize: 0x48 }
  - { offsetInCU: 0x66DAF, offset: 0x184A47, size: 0x8, addend: 0x0, symName: __ZNK3AAT10StateTableINS_13ExtendedTypesENS_18ContextualSubtableIS1_E9EntryDataEE9get_entryEij, symObjAddr: 0x7D94, symBinAddr: 0x10DCC, symSize: 0x48 }
  - { offsetInCU: 0x66F6C, offset: 0x184C04, size: 0x8, addend: 0x0, symName: __ZN3AAT18ContextualSubtableINS_13ExtendedTypesEE16driver_context_t13is_actionableEPNS_16StateTableDriverIS1_NS2_9EntryDataEEERKNS_5EntryIS5_EE, symObjAddr: 0x7DDC, symBinAddr: 0x10E14, symSize: 0x50 }
  - { offsetInCU: 0x6703E, offset: 0x184CD6, size: 0x8, addend: 0x0, symName: __ZN3AAT18ContextualSubtableINS_13ExtendedTypesEE16driver_context_t10transitionEPNS_16StateTableDriverIS1_NS2_9EntryDataEEERKNS_5EntryIS5_EE, symObjAddr: 0x7E2C, symBinAddr: 0x10E64, symSize: 0x1C0 }
  - { offsetInCU: 0x6777D, offset: 0x185415, size: 0x8, addend: 0x0, symName: __ZNK3AAT6LookupIN2OT11HBGlyphID16EE9get_valueEjj, symObjAddr: 0x7FEC, symBinAddr: 0x11024, symSize: 0xD8 }
  - { offsetInCU: 0x679C0, offset: 0x185658, size: 0x8, addend: 0x0, symName: __ZNK2OT4GDEF15get_glyph_propsEj, symObjAddr: 0x80C4, symBinAddr: 0x110FC, symSize: 0x60 }
  - { offsetInCU: 0x67B2F, offset: 0x1857C7, size: 0x8, addend: 0x0, symName: __ZNK2OT24VarSizedBinSearchArrayOfIN3AAT19LookupSegmentSingleINS_11HBGlyphID16EEEE7bsearchIjEEPKS4_RKT_, symObjAddr: 0x81A0, symBinAddr: 0x111D8, symSize: 0xA4 }
  - { offsetInCU: 0x67D1F, offset: 0x1859B7, size: 0x8, addend: 0x0, symName: __ZNK3AAT13LookupFormat4IN2OT11HBGlyphID16EE9get_valueEj, symObjAddr: 0x8124, symBinAddr: 0x1115C, symSize: 0x7C }
  - { offsetInCU: 0x67F4E, offset: 0x185BE6, size: 0x8, addend: 0x0, symName: __ZNK2OT24VarSizedBinSearchArrayOfIN3AAT12LookupSingleINS_11HBGlyphID16EEEE7bsearchIjEEPKS4_RKT_, symObjAddr: 0x8344, symBinAddr: 0x1137C, symSize: 0x98 }
  - { offsetInCU: 0x680DC, offset: 0x185D74, size: 0x8, addend: 0x0, symName: __ZNK2OT4GDEF15get_glyph_classEj, symObjAddr: 0x8418, symBinAddr: 0x11450, symSize: 0x34 }
  - { offsetInCU: 0x6822B, offset: 0x185EC3, size: 0x8, addend: 0x0, symName: __ZNK2OT4GDEF24get_mark_attachment_typeEj, symObjAddr: 0x844C, symBinAddr: 0x11484, symSize: 0x34 }
  - { offsetInCU: 0x683FE, offset: 0x186096, size: 0x8, addend: 0x0, symName: __ZNK2OT24VarSizedBinSearchArrayOfIN3AAT18LookupSegmentArrayINS_11HBGlyphID16EEEE7bsearchIjEEPKS4_RKT_, symObjAddr: 0x82A0, symBinAddr: 0x112D8, symSize: 0xA4 }
  - { offsetInCU: 0x68688, offset: 0x186320, size: 0x8, addend: 0x0, symName: __ZNK2OT24VarSizedBinSearchArrayOfIN3AAT19LookupSegmentSingleINS_11HBGlyphID16EEEE18last_is_terminatorEv, symObjAddr: 0x8244, symBinAddr: 0x1127C, symSize: 0x5C }
  - { offsetInCU: 0x686D4, offset: 0x18636C, size: 0x8, addend: 0x0, symName: __ZNK2OT24VarSizedBinSearchArrayOfIN3AAT19LookupSegmentSingleINS_11HBGlyphID16EEEE18last_is_terminatorEv, symObjAddr: 0x8244, symBinAddr: 0x1127C, symSize: 0x5C }
  - { offsetInCU: 0x686F4, offset: 0x18638C, size: 0x8, addend: 0x0, symName: __ZNK2OT24VarSizedBinSearchArrayOfIN3AAT19LookupSegmentSingleINS_11HBGlyphID16EEEE18last_is_terminatorEv, symObjAddr: 0x8244, symBinAddr: 0x1127C, symSize: 0x5C }
  - { offsetInCU: 0x688CD, offset: 0x186565, size: 0x8, addend: 0x0, symName: __ZNK2OT24VarSizedBinSearchArrayOfIN3AAT12LookupSingleINS_11HBGlyphID16EEEE18last_is_terminatorEv, symObjAddr: 0x83DC, symBinAddr: 0x11414, symSize: 0x3C }
  - { offsetInCU: 0x68919, offset: 0x1865B1, size: 0x8, addend: 0x0, symName: __ZNK2OT24VarSizedBinSearchArrayOfIN3AAT12LookupSingleINS_11HBGlyphID16EEEE18last_is_terminatorEv, symObjAddr: 0x83DC, symBinAddr: 0x11414, symSize: 0x3C }
  - { offsetInCU: 0x68939, offset: 0x1865D1, size: 0x8, addend: 0x0, symName: __ZNK2OT24VarSizedBinSearchArrayOfIN3AAT12LookupSingleINS_11HBGlyphID16EEEE18last_is_terminatorEv, symObjAddr: 0x83DC, symBinAddr: 0x11414, symSize: 0x3C }
  - { offsetInCU: 0x68A35, offset: 0x1866CD, size: 0x8, addend: 0x0, symName: __ZNK2OT8ClassDef9get_classEj, symObjAddr: 0x8480, symBinAddr: 0x114B8, symSize: 0x90 }
  - { offsetInCU: 0x68D12, offset: 0x1869AA, size: 0x8, addend: 0x0, symName: __ZNK2OT13SortedArrayOfINS_6Layout6Common11RangeRecordINS1_10SmallTypesEEENS_7IntTypeItLj2EEEE7bsearchIjEERKS5_RKT_SB_, symObjAddr: 0x8510, symBinAddr: 0x11548, symSize: 0x54 }
  - { offsetInCU: 0x68F27, offset: 0x186BBF, size: 0x8, addend: 0x0, symName: __ZNK17hb_sorted_array_tIKN2OT6Layout6Common11RangeRecordINS1_10SmallTypesEEEE12bsearch_implIjJEEEbRKT_PjDpT0_, symObjAddr: 0x8564, symBinAddr: 0x1159C, symSize: 0x80 }
  - { offsetInCU: 0x692A0, offset: 0x186F38, size: 0x8, addend: 0x0, symName: __ZN3AAT16LigatureSubtableINS_13ExtendedTypesEE16driver_context_tC2EPKS2_PNS_22hb_aat_apply_context_tE, symObjAddr: 0x8810, symBinAddr: 0x11848, symSize: 0x40 }
  - { offsetInCU: 0x6951A, offset: 0x1871B2, size: 0x8, addend: 0x0, symName: __ZN3AAT16StateTableDriverINS_13ExtendedTypesENS_13LigatureEntryILb1EE9EntryDataEE5driveINS_16LigatureSubtableIS1_E16driver_context_tEEEvPT_, symObjAddr: 0x8658, symBinAddr: 0x11690, symSize: 0x1B8 }
  - { offsetInCU: 0x69995, offset: 0x18762D, size: 0x8, addend: 0x0, symName: __ZNK3AAT10StateTableINS_13ExtendedTypesENS_13LigatureEntryILb1EE9EntryDataEE9get_classEjj, symObjAddr: 0x8850, symBinAddr: 0x11888, symSize: 0x48 }
  - { offsetInCU: 0x69B26, offset: 0x1877BE, size: 0x8, addend: 0x0, symName: __ZNK3AAT10StateTableINS_13ExtendedTypesENS_13LigatureEntryILb1EE9EntryDataEE9get_entryEij, symObjAddr: 0x8898, symBinAddr: 0x118D0, symSize: 0x40 }
  - { offsetInCU: 0x69B9F, offset: 0x187837, size: 0x8, addend: 0x0, symName: __ZNK3AAT10StateTableINS_13ExtendedTypesENS_13LigatureEntryILb1EE9EntryDataEE9get_entryEij, symObjAddr: 0x8898, symBinAddr: 0x118D0, symSize: 0x40 }
  - { offsetInCU: 0x69BBD, offset: 0x187855, size: 0x8, addend: 0x0, symName: __ZNK3AAT10StateTableINS_13ExtendedTypesENS_13LigatureEntryILb1EE9EntryDataEE9get_entryEij, symObjAddr: 0x8898, symBinAddr: 0x118D0, symSize: 0x40 }
  - { offsetInCU: 0x69D68, offset: 0x187A00, size: 0x8, addend: 0x0, symName: __ZN3AAT16LigatureSubtableINS_13ExtendedTypesEE16driver_context_t10transitionEPNS_16StateTableDriverIS1_NS_13LigatureEntryILb1EE9EntryDataEEERKNS_5EntryIS7_EE, symObjAddr: 0x88D8, symBinAddr: 0x11910, symSize: 0x2E8 }
  - { offsetInCU: 0x6A593, offset: 0x18822B, size: 0x8, addend: 0x0, symName: __ZN11hb_buffer_t14replace_glyphsIjEEbjjPKT_, symObjAddr: 0x8BC0, symBinAddr: 0x11BF8, symSize: 0xE8 }
  - { offsetInCU: 0x6A7B2, offset: 0x18844A, size: 0x8, addend: 0x0, symName: __ZN3AAT16StateTableDriverINS_13ExtendedTypesENS_17InsertionSubtableIS1_E9EntryDataEE5driveINS3_16driver_context_tEEEvPT_, symObjAddr: 0x8E00, symBinAddr: 0x11E38, symSize: 0x234 }
  - { offsetInCU: 0x6AD41, offset: 0x1889D9, size: 0x8, addend: 0x0, symName: __ZNK3AAT10StateTableINS_13ExtendedTypesENS_17InsertionSubtableIS1_E9EntryDataEE9get_classEjj, symObjAddr: 0x9034, symBinAddr: 0x1206C, symSize: 0x48 }
  - { offsetInCU: 0x6AED2, offset: 0x188B6A, size: 0x8, addend: 0x0, symName: __ZNK3AAT10StateTableINS_13ExtendedTypesENS_17InsertionSubtableIS1_E9EntryDataEE9get_entryEij, symObjAddr: 0x907C, symBinAddr: 0x120B4, symSize: 0x48 }
  - { offsetInCU: 0x6AF4B, offset: 0x188BE3, size: 0x8, addend: 0x0, symName: __ZNK3AAT10StateTableINS_13ExtendedTypesENS_17InsertionSubtableIS1_E9EntryDataEE9get_entryEij, symObjAddr: 0x907C, symBinAddr: 0x120B4, symSize: 0x48 }
  - { offsetInCU: 0x6AF69, offset: 0x188C01, size: 0x8, addend: 0x0, symName: __ZNK3AAT10StateTableINS_13ExtendedTypesENS_17InsertionSubtableIS1_E9EntryDataEE9get_entryEij, symObjAddr: 0x907C, symBinAddr: 0x120B4, symSize: 0x48 }
  - { offsetInCU: 0x6B125, offset: 0x188DBD, size: 0x8, addend: 0x0, symName: __ZN3AAT17InsertionSubtableINS_13ExtendedTypesEE16driver_context_t10transitionEPNS_16StateTableDriverIS1_NS2_9EntryDataEEERKNS_5EntryIS5_EE, symObjAddr: 0x90C4, symBinAddr: 0x120FC, symSize: 0x294 }
  - { offsetInCU: 0x6B70C, offset: 0x1893A4, size: 0x8, addend: 0x0, symName: __ZN11hb_buffer_t10copy_glyphEv, symObjAddr: 0x9358, symBinAddr: 0x12390, symSize: 0x80 }
  - { offsetInCU: 0x6B780, offset: 0x189418, size: 0x8, addend: 0x0, symName: __ZN11hb_buffer_t14replace_glyphsIN2OT11HBGlyphID16EEEbjjPKT_, symObjAddr: 0x93D8, symBinAddr: 0x12410, symSize: 0xF4 }
  - { offsetInCU: 0x6B908, offset: 0x1895A0, size: 0x8, addend: 0x0, symName: __ZNK3AAT13ChainSubtableINS_13ObsoleteTypesEE5applyEPNS_22hb_aat_apply_context_tE, symObjAddr: 0x9644, symBinAddr: 0x1267C, symSize: 0x64 }
  - { offsetInCU: 0x6BA58, offset: 0x1896F0, size: 0x8, addend: 0x0, symName: __ZNK3AAT13ChainSubtableINS_13ObsoleteTypesEE8dispatchINS_22hb_aat_apply_context_tEJEEENT_8return_tEPS5_DpOT0_, symObjAddr: 0x96A8, symBinAddr: 0x126E0, symSize: 0x54 }
  - { offsetInCU: 0x6BAAF, offset: 0x189747, size: 0x8, addend: 0x0, symName: __ZNK3AAT13ChainSubtableINS_13ObsoleteTypesEE8dispatchINS_22hb_aat_apply_context_tEJEEENT_8return_tEPS5_DpOT0_, symObjAddr: 0x96A8, symBinAddr: 0x126E0, symSize: 0x54 }
  - { offsetInCU: 0x6BACD, offset: 0x189765, size: 0x8, addend: 0x0, symName: __ZNK3AAT13ChainSubtableINS_13ObsoleteTypesEE8dispatchINS_22hb_aat_apply_context_tEJEEENT_8return_tEPS5_DpOT0_, symObjAddr: 0x96A8, symBinAddr: 0x126E0, symSize: 0x54 }
  - { offsetInCU: 0x6BAED, offset: 0x189785, size: 0x8, addend: 0x0, symName: __ZNK3AAT13ChainSubtableINS_13ObsoleteTypesEE8dispatchINS_22hb_aat_apply_context_tEJEEENT_8return_tEPS5_DpOT0_, symObjAddr: 0x96A8, symBinAddr: 0x126E0, symSize: 0x54 }
  - { offsetInCU: 0x6BD05, offset: 0x18999D, size: 0x8, addend: 0x0, symName: __ZNK3AAT21RearrangementSubtableINS_13ObsoleteTypesEE5applyEPNS_22hb_aat_apply_context_tE, symObjAddr: 0x96FC, symBinAddr: 0x12734, symSize: 0x58 }
  - { offsetInCU: 0x6BEA3, offset: 0x189B3B, size: 0x8, addend: 0x0, symName: __ZNK3AAT18ContextualSubtableINS_13ObsoleteTypesEE5applyEPNS_22hb_aat_apply_context_tE, symObjAddr: 0x9C94, symBinAddr: 0x12CCC, symSize: 0x98 }
  - { offsetInCU: 0x6C163, offset: 0x189DFB, size: 0x8, addend: 0x0, symName: __ZNK3AAT16LigatureSubtableINS_13ObsoleteTypesEE5applyEPNS_22hb_aat_apply_context_tE, symObjAddr: 0xA27C, symBinAddr: 0x132B4, symSize: 0x90 }
  - { offsetInCU: 0x6C4FD, offset: 0x18A195, size: 0x8, addend: 0x0, symName: __ZNK3AAT21NoncontextualSubtableINS_13ObsoleteTypesEE5applyEPNS_22hb_aat_apply_context_tE, symObjAddr: 0xA848, symBinAddr: 0x13880, symSize: 0xEC }
  - { offsetInCU: 0x6C7B8, offset: 0x18A450, size: 0x8, addend: 0x0, symName: __ZNK3AAT17InsertionSubtableINS_13ObsoleteTypesEE5applyEPNS_22hb_aat_apply_context_tE, symObjAddr: 0xA934, symBinAddr: 0x1396C, symSize: 0x6C }
  - { offsetInCU: 0x6CAF2, offset: 0x18A78A, size: 0x8, addend: 0x0, symName: __ZN3AAT16StateTableDriverINS_13ObsoleteTypesEvE5driveINS_21RearrangementSubtableIS1_E16driver_context_tEEEvPT_, symObjAddr: 0x9754, symBinAddr: 0x1278C, symSize: 0x230 }
  - { offsetInCU: 0x6D2D0, offset: 0x18AF68, size: 0x8, addend: 0x0, symName: __ZNK3AAT10StateTableINS_13ObsoleteTypesEvE9get_classEjj, symObjAddr: 0x9984, symBinAddr: 0x129BC, symSize: 0x50 }
  - { offsetInCU: 0x6D4EF, offset: 0x18B187, size: 0x8, addend: 0x0, symName: __ZN3AAT21RearrangementSubtableINS_13ObsoleteTypesEE16driver_context_t10transitionEPNS_16StateTableDriverIS1_vEERKNS_5EntryIvEE, symObjAddr: 0x99D4, symBinAddr: 0x12A0C, symSize: 0x2C0 }
  - { offsetInCU: 0x6D93F, offset: 0x18B5D7, size: 0x8, addend: 0x0, symName: __ZN3AAT16StateTableDriverINS_13ObsoleteTypesENS_18ContextualSubtableIS1_E9EntryDataEE5driveINS3_16driver_context_tEEEvPT_, symObjAddr: 0x9D2C, symBinAddr: 0x12D64, symSize: 0x27C }
  - { offsetInCU: 0x6E40D, offset: 0x18C0A5, size: 0x8, addend: 0x0, symName: __ZNK3AAT10StateTableINS_13ObsoleteTypesENS_18ContextualSubtableIS1_E9EntryDataEE9get_classEjj, symObjAddr: 0x9FA8, symBinAddr: 0x12FE0, symSize: 0x50 }
  - { offsetInCU: 0x6E62D, offset: 0x18C2C5, size: 0x8, addend: 0x0, symName: __ZN3AAT18ContextualSubtableINS_13ObsoleteTypesEE16driver_context_t13is_actionableEPNS_16StateTableDriverIS1_NS2_9EntryDataEEERKNS_5EntryIS5_EE, symObjAddr: 0x9FF8, symBinAddr: 0x13030, symSize: 0x50 }
  - { offsetInCU: 0x6E6FF, offset: 0x18C397, size: 0x8, addend: 0x0, symName: __ZN3AAT18ContextualSubtableINS_13ObsoleteTypesEE16driver_context_t10transitionEPNS_16StateTableDriverIS1_NS2_9EntryDataEEERKNS_5EntryIS5_EE, symObjAddr: 0xA048, symBinAddr: 0x13080, symSize: 0x234 }
  - { offsetInCU: 0x6EE25, offset: 0x18CABD, size: 0x8, addend: 0x0, symName: __ZN3AAT16StateTableDriverINS_13ObsoleteTypesEvE5driveINS_16LigatureSubtableIS1_E16driver_context_tEEEvPT_, symObjAddr: 0xA30C, symBinAddr: 0x13344, symSize: 0x220 }
  - { offsetInCU: 0x6F586, offset: 0x18D21E, size: 0x8, addend: 0x0, symName: __ZN3AAT16LigatureSubtableINS_13ObsoleteTypesEE16driver_context_t10transitionEPNS_16StateTableDriverIS1_vEERKNS_5EntryIvEE, symObjAddr: 0xA52C, symBinAddr: 0x13564, symSize: 0x31C }
  - { offsetInCU: 0x6FE22, offset: 0x18DABA, size: 0x8, addend: 0x0, symName: __ZN3AAT16StateTableDriverINS_13ObsoleteTypesENS_17InsertionSubtableIS1_E9EntryDataEE5driveINS3_16driver_context_tEEEvPT_, symObjAddr: 0xA9A0, symBinAddr: 0x139D8, symSize: 0x284 }
  - { offsetInCU: 0x706F8, offset: 0x18E390, size: 0x8, addend: 0x0, symName: __ZNK3AAT10StateTableINS_13ObsoleteTypesENS_17InsertionSubtableIS1_E9EntryDataEE9get_classEjj, symObjAddr: 0xAC24, symBinAddr: 0x13C5C, symSize: 0x50 }
  - { offsetInCU: 0x70917, offset: 0x18E5AF, size: 0x8, addend: 0x0, symName: __ZN3AAT17InsertionSubtableINS_13ObsoleteTypesEE16driver_context_t10transitionEPNS_16StateTableDriverIS1_NS2_9EntryDataEEERKNS_5EntryIS5_EE, symObjAddr: 0xAC74, symBinAddr: 0x13CAC, symSize: 0x294 }
  - { offsetInCU: 0x70EE6, offset: 0x18EB7E, size: 0x8, addend: 0x0, symName: __ZNK17hb_data_wrapper_tI9hb_face_tLj29EE11call_createI9hb_blob_t22hb_table_lazy_loader_tIN3AAT4kerxELj29ELb0EEEEPT_v, symObjAddr: 0xAF7C, symBinAddr: 0x13FB4, symSize: 0x50 }
  - { offsetInCU: 0x70FD8, offset: 0x18EC70, size: 0x8, addend: 0x0, symName: __ZN16hb_lazy_loader_tIN3AAT4kerxE22hb_table_lazy_loader_tIS1_Lj29ELb0EE9hb_face_tLj29E9hb_blob_tE10do_destroyEPS5_, symObjAddr: 0xAFCC, symBinAddr: 0x14004, symSize: 0x3C }
  - { offsetInCU: 0x71077, offset: 0x18ED0F, size: 0x8, addend: 0x0, symName: __ZN21hb_sanitize_context_t15reference_tableIN3AAT4kerxEEEP9hb_blob_tPK9hb_face_tj, symObjAddr: 0xB008, symBinAddr: 0x14040, symSize: 0x5C }
  - { offsetInCU: 0x7114F, offset: 0x18EDE7, size: 0x8, addend: 0x0, symName: __ZN21hb_sanitize_context_t13sanitize_blobIN3AAT4kerxEEEP9hb_blob_tS4_, symObjAddr: 0xB064, symBinAddr: 0x1409C, symSize: 0x168 }
  - { offsetInCU: 0x713C2, offset: 0x18F05A, size: 0x8, addend: 0x0, symName: __ZNK3AAT12KerxSubTable8sanitizeEP21hb_sanitize_context_t, symObjAddr: 0xB350, symBinAddr: 0x14388, symSize: 0x64 }
  - { offsetInCU: 0x71408, offset: 0x18F0A0, size: 0x8, addend: 0x0, symName: __ZNK3AAT12KerxSubTable8sanitizeEP21hb_sanitize_context_t, symObjAddr: 0xB350, symBinAddr: 0x14388, symSize: 0x64 }
  - { offsetInCU: 0x7142E, offset: 0x18F0C6, size: 0x8, addend: 0x0, symName: __ZNK3AAT12KerxSubTable8sanitizeEP21hb_sanitize_context_t, symObjAddr: 0xB350, symBinAddr: 0x14388, symSize: 0x64 }
  - { offsetInCU: 0x71454, offset: 0x18F0EC, size: 0x8, addend: 0x0, symName: __ZNK3AAT12KerxSubTable8sanitizeEP21hb_sanitize_context_t, symObjAddr: 0xB350, symBinAddr: 0x14388, symSize: 0x64 }
  - { offsetInCU: 0x7150B, offset: 0x18F1A3, size: 0x8, addend: 0x0, symName: __ZNK3AAT12KerxSubTable8dispatchI21hb_sanitize_context_tJEEENT_8return_tEPS3_DpOT0_, symObjAddr: 0xB40C, symBinAddr: 0x14444, symSize: 0x44 }
  - { offsetInCU: 0x71562, offset: 0x18F1FA, size: 0x8, addend: 0x0, symName: __ZNK3AAT12KerxSubTable8dispatchI21hb_sanitize_context_tJEEENT_8return_tEPS3_DpOT0_, symObjAddr: 0xB40C, symBinAddr: 0x14444, symSize: 0x44 }
  - { offsetInCU: 0x71580, offset: 0x18F218, size: 0x8, addend: 0x0, symName: __ZNK3AAT12KerxSubTable8dispatchI21hb_sanitize_context_tJEEENT_8return_tEPS3_DpOT0_, symObjAddr: 0xB40C, symBinAddr: 0x14444, symSize: 0x44 }
  - { offsetInCU: 0x715A0, offset: 0x18F238, size: 0x8, addend: 0x0, symName: __ZNK3AAT12KerxSubTable8dispatchI21hb_sanitize_context_tJEEENT_8return_tEPS3_DpOT0_, symObjAddr: 0xB40C, symBinAddr: 0x14444, symSize: 0x44 }
  - { offsetInCU: 0x71AA6, offset: 0x18F73E, size: 0x8, addend: 0x0, symName: __ZNK2OT7ArrayOfIN3AAT8KernPairENS_15BinSearchHeaderINS_7IntTypeIjLj4EEEEEE16sanitize_shallowEP21hb_sanitize_context_t, symObjAddr: 0xB450, symBinAddr: 0x14488, symSize: 0x9C }
  - { offsetInCU: 0x71AEC, offset: 0x18F784, size: 0x8, addend: 0x0, symName: __ZNK2OT7ArrayOfIN3AAT8KernPairENS_15BinSearchHeaderINS_7IntTypeIjLj4EEEEEE16sanitize_shallowEP21hb_sanitize_context_t, symObjAddr: 0xB450, symBinAddr: 0x14488, symSize: 0x9C }
  - { offsetInCU: 0x71B12, offset: 0x18F7AA, size: 0x8, addend: 0x0, symName: __ZNK2OT7ArrayOfIN3AAT8KernPairENS_15BinSearchHeaderINS_7IntTypeIjLj4EEEEEE16sanitize_shallowEP21hb_sanitize_context_t, symObjAddr: 0xB450, symBinAddr: 0x14488, symSize: 0x9C }
  - { offsetInCU: 0x71B38, offset: 0x18F7D0, size: 0x8, addend: 0x0, symName: __ZNK2OT7ArrayOfIN3AAT8KernPairENS_15BinSearchHeaderINS_7IntTypeIjLj4EEEEEE16sanitize_shallowEP21hb_sanitize_context_t, symObjAddr: 0xB450, symBinAddr: 0x14488, symSize: 0x9C }
  - { offsetInCU: 0x71C9C, offset: 0x18F934, size: 0x8, addend: 0x0, symName: __ZNK3AAT19KerxSubTableFormat1INS_18KerxSubTableHeaderEE8sanitizeEP21hb_sanitize_context_t, symObjAddr: 0xB4EC, symBinAddr: 0x14524, symSize: 0x4C }
  - { offsetInCU: 0x71CE2, offset: 0x18F97A, size: 0x8, addend: 0x0, symName: __ZNK3AAT19KerxSubTableFormat1INS_18KerxSubTableHeaderEE8sanitizeEP21hb_sanitize_context_t, symObjAddr: 0xB4EC, symBinAddr: 0x14524, symSize: 0x4C }
  - { offsetInCU: 0x71D08, offset: 0x18F9A0, size: 0x8, addend: 0x0, symName: __ZNK3AAT19KerxSubTableFormat1INS_18KerxSubTableHeaderEE8sanitizeEP21hb_sanitize_context_t, symObjAddr: 0xB4EC, symBinAddr: 0x14524, symSize: 0x4C }
  - { offsetInCU: 0x71D50, offset: 0x18F9E8, size: 0x8, addend: 0x0, symName: __ZNK3AAT19KerxSubTableFormat2INS_18KerxSubTableHeaderEE8sanitizeEP21hb_sanitize_context_t, symObjAddr: 0xB778, symBinAddr: 0x147B0, symSize: 0xD4 }
  - { offsetInCU: 0x71EC5, offset: 0x18FB5D, size: 0x8, addend: 0x0, symName: __ZNK3AAT19KerxSubTableFormat4INS_18KerxSubTableHeaderEE8sanitizeEP21hb_sanitize_context_t, symObjAddr: 0xB84C, symBinAddr: 0x14884, symSize: 0x4C }
  - { offsetInCU: 0x71F0B, offset: 0x18FBA3, size: 0x8, addend: 0x0, symName: __ZNK3AAT19KerxSubTableFormat4INS_18KerxSubTableHeaderEE8sanitizeEP21hb_sanitize_context_t, symObjAddr: 0xB84C, symBinAddr: 0x14884, symSize: 0x4C }
  - { offsetInCU: 0x71F31, offset: 0x18FBC9, size: 0x8, addend: 0x0, symName: __ZNK3AAT19KerxSubTableFormat4INS_18KerxSubTableHeaderEE8sanitizeEP21hb_sanitize_context_t, symObjAddr: 0xB84C, symBinAddr: 0x14884, symSize: 0x4C }
  - { offsetInCU: 0x71F79, offset: 0x18FC11, size: 0x8, addend: 0x0, symName: __ZNK3AAT19KerxSubTableFormat6INS_18KerxSubTableHeaderEE8sanitizeEP21hb_sanitize_context_t, symObjAddr: 0xBAD8, symBinAddr: 0x14B10, symSize: 0x1A0 }
  - { offsetInCU: 0x723E5, offset: 0x19007D, size: 0x8, addend: 0x0, symName: __ZNK3AAT10StateTableINS_13ExtendedTypesENS_12Format1EntryILb1EE9EntryDataEE8sanitizeEP21hb_sanitize_context_tPj, symObjAddr: 0xB538, symBinAddr: 0x14570, symSize: 0x240 }
  - { offsetInCU: 0x729AE, offset: 0x190646, size: 0x8, addend: 0x0, symName: __ZNK3AAT10StateTableINS_13ExtendedTypesENS_19KerxSubTableFormat4INS_18KerxSubTableHeaderEE9EntryDataEE8sanitizeEP21hb_sanitize_context_tPj, symObjAddr: 0xB898, symBinAddr: 0x148D0, symSize: 0x240 }
  - { offsetInCU: 0x72F77, offset: 0x190C0F, size: 0x8, addend: 0x0, symName: __ZNK2OT8OffsetToIN3AAT6LookupINS_7IntTypeIjLj4EEEEES4_Lb0EE8sanitizeIJEEEbP21hb_sanitize_context_tPKvDpOT_, symObjAddr: 0xBC78, symBinAddr: 0x14CB0, symSize: 0x50 }
  - { offsetInCU: 0x72FCC, offset: 0x190C64, size: 0x8, addend: 0x0, symName: __ZNK2OT8OffsetToIN3AAT6LookupINS_7IntTypeIjLj4EEEEES4_Lb0EE8sanitizeIJEEEbP21hb_sanitize_context_tPKvDpOT_, symObjAddr: 0xBC78, symBinAddr: 0x14CB0, symSize: 0x50 }
  - { offsetInCU: 0x72FFA, offset: 0x190C92, size: 0x8, addend: 0x0, symName: __ZNK2OT8OffsetToIN3AAT6LookupINS_7IntTypeIjLj4EEEEES4_Lb0EE8sanitizeIJEEEbP21hb_sanitize_context_tPKvDpOT_, symObjAddr: 0xBC78, symBinAddr: 0x14CB0, symSize: 0x50 }
  - { offsetInCU: 0x73020, offset: 0x190CB8, size: 0x8, addend: 0x0, symName: __ZNK2OT8OffsetToIN3AAT6LookupINS_7IntTypeIjLj4EEEEES4_Lb0EE8sanitizeIJEEEbP21hb_sanitize_context_tPKvDpOT_, symObjAddr: 0xBC78, symBinAddr: 0x14CB0, symSize: 0x50 }
  - { offsetInCU: 0x73228, offset: 0x190EC0, size: 0x8, addend: 0x0, symName: __ZNK3AAT6LookupIN2OT7IntTypeIjLj4EEEE8sanitizeEP21hb_sanitize_context_t, symObjAddr: 0xBCC8, symBinAddr: 0x14D00, symSize: 0xEC }
  - { offsetInCU: 0x735DC, offset: 0x191274, size: 0x8, addend: 0x0, symName: __ZNK2OT14UnsizedArrayOfINS_7IntTypeIjLj4EEEE8sanitizeIJEEEbP21hb_sanitize_context_tjDpOT_, symObjAddr: 0xBEA0, symBinAddr: 0x14ED8, symSize: 0x54 }
  - { offsetInCU: 0x73631, offset: 0x1912C9, size: 0x8, addend: 0x0, symName: __ZNK2OT14UnsizedArrayOfINS_7IntTypeIjLj4EEEE8sanitizeIJEEEbP21hb_sanitize_context_tjDpOT_, symObjAddr: 0xBEA0, symBinAddr: 0x14ED8, symSize: 0x54 }
  - { offsetInCU: 0x7365F, offset: 0x1912F7, size: 0x8, addend: 0x0, symName: __ZNK2OT14UnsizedArrayOfINS_7IntTypeIjLj4EEEE8sanitizeIJEEEbP21hb_sanitize_context_tjDpOT_, symObjAddr: 0xBEA0, symBinAddr: 0x14ED8, symSize: 0x54 }
  - { offsetInCU: 0x7368D, offset: 0x191325, size: 0x8, addend: 0x0, symName: __ZNK2OT14UnsizedArrayOfINS_7IntTypeIjLj4EEEE8sanitizeIJEEEbP21hb_sanitize_context_tjDpOT_, symObjAddr: 0xBEA0, symBinAddr: 0x14ED8, symSize: 0x54 }
  - { offsetInCU: 0x7370B, offset: 0x1913A3, size: 0x8, addend: 0x0, symName: __ZNK2OT24VarSizedBinSearchArrayOfIN3AAT19LookupSegmentSingleINS_7IntTypeIjLj4EEEEEE16sanitize_shallowEP21hb_sanitize_context_t, symObjAddr: 0xBEF4, symBinAddr: 0x14F2C, symSize: 0x9C }
  - { offsetInCU: 0x73751, offset: 0x1913E9, size: 0x8, addend: 0x0, symName: __ZNK2OT24VarSizedBinSearchArrayOfIN3AAT19LookupSegmentSingleINS_7IntTypeIjLj4EEEEEE16sanitize_shallowEP21hb_sanitize_context_t, symObjAddr: 0xBEF4, symBinAddr: 0x14F2C, symSize: 0x9C }
  - { offsetInCU: 0x73777, offset: 0x19140F, size: 0x8, addend: 0x0, symName: __ZNK2OT24VarSizedBinSearchArrayOfIN3AAT19LookupSegmentSingleINS_7IntTypeIjLj4EEEEEE16sanitize_shallowEP21hb_sanitize_context_t, symObjAddr: 0xBEF4, symBinAddr: 0x14F2C, symSize: 0x9C }
  - { offsetInCU: 0x7379D, offset: 0x191435, size: 0x8, addend: 0x0, symName: __ZNK2OT24VarSizedBinSearchArrayOfIN3AAT19LookupSegmentSingleINS_7IntTypeIjLj4EEEEEE16sanitize_shallowEP21hb_sanitize_context_t, symObjAddr: 0xBEF4, symBinAddr: 0x14F2C, symSize: 0x9C }
  - { offsetInCU: 0x738F4, offset: 0x19158C, size: 0x8, addend: 0x0, symName: __ZNK2OT24VarSizedBinSearchArrayOfIN3AAT18LookupSegmentArrayINS_7IntTypeIjLj4EEEEEE8sanitizeIJPKNS1_13LookupFormat4IS4_EEEEEbP21hb_sanitize_context_tDpOT_, symObjAddr: 0xBF90, symBinAddr: 0x14FC8, symSize: 0x94 }
  - { offsetInCU: 0x73A45, offset: 0x1916DD, size: 0x8, addend: 0x0, symName: __ZNK2OT24VarSizedBinSearchArrayOfIN3AAT12LookupSingleINS_7IntTypeIjLj4EEEEEE16sanitize_shallowEP21hb_sanitize_context_t, symObjAddr: 0xC258, symBinAddr: 0x15290, symSize: 0x9C }
  - { offsetInCU: 0x73A8B, offset: 0x191723, size: 0x8, addend: 0x0, symName: __ZNK2OT24VarSizedBinSearchArrayOfIN3AAT12LookupSingleINS_7IntTypeIjLj4EEEEEE16sanitize_shallowEP21hb_sanitize_context_t, symObjAddr: 0xC258, symBinAddr: 0x15290, symSize: 0x9C }
  - { offsetInCU: 0x73AB1, offset: 0x191749, size: 0x8, addend: 0x0, symName: __ZNK2OT24VarSizedBinSearchArrayOfIN3AAT12LookupSingleINS_7IntTypeIjLj4EEEEEE16sanitize_shallowEP21hb_sanitize_context_t, symObjAddr: 0xC258, symBinAddr: 0x15290, symSize: 0x9C }
  - { offsetInCU: 0x73AD7, offset: 0x19176F, size: 0x8, addend: 0x0, symName: __ZNK2OT24VarSizedBinSearchArrayOfIN3AAT12LookupSingleINS_7IntTypeIjLj4EEEEEE16sanitize_shallowEP21hb_sanitize_context_t, symObjAddr: 0xC258, symBinAddr: 0x15290, symSize: 0x9C }
  - { offsetInCU: 0x73C29, offset: 0x1918C1, size: 0x8, addend: 0x0, symName: __ZNK3AAT13LookupFormat8IN2OT7IntTypeIjLj4EEEE8sanitizeEP21hb_sanitize_context_t, symObjAddr: 0xBDB4, symBinAddr: 0x14DEC, symSize: 0x50 }
  - { offsetInCU: 0x73C6F, offset: 0x191907, size: 0x8, addend: 0x0, symName: __ZNK3AAT13LookupFormat8IN2OT7IntTypeIjLj4EEEE8sanitizeEP21hb_sanitize_context_t, symObjAddr: 0xBDB4, symBinAddr: 0x14DEC, symSize: 0x50 }
  - { offsetInCU: 0x73C95, offset: 0x19192D, size: 0x8, addend: 0x0, symName: __ZNK3AAT13LookupFormat8IN2OT7IntTypeIjLj4EEEE8sanitizeEP21hb_sanitize_context_t, symObjAddr: 0xBDB4, symBinAddr: 0x14DEC, symSize: 0x50 }
  - { offsetInCU: 0x73D18, offset: 0x1919B0, size: 0x8, addend: 0x0, symName: __ZNK3AAT14LookupFormat10IN2OT7IntTypeIjLj4EEEE8sanitizeEP21hb_sanitize_context_t, symObjAddr: 0xBE04, symBinAddr: 0x14E3C, symSize: 0x9C }
  - { offsetInCU: 0x73D5E, offset: 0x1919F6, size: 0x8, addend: 0x0, symName: __ZNK3AAT14LookupFormat10IN2OT7IntTypeIjLj4EEEE8sanitizeEP21hb_sanitize_context_t, symObjAddr: 0xBE04, symBinAddr: 0x14E3C, symSize: 0x9C }
  - { offsetInCU: 0x73D84, offset: 0x191A1C, size: 0x8, addend: 0x0, symName: __ZNK3AAT14LookupFormat10IN2OT7IntTypeIjLj4EEEE8sanitizeEP21hb_sanitize_context_t, symObjAddr: 0xBE04, symBinAddr: 0x14E3C, symSize: 0x9C }
  - { offsetInCU: 0x7408F, offset: 0x191D27, size: 0x8, addend: 0x0, symName: __ZNK2OT24VarSizedBinSearchArrayOfIN3AAT18LookupSegmentArrayINS_7IntTypeIjLj4EEEEEE16sanitize_shallowEP21hb_sanitize_context_t, symObjAddr: 0xC024, symBinAddr: 0x1505C, symSize: 0x9C }
  - { offsetInCU: 0x740D5, offset: 0x191D6D, size: 0x8, addend: 0x0, symName: __ZNK2OT24VarSizedBinSearchArrayOfIN3AAT18LookupSegmentArrayINS_7IntTypeIjLj4EEEEEE16sanitize_shallowEP21hb_sanitize_context_t, symObjAddr: 0xC024, symBinAddr: 0x1505C, symSize: 0x9C }
  - { offsetInCU: 0x740FB, offset: 0x191D93, size: 0x8, addend: 0x0, symName: __ZNK2OT24VarSizedBinSearchArrayOfIN3AAT18LookupSegmentArrayINS_7IntTypeIjLj4EEEEEE16sanitize_shallowEP21hb_sanitize_context_t, symObjAddr: 0xC024, symBinAddr: 0x1505C, symSize: 0x9C }
  - { offsetInCU: 0x74121, offset: 0x191DB9, size: 0x8, addend: 0x0, symName: __ZNK2OT24VarSizedBinSearchArrayOfIN3AAT18LookupSegmentArrayINS_7IntTypeIjLj4EEEEEE16sanitize_shallowEP21hb_sanitize_context_t, symObjAddr: 0xC024, symBinAddr: 0x1505C, symSize: 0x9C }
  - { offsetInCU: 0x74273, offset: 0x191F0B, size: 0x8, addend: 0x0, symName: __ZNK2OT24VarSizedBinSearchArrayOfIN3AAT18LookupSegmentArrayINS_7IntTypeIjLj4EEEEEE18last_is_terminatorEv, symObjAddr: 0xC1A8, symBinAddr: 0x151E0, symSize: 0x5C }
  - { offsetInCU: 0x742BF, offset: 0x191F57, size: 0x8, addend: 0x0, symName: __ZNK2OT24VarSizedBinSearchArrayOfIN3AAT18LookupSegmentArrayINS_7IntTypeIjLj4EEEEEE18last_is_terminatorEv, symObjAddr: 0xC1A8, symBinAddr: 0x151E0, symSize: 0x5C }
  - { offsetInCU: 0x742DF, offset: 0x191F77, size: 0x8, addend: 0x0, symName: __ZNK2OT24VarSizedBinSearchArrayOfIN3AAT18LookupSegmentArrayINS_7IntTypeIjLj4EEEEEE18last_is_terminatorEv, symObjAddr: 0xC1A8, symBinAddr: 0x151E0, symSize: 0x5C }
  - { offsetInCU: 0x7439B, offset: 0x192033, size: 0x8, addend: 0x0, symName: __ZNK2OT24VarSizedBinSearchArrayOfIN3AAT18LookupSegmentArrayINS_7IntTypeIjLj4EEEEEEixEi, symObjAddr: 0xC0C0, symBinAddr: 0x150F8, symSize: 0x60 }
  - { offsetInCU: 0x744E9, offset: 0x192181, size: 0x8, addend: 0x0, symName: __ZNK3AAT18LookupSegmentArrayIN2OT7IntTypeIjLj4EEEE8sanitizeEP21hb_sanitize_context_tPKv, symObjAddr: 0xC120, symBinAddr: 0x15158, symSize: 0x88 }
  - { offsetInCU: 0x7468C, offset: 0x192324, size: 0x8, addend: 0x0, symName: __ZNK2OT8OffsetToINS_14UnsizedArrayOfINS_7IntTypeIjLj4EEEEENS2_ItLj2EEELb0EE8sanitizeIJjEEEbP21hb_sanitize_context_tPKvDpOT_, symObjAddr: 0xC204, symBinAddr: 0x1523C, symSize: 0x54 }
  - { offsetInCU: 0x746F2, offset: 0x19238A, size: 0x8, addend: 0x0, symName: __ZNK2OT8OffsetToINS_14UnsizedArrayOfINS_7IntTypeIjLj4EEEEENS2_ItLj2EEELb0EE8sanitizeIJjEEEbP21hb_sanitize_context_tPKvDpOT_, symObjAddr: 0xC204, symBinAddr: 0x1523C, symSize: 0x54 }
  - { offsetInCU: 0x74720, offset: 0x1923B8, size: 0x8, addend: 0x0, symName: __ZNK2OT8OffsetToINS_14UnsizedArrayOfINS_7IntTypeIjLj4EEEEENS2_ItLj2EEELb0EE8sanitizeIJjEEEbP21hb_sanitize_context_tPKvDpOT_, symObjAddr: 0xC204, symBinAddr: 0x1523C, symSize: 0x54 }
  - { offsetInCU: 0x74746, offset: 0x1923DE, size: 0x8, addend: 0x0, symName: __ZNK2OT8OffsetToINS_14UnsizedArrayOfINS_7IntTypeIjLj4EEEEENS2_ItLj2EEELb0EE8sanitizeIJjEEEbP21hb_sanitize_context_tPKvDpOT_, symObjAddr: 0xC204, symBinAddr: 0x1523C, symSize: 0x54 }
  - { offsetInCU: 0x749EC, offset: 0x192684, size: 0x8, addend: 0x0, symName: __ZNK17hb_data_wrapper_tI9hb_face_tLj30EE11call_createI9hb_blob_t22hb_table_lazy_loader_tIN3AAT4ankrELj30ELb0EEEEPT_v, symObjAddr: 0xC368, symBinAddr: 0x153A0, symSize: 0x50 }
  - { offsetInCU: 0x74ADE, offset: 0x192776, size: 0x8, addend: 0x0, symName: __ZN16hb_lazy_loader_tIN3AAT4ankrE22hb_table_lazy_loader_tIS1_Lj30ELb0EE9hb_face_tLj30E9hb_blob_tE10do_destroyEPS5_, symObjAddr: 0xC3B8, symBinAddr: 0x153F0, symSize: 0x3C }
  - { offsetInCU: 0x74B7D, offset: 0x192815, size: 0x8, addend: 0x0, symName: __ZN21hb_sanitize_context_t15reference_tableIN3AAT4ankrEEEP9hb_blob_tPK9hb_face_tj, symObjAddr: 0xC3F4, symBinAddr: 0x1542C, symSize: 0x5C }
  - { offsetInCU: 0x74C55, offset: 0x1928ED, size: 0x8, addend: 0x0, symName: __ZN21hb_sanitize_context_t13sanitize_blobIN3AAT4ankrEEEP9hb_blob_tS4_, symObjAddr: 0xC450, symBinAddr: 0x15488, symSize: 0x168 }
  - { offsetInCU: 0x74E6A, offset: 0x192B02, size: 0x8, addend: 0x0, symName: __ZNK3AAT4ankr8sanitizeEP21hb_sanitize_context_t, symObjAddr: 0xC5B8, symBinAddr: 0x155F0, symSize: 0xE0 }
  - { offsetInCU: 0x750DC, offset: 0x192D74, size: 0x8, addend: 0x0, symName: __ZNK2OT8OffsetToIN3AAT6LookupINS0_INS_7ArrayOfINS1_6AnchorENS_7IntTypeIjLj4EEEEENS5_ItLj2EEELb0EEEEES6_Lb1EE8sanitizeIJPKNS5_IhLj1EEEEEEbP21hb_sanitize_context_tPKvDpOT_, symObjAddr: 0xC698, symBinAddr: 0x156D0, symSize: 0xA4 }
  - { offsetInCU: 0x75568, offset: 0x193200, size: 0x8, addend: 0x0, symName: __ZNK3AAT6LookupIN2OT8OffsetToINS1_7ArrayOfINS_6AnchorENS1_7IntTypeIjLj4EEEEENS5_ItLj2EEELb0EEEE8sanitizeEP21hb_sanitize_context_tPKv, symObjAddr: 0xC73C, symBinAddr: 0x15774, symSize: 0xF8 }
  - { offsetInCU: 0x758DD, offset: 0x193575, size: 0x8, addend: 0x0, symName: __ZNK2OT14UnsizedArrayOfINS_8OffsetToINS_7ArrayOfIN3AAT6AnchorENS_7IntTypeIjLj4EEEEENS5_ItLj2EEELb0EEEE8sanitizeIJRPKvEEEbP21hb_sanitize_context_tjDpOT_, symObjAddr: 0xC8A4, symBinAddr: 0x158DC, symSize: 0xAC }
  - { offsetInCU: 0x75ACA, offset: 0x193762, size: 0x8, addend: 0x0, symName: __ZNK2OT24VarSizedBinSearchArrayOfIN3AAT19LookupSegmentSingleINS_8OffsetToINS_7ArrayOfINS1_6AnchorENS_7IntTypeIjLj4EEEEENS6_ItLj2EEELb0EEEEEE8sanitizeIJRPKvEEEbP21hb_sanitize_context_tDpOT_, symObjAddr: 0xCA50, symBinAddr: 0x15A88, symSize: 0x94 }
  - { offsetInCU: 0x75C20, offset: 0x1938B8, size: 0x8, addend: 0x0, symName: __ZNK2OT24VarSizedBinSearchArrayOfIN3AAT18LookupSegmentArrayINS_8OffsetToINS_7ArrayOfINS1_6AnchorENS_7IntTypeIjLj4EEEEENS6_ItLj2EEELb0EEEEEE8sanitizeIJPKNS1_13LookupFormat4ISA_EERPKvEEEbP21hb_sanitize_context_tDpOT_, symObjAddr: 0xCC80, symBinAddr: 0x15CB8, symSize: 0x9C }
  - { offsetInCU: 0x75D8E, offset: 0x193A26, size: 0x8, addend: 0x0, symName: __ZNK2OT24VarSizedBinSearchArrayOfIN3AAT12LookupSingleINS_8OffsetToINS_7ArrayOfINS1_6AnchorENS_7IntTypeIjLj4EEEEENS6_ItLj2EEELb0EEEEEE8sanitizeIJRPKvEEEbP21hb_sanitize_context_tDpOT_, symObjAddr: 0xCF58, symBinAddr: 0x15F90, symSize: 0x94 }
  - { offsetInCU: 0x75EDE, offset: 0x193B76, size: 0x8, addend: 0x0, symName: __ZNK3AAT13LookupFormat8IN2OT8OffsetToINS1_7ArrayOfINS_6AnchorENS1_7IntTypeIjLj4EEEEENS5_ItLj2EEELb0EEEE8sanitizeEP21hb_sanitize_context_tPKv, symObjAddr: 0xC834, symBinAddr: 0x1586C, symSize: 0x70 }
  - { offsetInCU: 0x76175, offset: 0x193E0D, size: 0x8, addend: 0x0, symName: __ZNK2OT8OffsetToINS_7ArrayOfIN3AAT6AnchorENS_7IntTypeIjLj4EEEEENS4_ItLj2EEELb0EE8sanitizeIJEEEbP21hb_sanitize_context_tPKvDpOT_, symObjAddr: 0xC950, symBinAddr: 0x15988, symSize: 0x50 }
  - { offsetInCU: 0x761CA, offset: 0x193E62, size: 0x8, addend: 0x0, symName: __ZNK2OT8OffsetToINS_7ArrayOfIN3AAT6AnchorENS_7IntTypeIjLj4EEEEENS4_ItLj2EEELb0EE8sanitizeIJEEEbP21hb_sanitize_context_tPKvDpOT_, symObjAddr: 0xC950, symBinAddr: 0x15988, symSize: 0x50 }
  - { offsetInCU: 0x761F8, offset: 0x193E90, size: 0x8, addend: 0x0, symName: __ZNK2OT8OffsetToINS_7ArrayOfIN3AAT6AnchorENS_7IntTypeIjLj4EEEEENS4_ItLj2EEELb0EE8sanitizeIJEEEbP21hb_sanitize_context_tPKvDpOT_, symObjAddr: 0xC950, symBinAddr: 0x15988, symSize: 0x50 }
  - { offsetInCU: 0x7621E, offset: 0x193EB6, size: 0x8, addend: 0x0, symName: __ZNK2OT8OffsetToINS_7ArrayOfIN3AAT6AnchorENS_7IntTypeIjLj4EEEEENS4_ItLj2EEELb0EE8sanitizeIJEEEbP21hb_sanitize_context_tPKvDpOT_, symObjAddr: 0xC950, symBinAddr: 0x15988, symSize: 0x50 }
  - { offsetInCU: 0x7647E, offset: 0x194116, size: 0x8, addend: 0x0, symName: __ZNK2OT7ArrayOfIN3AAT6AnchorENS_7IntTypeIjLj4EEEE16sanitize_shallowEP21hb_sanitize_context_t, symObjAddr: 0xC9A0, symBinAddr: 0x159D8, symSize: 0xB0 }
  - { offsetInCU: 0x764C4, offset: 0x19415C, size: 0x8, addend: 0x0, symName: __ZNK2OT7ArrayOfIN3AAT6AnchorENS_7IntTypeIjLj4EEEE16sanitize_shallowEP21hb_sanitize_context_t, symObjAddr: 0xC9A0, symBinAddr: 0x159D8, symSize: 0xB0 }
  - { offsetInCU: 0x764EA, offset: 0x194182, size: 0x8, addend: 0x0, symName: __ZNK2OT7ArrayOfIN3AAT6AnchorENS_7IntTypeIjLj4EEEE16sanitize_shallowEP21hb_sanitize_context_t, symObjAddr: 0xC9A0, symBinAddr: 0x159D8, symSize: 0xB0 }
  - { offsetInCU: 0x7650F, offset: 0x1941A7, size: 0x8, addend: 0x0, symName: __ZNK2OT7ArrayOfIN3AAT6AnchorENS_7IntTypeIjLj4EEEE16sanitize_shallowEP21hb_sanitize_context_t, symObjAddr: 0xC9A0, symBinAddr: 0x159D8, symSize: 0xB0 }
  - { offsetInCU: 0x766CC, offset: 0x194364, size: 0x8, addend: 0x0, symName: __ZNK2OT24VarSizedBinSearchArrayOfIN3AAT19LookupSegmentSingleINS_8OffsetToINS_7ArrayOfINS1_6AnchorENS_7IntTypeIjLj4EEEEENS6_ItLj2EEELb0EEEEEE16sanitize_shallowEP21hb_sanitize_context_t, symObjAddr: 0xCAE4, symBinAddr: 0x15B1C, symSize: 0x9C }
  - { offsetInCU: 0x76712, offset: 0x1943AA, size: 0x8, addend: 0x0, symName: __ZNK2OT24VarSizedBinSearchArrayOfIN3AAT19LookupSegmentSingleINS_8OffsetToINS_7ArrayOfINS1_6AnchorENS_7IntTypeIjLj4EEEEENS6_ItLj2EEELb0EEEEEE16sanitize_shallowEP21hb_sanitize_context_t, symObjAddr: 0xCAE4, symBinAddr: 0x15B1C, symSize: 0x9C }
  - { offsetInCU: 0x76738, offset: 0x1943D0, size: 0x8, addend: 0x0, symName: __ZNK2OT24VarSizedBinSearchArrayOfIN3AAT19LookupSegmentSingleINS_8OffsetToINS_7ArrayOfINS1_6AnchorENS_7IntTypeIjLj4EEEEENS6_ItLj2EEELb0EEEEEE16sanitize_shallowEP21hb_sanitize_context_t, symObjAddr: 0xCAE4, symBinAddr: 0x15B1C, symSize: 0x9C }
  - { offsetInCU: 0x7675E, offset: 0x1943F6, size: 0x8, addend: 0x0, symName: __ZNK2OT24VarSizedBinSearchArrayOfIN3AAT19LookupSegmentSingleINS_8OffsetToINS_7ArrayOfINS1_6AnchorENS_7IntTypeIjLj4EEEEENS6_ItLj2EEELb0EEEEEE16sanitize_shallowEP21hb_sanitize_context_t, symObjAddr: 0xCAE4, symBinAddr: 0x15B1C, symSize: 0x9C }
  - { offsetInCU: 0x768B0, offset: 0x194548, size: 0x8, addend: 0x0, symName: __ZNK2OT24VarSizedBinSearchArrayOfIN3AAT19LookupSegmentSingleINS_8OffsetToINS_7ArrayOfINS1_6AnchorENS_7IntTypeIjLj4EEEEENS6_ItLj2EEELb0EEEEEE18last_is_terminatorEv, symObjAddr: 0xCC24, symBinAddr: 0x15C5C, symSize: 0x5C }
  - { offsetInCU: 0x768FC, offset: 0x194594, size: 0x8, addend: 0x0, symName: __ZNK2OT24VarSizedBinSearchArrayOfIN3AAT19LookupSegmentSingleINS_8OffsetToINS_7ArrayOfINS1_6AnchorENS_7IntTypeIjLj4EEEEENS6_ItLj2EEELb0EEEEEE18last_is_terminatorEv, symObjAddr: 0xCC24, symBinAddr: 0x15C5C, symSize: 0x5C }
  - { offsetInCU: 0x7691C, offset: 0x1945B4, size: 0x8, addend: 0x0, symName: __ZNK2OT24VarSizedBinSearchArrayOfIN3AAT19LookupSegmentSingleINS_8OffsetToINS_7ArrayOfINS1_6AnchorENS_7IntTypeIjLj4EEEEENS6_ItLj2EEELb0EEEEEE18last_is_terminatorEv, symObjAddr: 0xCC24, symBinAddr: 0x15C5C, symSize: 0x5C }
  - { offsetInCU: 0x769D8, offset: 0x194670, size: 0x8, addend: 0x0, symName: __ZNK2OT24VarSizedBinSearchArrayOfIN3AAT19LookupSegmentSingleINS_8OffsetToINS_7ArrayOfINS1_6AnchorENS_7IntTypeIjLj4EEEEENS6_ItLj2EEELb0EEEEEEixEi, symObjAddr: 0xCB80, symBinAddr: 0x15BB8, symSize: 0x60 }
  - { offsetInCU: 0x76B27, offset: 0x1947BF, size: 0x8, addend: 0x0, symName: __ZNK3AAT19LookupSegmentSingleIN2OT8OffsetToINS1_7ArrayOfINS_6AnchorENS1_7IntTypeIjLj4EEEEENS5_ItLj2EEELb0EEEE8sanitizeEP21hb_sanitize_context_tPKv, symObjAddr: 0xCBE0, symBinAddr: 0x15C18, symSize: 0x44 }
  - { offsetInCU: 0x76B79, offset: 0x194811, size: 0x8, addend: 0x0, symName: __ZNK3AAT19LookupSegmentSingleIN2OT8OffsetToINS1_7ArrayOfINS_6AnchorENS1_7IntTypeIjLj4EEEEENS5_ItLj2EEELb0EEEE8sanitizeEP21hb_sanitize_context_tPKv, symObjAddr: 0xCBE0, symBinAddr: 0x15C18, symSize: 0x44 }
  - { offsetInCU: 0x76B9E, offset: 0x194836, size: 0x8, addend: 0x0, symName: __ZNK3AAT19LookupSegmentSingleIN2OT8OffsetToINS1_7ArrayOfINS_6AnchorENS1_7IntTypeIjLj4EEEEENS5_ItLj2EEELb0EEEE8sanitizeEP21hb_sanitize_context_tPKv, symObjAddr: 0xCBE0, symBinAddr: 0x15C18, symSize: 0x44 }
  - { offsetInCU: 0x76C5C, offset: 0x1948F4, size: 0x8, addend: 0x0, symName: __ZNK2OT24VarSizedBinSearchArrayOfIN3AAT18LookupSegmentArrayINS_8OffsetToINS_7ArrayOfINS1_6AnchorENS_7IntTypeIjLj4EEEEENS6_ItLj2EEELb0EEEEEE16sanitize_shallowEP21hb_sanitize_context_t, symObjAddr: 0xCD1C, symBinAddr: 0x15D54, symSize: 0x9C }
  - { offsetInCU: 0x76CA2, offset: 0x19493A, size: 0x8, addend: 0x0, symName: __ZNK2OT24VarSizedBinSearchArrayOfIN3AAT18LookupSegmentArrayINS_8OffsetToINS_7ArrayOfINS1_6AnchorENS_7IntTypeIjLj4EEEEENS6_ItLj2EEELb0EEEEEE16sanitize_shallowEP21hb_sanitize_context_t, symObjAddr: 0xCD1C, symBinAddr: 0x15D54, symSize: 0x9C }
  - { offsetInCU: 0x76CC8, offset: 0x194960, size: 0x8, addend: 0x0, symName: __ZNK2OT24VarSizedBinSearchArrayOfIN3AAT18LookupSegmentArrayINS_8OffsetToINS_7ArrayOfINS1_6AnchorENS_7IntTypeIjLj4EEEEENS6_ItLj2EEELb0EEEEEE16sanitize_shallowEP21hb_sanitize_context_t, symObjAddr: 0xCD1C, symBinAddr: 0x15D54, symSize: 0x9C }
  - { offsetInCU: 0x76CEE, offset: 0x194986, size: 0x8, addend: 0x0, symName: __ZNK2OT24VarSizedBinSearchArrayOfIN3AAT18LookupSegmentArrayINS_8OffsetToINS_7ArrayOfINS1_6AnchorENS_7IntTypeIjLj4EEEEENS6_ItLj2EEELb0EEEEEE16sanitize_shallowEP21hb_sanitize_context_t, symObjAddr: 0xCD1C, symBinAddr: 0x15D54, symSize: 0x9C }
  - { offsetInCU: 0x76E40, offset: 0x194AD8, size: 0x8, addend: 0x0, symName: __ZNK2OT24VarSizedBinSearchArrayOfIN3AAT18LookupSegmentArrayINS_8OffsetToINS_7ArrayOfINS1_6AnchorENS_7IntTypeIjLj4EEEEENS6_ItLj2EEELb0EEEEEE18last_is_terminatorEv, symObjAddr: 0xCEA4, symBinAddr: 0x15EDC, symSize: 0x5C }
  - { offsetInCU: 0x76E8C, offset: 0x194B24, size: 0x8, addend: 0x0, symName: __ZNK2OT24VarSizedBinSearchArrayOfIN3AAT18LookupSegmentArrayINS_8OffsetToINS_7ArrayOfINS1_6AnchorENS_7IntTypeIjLj4EEEEENS6_ItLj2EEELb0EEEEEE18last_is_terminatorEv, symObjAddr: 0xCEA4, symBinAddr: 0x15EDC, symSize: 0x5C }
  - { offsetInCU: 0x76EAC, offset: 0x194B44, size: 0x8, addend: 0x0, symName: __ZNK2OT24VarSizedBinSearchArrayOfIN3AAT18LookupSegmentArrayINS_8OffsetToINS_7ArrayOfINS1_6AnchorENS_7IntTypeIjLj4EEEEENS6_ItLj2EEELb0EEEEEE18last_is_terminatorEv, symObjAddr: 0xCEA4, symBinAddr: 0x15EDC, symSize: 0x5C }
  - { offsetInCU: 0x76F68, offset: 0x194C00, size: 0x8, addend: 0x0, symName: __ZNK2OT24VarSizedBinSearchArrayOfIN3AAT18LookupSegmentArrayINS_8OffsetToINS_7ArrayOfINS1_6AnchorENS_7IntTypeIjLj4EEEEENS6_ItLj2EEELb0EEEEEEixEi, symObjAddr: 0xCDB8, symBinAddr: 0x15DF0, symSize: 0x60 }
  - { offsetInCU: 0x770B6, offset: 0x194D4E, size: 0x8, addend: 0x0, symName: __ZNK3AAT18LookupSegmentArrayIN2OT8OffsetToINS1_7ArrayOfINS_6AnchorENS1_7IntTypeIjLj4EEEEENS5_ItLj2EEELb0EEEE8sanitizeIJRPKvEEEbP21hb_sanitize_context_tSD_DpOT_, symObjAddr: 0xCE18, symBinAddr: 0x15E50, symSize: 0x8C }
  - { offsetInCU: 0x77276, offset: 0x194F0E, size: 0x8, addend: 0x0, symName: __ZNK2OT8OffsetToINS_14UnsizedArrayOfINS0_INS_7ArrayOfIN3AAT6AnchorENS_7IntTypeIjLj4EEEEENS5_ItLj2EEELb0EEEEES8_Lb0EE8sanitizeIJjRPKvEEEbP21hb_sanitize_context_tSE_DpOT_, symObjAddr: 0xCF00, symBinAddr: 0x15F38, symSize: 0x58 }
  - { offsetInCU: 0x772ED, offset: 0x194F85, size: 0x8, addend: 0x0, symName: __ZNK2OT8OffsetToINS_14UnsizedArrayOfINS0_INS_7ArrayOfIN3AAT6AnchorENS_7IntTypeIjLj4EEEEENS5_ItLj2EEELb0EEEEES8_Lb0EE8sanitizeIJjRPKvEEEbP21hb_sanitize_context_tSE_DpOT_, symObjAddr: 0xCF00, symBinAddr: 0x15F38, symSize: 0x58 }
  - { offsetInCU: 0x7731B, offset: 0x194FB3, size: 0x8, addend: 0x0, symName: __ZNK2OT8OffsetToINS_14UnsizedArrayOfINS0_INS_7ArrayOfIN3AAT6AnchorENS_7IntTypeIjLj4EEEEENS5_ItLj2EEELb0EEEEES8_Lb0EE8sanitizeIJjRPKvEEEbP21hb_sanitize_context_tSE_DpOT_, symObjAddr: 0xCF00, symBinAddr: 0x15F38, symSize: 0x58 }
  - { offsetInCU: 0x77341, offset: 0x194FD9, size: 0x8, addend: 0x0, symName: __ZNK2OT8OffsetToINS_14UnsizedArrayOfINS0_INS_7ArrayOfIN3AAT6AnchorENS_7IntTypeIjLj4EEEEENS5_ItLj2EEELb0EEEEES8_Lb0EE8sanitizeIJjRPKvEEEbP21hb_sanitize_context_tSE_DpOT_, symObjAddr: 0xCF00, symBinAddr: 0x15F38, symSize: 0x58 }
  - { offsetInCU: 0x775E0, offset: 0x195278, size: 0x8, addend: 0x0, symName: __ZNK2OT24VarSizedBinSearchArrayOfIN3AAT12LookupSingleINS_8OffsetToINS_7ArrayOfINS1_6AnchorENS_7IntTypeIjLj4EEEEENS6_ItLj2EEELb0EEEEEE16sanitize_shallowEP21hb_sanitize_context_t, symObjAddr: 0xCFEC, symBinAddr: 0x16024, symSize: 0x9C }
  - { offsetInCU: 0x77626, offset: 0x1952BE, size: 0x8, addend: 0x0, symName: __ZNK2OT24VarSizedBinSearchArrayOfIN3AAT12LookupSingleINS_8OffsetToINS_7ArrayOfINS1_6AnchorENS_7IntTypeIjLj4EEEEENS6_ItLj2EEELb0EEEEEE16sanitize_shallowEP21hb_sanitize_context_t, symObjAddr: 0xCFEC, symBinAddr: 0x16024, symSize: 0x9C }
  - { offsetInCU: 0x7764C, offset: 0x1952E4, size: 0x8, addend: 0x0, symName: __ZNK2OT24VarSizedBinSearchArrayOfIN3AAT12LookupSingleINS_8OffsetToINS_7ArrayOfINS1_6AnchorENS_7IntTypeIjLj4EEEEENS6_ItLj2EEELb0EEEEEE16sanitize_shallowEP21hb_sanitize_context_t, symObjAddr: 0xCFEC, symBinAddr: 0x16024, symSize: 0x9C }
  - { offsetInCU: 0x77672, offset: 0x19530A, size: 0x8, addend: 0x0, symName: __ZNK2OT24VarSizedBinSearchArrayOfIN3AAT12LookupSingleINS_8OffsetToINS_7ArrayOfINS1_6AnchorENS_7IntTypeIjLj4EEEEENS6_ItLj2EEELb0EEEEEE16sanitize_shallowEP21hb_sanitize_context_t, symObjAddr: 0xCFEC, symBinAddr: 0x16024, symSize: 0x9C }
  - { offsetInCU: 0x777C4, offset: 0x19545C, size: 0x8, addend: 0x0, symName: __ZNK2OT24VarSizedBinSearchArrayOfIN3AAT12LookupSingleINS_8OffsetToINS_7ArrayOfINS1_6AnchorENS_7IntTypeIjLj4EEEEENS6_ItLj2EEELb0EEEEEE18last_is_terminatorEv, symObjAddr: 0xD130, symBinAddr: 0x16168, symSize: 0x3C }
  - { offsetInCU: 0x77810, offset: 0x1954A8, size: 0x8, addend: 0x0, symName: __ZNK2OT24VarSizedBinSearchArrayOfIN3AAT12LookupSingleINS_8OffsetToINS_7ArrayOfINS1_6AnchorENS_7IntTypeIjLj4EEEEENS6_ItLj2EEELb0EEEEEE18last_is_terminatorEv, symObjAddr: 0xD130, symBinAddr: 0x16168, symSize: 0x3C }
  - { offsetInCU: 0x77830, offset: 0x1954C8, size: 0x8, addend: 0x0, symName: __ZNK2OT24VarSizedBinSearchArrayOfIN3AAT12LookupSingleINS_8OffsetToINS_7ArrayOfINS1_6AnchorENS_7IntTypeIjLj4EEEEENS6_ItLj2EEELb0EEEEEE18last_is_terminatorEv, symObjAddr: 0xD130, symBinAddr: 0x16168, symSize: 0x3C }
  - { offsetInCU: 0x778E7, offset: 0x19557F, size: 0x8, addend: 0x0, symName: __ZNK2OT24VarSizedBinSearchArrayOfIN3AAT12LookupSingleINS_8OffsetToINS_7ArrayOfINS1_6AnchorENS_7IntTypeIjLj4EEEEENS6_ItLj2EEELb0EEEEEEixEi, symObjAddr: 0xD088, symBinAddr: 0x160C0, symSize: 0x60 }
  - { offsetInCU: 0x77A36, offset: 0x1956CE, size: 0x8, addend: 0x0, symName: __ZNK3AAT12LookupSingleIN2OT8OffsetToINS1_7ArrayOfINS_6AnchorENS1_7IntTypeIjLj4EEEEENS5_ItLj2EEELb0EEEE8sanitizeEP21hb_sanitize_context_tPKv, symObjAddr: 0xD0E8, symBinAddr: 0x16120, symSize: 0x48 }
  - { offsetInCU: 0x77A88, offset: 0x195720, size: 0x8, addend: 0x0, symName: __ZNK3AAT12LookupSingleIN2OT8OffsetToINS1_7ArrayOfINS_6AnchorENS1_7IntTypeIjLj4EEEEENS5_ItLj2EEELb0EEEE8sanitizeEP21hb_sanitize_context_tPKv, symObjAddr: 0xD0E8, symBinAddr: 0x16120, symSize: 0x48 }
  - { offsetInCU: 0x77AAD, offset: 0x195745, size: 0x8, addend: 0x0, symName: __ZNK3AAT12LookupSingleIN2OT8OffsetToINS1_7ArrayOfINS_6AnchorENS1_7IntTypeIjLj4EEEEENS5_ItLj2EEELb0EEEE8sanitizeEP21hb_sanitize_context_tPKv, symObjAddr: 0xD0E8, symBinAddr: 0x16120, symSize: 0x48 }
  - { offsetInCU: 0x77C30, offset: 0x1958C8, size: 0x8, addend: 0x0, symName: __ZNK3AAT19KerxSubTableFormat0INS_18KerxSubTableHeaderEE5applyEPNS_22hb_aat_apply_context_tE, symObjAddr: 0xD1AC, symBinAddr: 0x161E4, symSize: 0x74 }
  - { offsetInCU: 0x77DA5, offset: 0x195A3D, size: 0x8, addend: 0x0, symName: __ZNK3AAT19KerxSubTableFormat1INS_18KerxSubTableHeaderEE5applyEPNS_22hb_aat_apply_context_tE, symObjAddr: 0xDF3C, symBinAddr: 0x16F74, symSize: 0xA0 }
  - { offsetInCU: 0x7800A, offset: 0x195CA2, size: 0x8, addend: 0x0, symName: __ZNK3AAT19KerxSubTableFormat2INS_18KerxSubTableHeaderEE5applyEPNS_22hb_aat_apply_context_tE, symObjAddr: 0xE544, symBinAddr: 0x1757C, symSize: 0x74 }
  - { offsetInCU: 0x78187, offset: 0x195E1F, size: 0x8, addend: 0x0, symName: __ZNK3AAT19KerxSubTableFormat4INS_18KerxSubTableHeaderEE5applyEPNS_22hb_aat_apply_context_tE, symObjAddr: 0xEA5C, symBinAddr: 0x17A94, symSize: 0x90 }
  - { offsetInCU: 0x783BE, offset: 0x196056, size: 0x8, addend: 0x0, symName: __ZNK3AAT19KerxSubTableFormat6INS_18KerxSubTableHeaderEE5applyEPNS_22hb_aat_apply_context_tE, symObjAddr: 0xF88C, symBinAddr: 0x188C4, symSize: 0x74 }
  - { offsetInCU: 0x78633, offset: 0x1962CB, size: 0x8, addend: 0x0, symName: __ZNK2OT17hb_kern_machine_tIN3AAT19KerxSubTableFormat0INS1_18KerxSubTableHeaderEE13accelerator_tEE4kernEP9hb_font_tP11hb_buffer_tjb, symObjAddr: 0xD220, symBinAddr: 0x16258, symSize: 0x354 }
  - { offsetInCU: 0x790CB, offset: 0x196D63, size: 0x8, addend: 0x0, symName: __ZN2OT21hb_ot_apply_context_tC2EjP9hb_font_tP11hb_buffer_t, symObjAddr: 0xD6A8, symBinAddr: 0x166E0, symSize: 0x148 }
  - { offsetInCU: 0x794C0, offset: 0x197158, size: 0x8, addend: 0x0, symName: __ZN2OT21hb_ot_apply_context_t19skipping_iterator_t4nextEPj, symObjAddr: 0xD574, symBinAddr: 0x165AC, symSize: 0x134 }
  - { offsetInCU: 0x795FC, offset: 0x197294, size: 0x8, addend: 0x0, symName: __ZNK3AAT19KerxSubTableFormat0INS_18KerxSubTableHeaderEE11get_kerningEjjPNS_22hb_aat_apply_context_tE, symObjAddr: 0xDD44, symBinAddr: 0x16D7C, symSize: 0xC8 }
  - { offsetInCU: 0x79831, offset: 0x1974C9, size: 0x8, addend: 0x0, symName: __ZNK2OT21hb_ot_apply_context_t9matcher_t8may_skipEPKS0_RK15hb_glyph_info_t, symObjAddr: 0xD9F0, symBinAddr: 0x16A28, symSize: 0x94 }
  - { offsetInCU: 0x798D6, offset: 0x19756E, size: 0x8, addend: 0x0, symName: __ZNK2OT21hb_ot_apply_context_t9matcher_t9may_matchER15hb_glyph_info_tj, symObjAddr: 0xDA84, symBinAddr: 0x16ABC, symSize: 0x60 }
  - { offsetInCU: 0x79A44, offset: 0x1976DC, size: 0x8, addend: 0x0, symName: __ZNK2OT4GDEF13get_var_storeEv, symObjAddr: 0xD7F0, symBinAddr: 0x16828, symSize: 0x70 }
  - { offsetInCU: 0x79A6E, offset: 0x197706, size: 0x8, addend: 0x0, symName: __ZNK2OT4GDEF13get_var_storeEv, symObjAddr: 0xD7F0, symBinAddr: 0x16828, symSize: 0x70 }
  - { offsetInCU: 0x79A8C, offset: 0x197724, size: 0x8, addend: 0x0, symName: __ZNK2OT4GDEF13get_var_storeEv, symObjAddr: 0xD7F0, symBinAddr: 0x16828, symSize: 0x70 }
  - { offsetInCU: 0x79BB2, offset: 0x19784A, size: 0x8, addend: 0x0, symName: __ZNK2OT14VariationStore12create_cacheEv, symObjAddr: 0xD860, symBinAddr: 0x16898, symSize: 0x78 }
  - { offsetInCU: 0x79D19, offset: 0x1979B1, size: 0x8, addend: 0x0, symName: __ZN24hb_set_digest_combiner_tI28hb_set_digest_bits_pattern_tImLj4EES_IS0_ImLj0EES0_ImLj9EEEE9add_arrayIjEEvPKT_jj, symObjAddr: 0xD950, symBinAddr: 0x16988, symSize: 0x40 }
  - { offsetInCU: 0x79D6D, offset: 0x197A05, size: 0x8, addend: 0x0, symName: __ZN24hb_set_digest_combiner_tI28hb_set_digest_bits_pattern_tImLj4EES_IS0_ImLj0EES0_ImLj9EEEE9add_arrayIjEEvPKT_jj, symObjAddr: 0xD950, symBinAddr: 0x16988, symSize: 0x40 }
  - { offsetInCU: 0x79DA0, offset: 0x197A38, size: 0x8, addend: 0x0, symName: __ZN24hb_set_digest_combiner_tI28hb_set_digest_bits_pattern_tImLj4EES_IS0_ImLj0EES0_ImLj9EEEE9add_arrayIjEEvPKT_jj, symObjAddr: 0xD950, symBinAddr: 0x16988, symSize: 0x40 }
  - { offsetInCU: 0x79E26, offset: 0x197ABE, size: 0x8, addend: 0x0, symName: __ZN2OT21hb_ot_apply_context_t10init_itersEv, symObjAddr: 0xD8D8, symBinAddr: 0x16910, symSize: 0x78 }
  - { offsetInCU: 0x7A12B, offset: 0x197DC3, size: 0x8, addend: 0x0, symName: __ZN24hb_set_digest_combiner_tI28hb_set_digest_bits_pattern_tImLj0EES0_ImLj9EEE9add_arrayIjEEvPKT_jj, symObjAddr: 0xD990, symBinAddr: 0x169C8, symSize: 0x60 }
  - { offsetInCU: 0x7A181, offset: 0x197E19, size: 0x8, addend: 0x0, symName: __ZN24hb_set_digest_combiner_tI28hb_set_digest_bits_pattern_tImLj0EES0_ImLj9EEE9add_arrayIjEEvPKT_jj, symObjAddr: 0xD990, symBinAddr: 0x169C8, symSize: 0x60 }
  - { offsetInCU: 0x7A1B4, offset: 0x197E4C, size: 0x8, addend: 0x0, symName: __ZN24hb_set_digest_combiner_tI28hb_set_digest_bits_pattern_tImLj0EES0_ImLj9EEE9add_arrayIjEEvPKT_jj, symObjAddr: 0xD990, symBinAddr: 0x169C8, symSize: 0x60 }
  - { offsetInCU: 0x7A403, offset: 0x19809B, size: 0x8, addend: 0x0, symName: __ZNK2OT21hb_ot_apply_context_t20check_glyph_propertyEPK15hb_glyph_info_tj, symObjAddr: 0xDAE4, symBinAddr: 0x16B1C, symSize: 0x30 }
  - { offsetInCU: 0x7A4BB, offset: 0x198153, size: 0x8, addend: 0x0, symName: __ZNK2OT21hb_ot_apply_context_t21match_properties_markEjjj, symObjAddr: 0xDB14, symBinAddr: 0x16B4C, symSize: 0x38 }
  - { offsetInCU: 0x7A520, offset: 0x1981B8, size: 0x8, addend: 0x0, symName: __ZNK2OT4GDEF15mark_set_coversEjj, symObjAddr: 0xDB4C, symBinAddr: 0x16B84, symSize: 0x4C }
  - { offsetInCU: 0x7A62A, offset: 0x1982C2, size: 0x8, addend: 0x0, symName: __ZNK2OT4GDEF19get_mark_glyph_setsEv, symObjAddr: 0xDB98, symBinAddr: 0x16BD0, symSize: 0x70 }
  - { offsetInCU: 0x7A654, offset: 0x1982EC, size: 0x8, addend: 0x0, symName: __ZNK2OT4GDEF19get_mark_glyph_setsEv, symObjAddr: 0xDB98, symBinAddr: 0x16BD0, symSize: 0x70 }
  - { offsetInCU: 0x7A672, offset: 0x19830A, size: 0x8, addend: 0x0, symName: __ZNK2OT4GDEF19get_mark_glyph_setsEv, symObjAddr: 0xDB98, symBinAddr: 0x16BD0, symSize: 0x70 }
  - { offsetInCU: 0x7A798, offset: 0x198430, size: 0x8, addend: 0x0, symName: __ZNK2OT20MarkGlyphSetsFormat16coversEjj, symObjAddr: 0xDC08, symBinAddr: 0x16C40, symSize: 0x5C }
  - { offsetInCU: 0x7A9CF, offset: 0x198667, size: 0x8, addend: 0x0, symName: __ZNK2OT6Layout6Common8Coverage12get_coverageEj, symObjAddr: 0xDC64, symBinAddr: 0x16C9C, symSize: 0x28 }
  - { offsetInCU: 0x7AA07, offset: 0x19869F, size: 0x8, addend: 0x0, symName: __ZNK2OT6Layout6Common8Coverage12get_coverageEj, symObjAddr: 0xDC64, symBinAddr: 0x16C9C, symSize: 0x28 }
  - { offsetInCU: 0x7AA24, offset: 0x1986BC, size: 0x8, addend: 0x0, symName: __ZNK2OT6Layout6Common8Coverage12get_coverageEj, symObjAddr: 0xDC64, symBinAddr: 0x16C9C, symSize: 0x28 }
  - { offsetInCU: 0x7AA5C, offset: 0x1986F4, size: 0x8, addend: 0x0, symName: __ZNK2OT6Layout6Common17CoverageFormat1_3INS0_10SmallTypesEE12get_coverageEj, symObjAddr: 0xDC8C, symBinAddr: 0x16CC4, symSize: 0x54 }
  - { offsetInCU: 0x7AAA4, offset: 0x19873C, size: 0x8, addend: 0x0, symName: __ZNK2OT6Layout6Common17CoverageFormat1_3INS0_10SmallTypesEE12get_coverageEj, symObjAddr: 0xDC8C, symBinAddr: 0x16CC4, symSize: 0x54 }
  - { offsetInCU: 0x7AADA, offset: 0x198772, size: 0x8, addend: 0x0, symName: __ZNK2OT6Layout6Common17CoverageFormat1_3INS0_10SmallTypesEE12get_coverageEj, symObjAddr: 0xDC8C, symBinAddr: 0x16CC4, symSize: 0x54 }
  - { offsetInCU: 0x7AAFA, offset: 0x198792, size: 0x8, addend: 0x0, symName: __ZNK2OT6Layout6Common17CoverageFormat1_3INS0_10SmallTypesEE12get_coverageEj, symObjAddr: 0xDC8C, symBinAddr: 0x16CC4, symSize: 0x54 }
  - { offsetInCU: 0x7AB1A, offset: 0x1987B2, size: 0x8, addend: 0x0, symName: __ZNK2OT6Layout6Common17CoverageFormat1_3INS0_10SmallTypesEE12get_coverageEj, symObjAddr: 0xDC8C, symBinAddr: 0x16CC4, symSize: 0x54 }
  - { offsetInCU: 0x7AC10, offset: 0x1988A8, size: 0x8, addend: 0x0, symName: __ZNK2OT6Layout6Common17CoverageFormat2_4INS0_10SmallTypesEE12get_coverageEj, symObjAddr: 0xDCE0, symBinAddr: 0x16D18, symSize: 0x64 }
  - { offsetInCU: 0x7AFFB, offset: 0x198C93, size: 0x8, addend: 0x0, symName: __ZNK2OT13SortedArrayOfIN3AAT8KernPairENS_15BinSearchHeaderINS_7IntTypeIjLj4EEEEEE7bsearchINS1_15hb_glyph_pair_tEEERKS2_RKT_SB_, symObjAddr: 0xDE0C, symBinAddr: 0x16E44, symSize: 0x54 }
  - { offsetInCU: 0x7B230, offset: 0x198EC8, size: 0x8, addend: 0x0, symName: __ZNK17hb_sorted_array_tIKN3AAT8KernPairEE12bsearch_implINS0_15hb_glyph_pair_tEJEEEbRKT_PjDpT0_, symObjAddr: 0xDE60, symBinAddr: 0x16E98, symSize: 0xA0 }
  - { offsetInCU: 0x7B466, offset: 0x1990FE, size: 0x8, addend: 0x0, symName: __ZNK3AAT8KernPair3cmpERKNS_15hb_glyph_pair_tE, symObjAddr: 0xDF00, symBinAddr: 0x16F38, symSize: 0x3C }
  - { offsetInCU: 0x7B66D, offset: 0x199305, size: 0x8, addend: 0x0, symName: __ZN3AAT16StateTableDriverINS_13ExtendedTypesENS_12Format1EntryILb1EE9EntryDataEE5driveINS_19KerxSubTableFormat1INS_18KerxSubTableHeaderEE16driver_context_tEEEvPT_, symObjAddr: 0xDFDC, symBinAddr: 0x17014, symSize: 0x1D4 }
  - { offsetInCU: 0x7BB76, offset: 0x19980E, size: 0x8, addend: 0x0, symName: __ZNK3AAT10StateTableINS_13ExtendedTypesENS_12Format1EntryILb1EE9EntryDataEE9get_classEjj, symObjAddr: 0xE1B0, symBinAddr: 0x171E8, symSize: 0x48 }
  - { offsetInCU: 0x7BD07, offset: 0x19999F, size: 0x8, addend: 0x0, symName: __ZNK3AAT10StateTableINS_13ExtendedTypesENS_12Format1EntryILb1EE9EntryDataEE9get_entryEij, symObjAddr: 0xE1F8, symBinAddr: 0x17230, symSize: 0x40 }
  - { offsetInCU: 0x7BD80, offset: 0x199A18, size: 0x8, addend: 0x0, symName: __ZNK3AAT10StateTableINS_13ExtendedTypesENS_12Format1EntryILb1EE9EntryDataEE9get_entryEij, symObjAddr: 0xE1F8, symBinAddr: 0x17230, symSize: 0x40 }
  - { offsetInCU: 0x7BD9E, offset: 0x199A36, size: 0x8, addend: 0x0, symName: __ZNK3AAT10StateTableINS_13ExtendedTypesENS_12Format1EntryILb1EE9EntryDataEE9get_entryEij, symObjAddr: 0xE1F8, symBinAddr: 0x17230, symSize: 0x40 }
  - { offsetInCU: 0x7BF49, offset: 0x199BE1, size: 0x8, addend: 0x0, symName: __ZN3AAT19KerxSubTableFormat1INS_18KerxSubTableHeaderEE16driver_context_t10transitionEPNS_16StateTableDriverINS_13ExtendedTypesENS_12Format1EntryILb1EE9EntryDataEEERKNS_5EntryIS8_EE, symObjAddr: 0xE238, symBinAddr: 0x17270, symSize: 0x2A0 }
  - { offsetInCU: 0x7C3DD, offset: 0x19A075, size: 0x8, addend: 0x0, symName: __ZNK21hb_sanitize_context_t11check_arrayIN2OT7IntTypeIsLj2EEEEEbPKT_jj, symObjAddr: 0xE4D8, symBinAddr: 0x17510, symSize: 0x6C }
  - { offsetInCU: 0x7C47E, offset: 0x19A116, size: 0x8, addend: 0x0, symName: __ZNK21hb_sanitize_context_t11check_arrayIN2OT7IntTypeIsLj2EEEEEbPKT_jj, symObjAddr: 0xE4D8, symBinAddr: 0x17510, symSize: 0x6C }
  - { offsetInCU: 0x7C681, offset: 0x19A319, size: 0x8, addend: 0x0, symName: __ZNK2OT17hb_kern_machine_tIN3AAT19KerxSubTableFormat2INS1_18KerxSubTableHeaderEE13accelerator_tEE4kernEP9hb_font_tP11hb_buffer_tjb, symObjAddr: 0xE5B8, symBinAddr: 0x175F0, symSize: 0x354 }
  - { offsetInCU: 0x7CE6A, offset: 0x19AB02, size: 0x8, addend: 0x0, symName: __ZNK3AAT19KerxSubTableFormat2INS_18KerxSubTableHeaderEE11get_kerningEjjPNS_22hb_aat_apply_context_tE, symObjAddr: 0xE90C, symBinAddr: 0x17944, symSize: 0x150 }
  - { offsetInCU: 0x7D698, offset: 0x19B330, size: 0x8, addend: 0x0, symName: __ZN3AAT16StateTableDriverINS_13ExtendedTypesENS_19KerxSubTableFormat4INS_18KerxSubTableHeaderEE9EntryDataEE5driveINS4_16driver_context_tEEEvPT_, symObjAddr: 0xEAEC, symBinAddr: 0x17B24, symSize: 0x1D4 }
  - { offsetInCU: 0x7DB38, offset: 0x19B7D0, size: 0x8, addend: 0x0, symName: __ZNK3AAT10StateTableINS_13ExtendedTypesENS_19KerxSubTableFormat4INS_18KerxSubTableHeaderEE9EntryDataEE9get_classEjj, symObjAddr: 0xECC0, symBinAddr: 0x17CF8, symSize: 0x48 }
  - { offsetInCU: 0x7DCC9, offset: 0x19B961, size: 0x8, addend: 0x0, symName: __ZNK3AAT10StateTableINS_13ExtendedTypesENS_19KerxSubTableFormat4INS_18KerxSubTableHeaderEE9EntryDataEE9get_entryEij, symObjAddr: 0xED08, symBinAddr: 0x17D40, symSize: 0x40 }
  - { offsetInCU: 0x7DD42, offset: 0x19B9DA, size: 0x8, addend: 0x0, symName: __ZNK3AAT10StateTableINS_13ExtendedTypesENS_19KerxSubTableFormat4INS_18KerxSubTableHeaderEE9EntryDataEE9get_entryEij, symObjAddr: 0xED08, symBinAddr: 0x17D40, symSize: 0x40 }
  - { offsetInCU: 0x7DD60, offset: 0x19B9F8, size: 0x8, addend: 0x0, symName: __ZNK3AAT10StateTableINS_13ExtendedTypesENS_19KerxSubTableFormat4INS_18KerxSubTableHeaderEE9EntryDataEE9get_entryEij, symObjAddr: 0xED08, symBinAddr: 0x17D40, symSize: 0x40 }
  - { offsetInCU: 0x7DF0B, offset: 0x19BBA3, size: 0x8, addend: 0x0, symName: __ZN3AAT19KerxSubTableFormat4INS_18KerxSubTableHeaderEE16driver_context_t10transitionEPNS_16StateTableDriverINS_13ExtendedTypesENS2_9EntryDataEEERKNS_5EntryIS6_EE, symObjAddr: 0xED48, symBinAddr: 0x17D80, symSize: 0x3E8 }
  - { offsetInCU: 0x7E9EC, offset: 0x19C684, size: 0x8, addend: 0x0, symName: __ZN9hb_font_t34get_glyph_contour_point_for_originEjj14hb_direction_tPiS1_, symObjAddr: 0xF130, symBinAddr: 0x18168, symSize: 0xC4 }
  - { offsetInCU: 0x7EB56, offset: 0x19C7EE, size: 0x8, addend: 0x0, symName: __ZNK3AAT4ankr10get_anchorEjjj, symObjAddr: 0xF1F4, symBinAddr: 0x1822C, symSize: 0x84 }
  - { offsetInCU: 0x7EF47, offset: 0x19CBDF, size: 0x8, addend: 0x0, symName: __ZN9hb_font_t30get_glyph_origin_for_directionEj14hb_direction_tPiS1_, symObjAddr: 0xF278, symBinAddr: 0x182B0, symSize: 0x1C }
  - { offsetInCU: 0x7F07D, offset: 0x19CD15, size: 0x8, addend: 0x0, symName: __ZNK3AAT6LookupIN2OT8OffsetToINS1_7ArrayOfINS_6AnchorENS1_7IntTypeIjLj4EEEEENS5_ItLj2EEELb0EEEE9get_valueEjj, symObjAddr: 0xF558, symBinAddr: 0x18590, symSize: 0xD8 }
  - { offsetInCU: 0x7F2C0, offset: 0x19CF58, size: 0x8, addend: 0x0, symName: __ZN9hb_font_t32get_glyph_h_origin_with_fallbackEjPiS0_, symObjAddr: 0xF294, symBinAddr: 0x182CC, symSize: 0xE4 }
  - { offsetInCU: 0x7F42E, offset: 0x19D0C6, size: 0x8, addend: 0x0, symName: __ZN9hb_font_t32get_glyph_v_origin_with_fallbackEjPiS0_, symObjAddr: 0xF378, symBinAddr: 0x183B0, symSize: 0xE4 }
  - { offsetInCU: 0x7F616, offset: 0x19D2AE, size: 0x8, addend: 0x0, symName: __ZN9hb_font_t29guess_v_origin_minus_h_originEjPiS0_, symObjAddr: 0xF45C, symBinAddr: 0x18494, symSize: 0x80 }
  - { offsetInCU: 0x7F6F3, offset: 0x19D38B, size: 0x8, addend: 0x0, symName: __ZN9hb_font_t27get_h_extents_with_fallbackEP17hb_font_extents_t, symObjAddr: 0xF4DC, symBinAddr: 0x18514, symSize: 0x7C }
  - { offsetInCU: 0x7F8DF, offset: 0x19D577, size: 0x8, addend: 0x0, symName: __ZNK2OT24VarSizedBinSearchArrayOfIN3AAT19LookupSegmentSingleINS_8OffsetToINS_7ArrayOfINS1_6AnchorENS_7IntTypeIjLj4EEEEENS6_ItLj2EEELb0EEEEEE7bsearchIjEEPKSB_RKT_, symObjAddr: 0xF6AC, symBinAddr: 0x186E4, symSize: 0xA4 }
  - { offsetInCU: 0x7FACF, offset: 0x19D767, size: 0x8, addend: 0x0, symName: __ZNK3AAT13LookupFormat4IN2OT8OffsetToINS1_7ArrayOfINS_6AnchorENS1_7IntTypeIjLj4EEEEENS5_ItLj2EEELb0EEEE9get_valueEj, symObjAddr: 0xF630, symBinAddr: 0x18668, symSize: 0x7C }
  - { offsetInCU: 0x7FCFE, offset: 0x19D996, size: 0x8, addend: 0x0, symName: __ZNK2OT24VarSizedBinSearchArrayOfIN3AAT12LookupSingleINS_8OffsetToINS_7ArrayOfINS1_6AnchorENS_7IntTypeIjLj4EEEEENS6_ItLj2EEELb0EEEEEE7bsearchIjEEPKSB_RKT_, symObjAddr: 0xF7F4, symBinAddr: 0x1882C, symSize: 0x98 }
  - { offsetInCU: 0x7FF10, offset: 0x19DBA8, size: 0x8, addend: 0x0, symName: __ZNK2OT24VarSizedBinSearchArrayOfIN3AAT18LookupSegmentArrayINS_8OffsetToINS_7ArrayOfINS1_6AnchorENS_7IntTypeIjLj4EEEEENS6_ItLj2EEELb0EEEEEE7bsearchIjEEPKSB_RKT_, symObjAddr: 0xF750, symBinAddr: 0x18788, symSize: 0xA4 }
  - { offsetInCU: 0x80385, offset: 0x19E01D, size: 0x8, addend: 0x0, symName: __ZNK2OT17hb_kern_machine_tIN3AAT19KerxSubTableFormat6INS1_18KerxSubTableHeaderEE13accelerator_tEE4kernEP9hb_font_tP11hb_buffer_tjb, symObjAddr: 0xF900, symBinAddr: 0x18938, symSize: 0x354 }
  - { offsetInCU: 0x80B6E, offset: 0x19E806, size: 0x8, addend: 0x0, symName: __ZNK3AAT19KerxSubTableFormat6INS_18KerxSubTableHeaderEE11get_kerningEjjPNS_22hb_aat_apply_context_tE, symObjAddr: 0xFC54, symBinAddr: 0x18C8C, symSize: 0x228 }
  - { offsetInCU: 0x81614, offset: 0x19F2AC, size: 0x8, addend: 0x0, symName: __ZNK3AAT6LookupIN2OT7IntTypeItLj2EEEE17get_value_or_nullEjj, symObjAddr: 0xFEC0, symBinAddr: 0x18EF8, symSize: 0x48 }
  - { offsetInCU: 0x81717, offset: 0x19F3AF, size: 0x8, addend: 0x0, symName: __ZNK3AAT6LookupIN2OT7IntTypeIjLj4EEEE17get_value_or_nullEjj, symObjAddr: 0xFE7C, symBinAddr: 0x18EB4, symSize: 0x44 }
  - { offsetInCU: 0x8181B, offset: 0x19F4B3, size: 0x8, addend: 0x0, symName: __ZNK3AAT14LookupFormat10IN2OT7IntTypeIjLj4EEEE17get_value_or_nullEj, symObjAddr: 0xFF08, symBinAddr: 0x18F40, symSize: 0x7C }
  - { offsetInCU: 0x81887, offset: 0x19F51F, size: 0x8, addend: 0x0, symName: __ZNK3AAT14LookupFormat10IN2OT7IntTypeIjLj4EEEE17get_value_or_nullEj, symObjAddr: 0xFF08, symBinAddr: 0x18F40, symSize: 0x7C }
  - { offsetInCU: 0x818A7, offset: 0x19F53F, size: 0x8, addend: 0x0, symName: __ZNK3AAT14LookupFormat10IN2OT7IntTypeIjLj4EEEE17get_value_or_nullEj, symObjAddr: 0xFF08, symBinAddr: 0x18F40, symSize: 0x7C }
  - { offsetInCU: 0x81A62, offset: 0x19F6FA, size: 0x8, addend: 0x0, symName: __ZNK3AAT6LookupIN2OT7IntTypeIjLj4EEEE9get_valueEjj, symObjAddr: 0xFF84, symBinAddr: 0x18FBC, symSize: 0xD8 }
  - { offsetInCU: 0x81CA6, offset: 0x19F93E, size: 0x8, addend: 0x0, symName: __ZNK3AAT14LookupFormat10IN2OT7IntTypeItLj2EEEE17get_value_or_nullEj, symObjAddr: 0x10350, symBinAddr: 0x19388, symSize: 0x80 }
  - { offsetInCU: 0x81D12, offset: 0x19F9AA, size: 0x8, addend: 0x0, symName: __ZNK3AAT14LookupFormat10IN2OT7IntTypeItLj2EEEE17get_value_or_nullEj, symObjAddr: 0x10350, symBinAddr: 0x19388, symSize: 0x80 }
  - { offsetInCU: 0x81D32, offset: 0x19F9CA, size: 0x8, addend: 0x0, symName: __ZNK3AAT14LookupFormat10IN2OT7IntTypeItLj2EEEE17get_value_or_nullEj, symObjAddr: 0x10350, symBinAddr: 0x19388, symSize: 0x80 }
  - { offsetInCU: 0x81FD7, offset: 0x19FC6F, size: 0x8, addend: 0x0, symName: __ZNK2OT24VarSizedBinSearchArrayOfIN3AAT19LookupSegmentSingleINS_7IntTypeIjLj4EEEEEE7bsearchIjEEPKS5_RKT_, symObjAddr: 0x100D8, symBinAddr: 0x19110, symSize: 0xA4 }
  - { offsetInCU: 0x821C7, offset: 0x19FE5F, size: 0x8, addend: 0x0, symName: __ZNK3AAT13LookupFormat4IN2OT7IntTypeIjLj4EEEE9get_valueEj, symObjAddr: 0x1005C, symBinAddr: 0x19094, symSize: 0x7C }
  - { offsetInCU: 0x823F6, offset: 0x1A008E, size: 0x8, addend: 0x0, symName: __ZNK2OT24VarSizedBinSearchArrayOfIN3AAT12LookupSingleINS_7IntTypeIjLj4EEEEEE7bsearchIjEEPKS5_RKT_, symObjAddr: 0x1027C, symBinAddr: 0x192B4, symSize: 0x98 }
  - { offsetInCU: 0x825B1, offset: 0x1A0249, size: 0x8, addend: 0x0, symName: __ZNK2OT24VarSizedBinSearchArrayOfIN3AAT18LookupSegmentArrayINS_7IntTypeIjLj4EEEEEE7bsearchIjEEPKS5_RKT_, symObjAddr: 0x101D8, symBinAddr: 0x19210, symSize: 0xA4 }
  - { offsetInCU: 0x8283B, offset: 0x1A04D3, size: 0x8, addend: 0x0, symName: __ZNK2OT24VarSizedBinSearchArrayOfIN3AAT19LookupSegmentSingleINS_7IntTypeIjLj4EEEEEE18last_is_terminatorEv, symObjAddr: 0x1017C, symBinAddr: 0x191B4, symSize: 0x5C }
  - { offsetInCU: 0x82887, offset: 0x1A051F, size: 0x8, addend: 0x0, symName: __ZNK2OT24VarSizedBinSearchArrayOfIN3AAT19LookupSegmentSingleINS_7IntTypeIjLj4EEEEEE18last_is_terminatorEv, symObjAddr: 0x1017C, symBinAddr: 0x191B4, symSize: 0x5C }
  - { offsetInCU: 0x828A7, offset: 0x1A053F, size: 0x8, addend: 0x0, symName: __ZNK2OT24VarSizedBinSearchArrayOfIN3AAT19LookupSegmentSingleINS_7IntTypeIjLj4EEEEEE18last_is_terminatorEv, symObjAddr: 0x1017C, symBinAddr: 0x191B4, symSize: 0x5C }
  - { offsetInCU: 0x82A80, offset: 0x1A0718, size: 0x8, addend: 0x0, symName: __ZNK2OT24VarSizedBinSearchArrayOfIN3AAT12LookupSingleINS_7IntTypeIjLj4EEEEEE18last_is_terminatorEv, symObjAddr: 0x10314, symBinAddr: 0x1934C, symSize: 0x3C }
  - { offsetInCU: 0x82ACC, offset: 0x1A0764, size: 0x8, addend: 0x0, symName: __ZNK2OT24VarSizedBinSearchArrayOfIN3AAT12LookupSingleINS_7IntTypeIjLj4EEEEEE18last_is_terminatorEv, symObjAddr: 0x10314, symBinAddr: 0x1934C, symSize: 0x3C }
  - { offsetInCU: 0x82AEC, offset: 0x1A0784, size: 0x8, addend: 0x0, symName: __ZNK2OT24VarSizedBinSearchArrayOfIN3AAT12LookupSingleINS_7IntTypeIjLj4EEEEEE18last_is_terminatorEv, symObjAddr: 0x10314, symBinAddr: 0x1934C, symSize: 0x3C }
  - { offsetInCU: 0x82C09, offset: 0x1A08A1, size: 0x8, addend: 0x0, symName: __ZNK17hb_data_wrapper_tI9hb_face_tLj31EE11call_createI9hb_blob_t22hb_table_lazy_loader_tIN3AAT4trakELj31ELb0EEEEPT_v, symObjAddr: 0x10444, symBinAddr: 0x1947C, symSize: 0x50 }
  - { offsetInCU: 0x82CFB, offset: 0x1A0993, size: 0x8, addend: 0x0, symName: __ZN16hb_lazy_loader_tIN3AAT4trakE22hb_table_lazy_loader_tIS1_Lj31ELb0EE9hb_face_tLj31E9hb_blob_tE10do_destroyEPS5_, symObjAddr: 0x10494, symBinAddr: 0x194CC, symSize: 0x3C }
  - { offsetInCU: 0x82D9A, offset: 0x1A0A32, size: 0x8, addend: 0x0, symName: __ZN21hb_sanitize_context_t15reference_tableIN3AAT4trakEEEP9hb_blob_tPK9hb_face_tj, symObjAddr: 0x104D0, symBinAddr: 0x19508, symSize: 0x5C }
  - { offsetInCU: 0x82E72, offset: 0x1A0B0A, size: 0x8, addend: 0x0, symName: __ZN21hb_sanitize_context_t13sanitize_blobIN3AAT4trakEEEP9hb_blob_tS4_, symObjAddr: 0x1052C, symBinAddr: 0x19564, symSize: 0x168 }
  - { offsetInCU: 0x83087, offset: 0x1A0D1F, size: 0x8, addend: 0x0, symName: __ZNK3AAT4trak8sanitizeEP21hb_sanitize_context_t, symObjAddr: 0x10694, symBinAddr: 0x196CC, symSize: 0xA8 }
  - { offsetInCU: 0x831F5, offset: 0x1A0E8D, size: 0x8, addend: 0x0, symName: __ZNK2OT8OffsetToIN3AAT9TrackDataENS_7IntTypeItLj2EEELb1EE8sanitizeIJPKNS1_4trakEEEEbP21hb_sanitize_context_tPKvDpOT_, symObjAddr: 0x1073C, symBinAddr: 0x19774, symSize: 0xA4 }
  - { offsetInCU: 0x8367C, offset: 0x1A1314, size: 0x8, addend: 0x0, symName: __ZNK3AAT9TrackData8sanitizeEP21hb_sanitize_context_tPKv, symObjAddr: 0x107E0, symBinAddr: 0x19818, symSize: 0xA8 }
  - { offsetInCU: 0x837F2, offset: 0x1A148A, size: 0x8, addend: 0x0, symName: __ZNK2OT8OffsetToINS_14UnsizedArrayOfINS_7HBFixedINS_7IntTypeIiLj4EEELj16EEEEENS3_IjLj4EEELb0EE8sanitizeIJRKNS3_ItLj2EEEEEEbP21hb_sanitize_context_tPKvDpOT_, symObjAddr: 0x10888, symBinAddr: 0x198C0, symSize: 0x58 }
  - { offsetInCU: 0x83858, offset: 0x1A14F0, size: 0x8, addend: 0x0, symName: __ZNK2OT8OffsetToINS_14UnsizedArrayOfINS_7HBFixedINS_7IntTypeIiLj4EEELj16EEEEENS3_IjLj4EEELb0EE8sanitizeIJRKNS3_ItLj2EEEEEEbP21hb_sanitize_context_tPKvDpOT_, symObjAddr: 0x10888, symBinAddr: 0x198C0, symSize: 0x58 }
  - { offsetInCU: 0x83886, offset: 0x1A151E, size: 0x8, addend: 0x0, symName: __ZNK2OT8OffsetToINS_14UnsizedArrayOfINS_7HBFixedINS_7IntTypeIiLj4EEELj16EEEEENS3_IjLj4EEELb0EE8sanitizeIJRKNS3_ItLj2EEEEEEbP21hb_sanitize_context_tPKvDpOT_, symObjAddr: 0x10888, symBinAddr: 0x198C0, symSize: 0x58 }
  - { offsetInCU: 0x838AC, offset: 0x1A1544, size: 0x8, addend: 0x0, symName: __ZNK2OT8OffsetToINS_14UnsizedArrayOfINS_7HBFixedINS_7IntTypeIiLj4EEELj16EEEEENS3_IjLj4EEELb0EE8sanitizeIJRKNS3_ItLj2EEEEEEbP21hb_sanitize_context_tPKvDpOT_, symObjAddr: 0x10888, symBinAddr: 0x198C0, symSize: 0x58 }
  - { offsetInCU: 0x839F8, offset: 0x1A1690, size: 0x8, addend: 0x0, symName: __ZNK2OT14UnsizedArrayOfIN3AAT15TrackTableEntryEE8sanitizeIJRPKvRKNS_7IntTypeItLj2EEEEEEbP21hb_sanitize_context_tjDpOT_, symObjAddr: 0x108E0, symBinAddr: 0x19918, symSize: 0xC4 }
  - { offsetInCU: 0x83D79, offset: 0x1A1A11, size: 0x8, addend: 0x0, symName: __ZNK2OT14UnsizedArrayOfINS_7HBFixedINS_7IntTypeIiLj4EEELj16EEEE8sanitizeIJEEEbP21hb_sanitize_context_tjDpOT_, symObjAddr: 0x109A4, symBinAddr: 0x199DC, symSize: 0x54 }
  - { offsetInCU: 0x83DCE, offset: 0x1A1A66, size: 0x8, addend: 0x0, symName: __ZNK2OT14UnsizedArrayOfINS_7HBFixedINS_7IntTypeIiLj4EEELj16EEEE8sanitizeIJEEEbP21hb_sanitize_context_tjDpOT_, symObjAddr: 0x109A4, symBinAddr: 0x199DC, symSize: 0x54 }
  - { offsetInCU: 0x83DFC, offset: 0x1A1A94, size: 0x8, addend: 0x0, symName: __ZNK2OT14UnsizedArrayOfINS_7HBFixedINS_7IntTypeIiLj4EEELj16EEEE8sanitizeIJEEEbP21hb_sanitize_context_tjDpOT_, symObjAddr: 0x109A4, symBinAddr: 0x199DC, symSize: 0x54 }
  - { offsetInCU: 0x83E2A, offset: 0x1A1AC2, size: 0x8, addend: 0x0, symName: __ZNK2OT14UnsizedArrayOfINS_7HBFixedINS_7IntTypeIiLj4EEELj16EEEE8sanitizeIJEEEbP21hb_sanitize_context_tjDpOT_, symObjAddr: 0x109A4, symBinAddr: 0x199DC, symSize: 0x54 }
  - { offsetInCU: 0x84025, offset: 0x1A1CBD, size: 0x8, addend: 0x0, symName: __ZNK3AAT15TrackTableEntry8sanitizeEP21hb_sanitize_context_tPKvj, symObjAddr: 0x109F8, symBinAddr: 0x19A30, symSize: 0x68 }
  - { offsetInCU: 0x841F0, offset: 0x1A1E88, size: 0x8, addend: 0x0, symName: __ZNK2OT8OffsetToINS_14UnsizedArrayOfINS_7IntTypeIsLj2EEEEENS2_ItLj2EEELb0EE8sanitizeIJRjEEEbP21hb_sanitize_context_tPKvDpOT_, symObjAddr: 0x10A60, symBinAddr: 0x19A98, symSize: 0x54 }
  - { offsetInCU: 0x84256, offset: 0x1A1EEE, size: 0x8, addend: 0x0, symName: __ZNK2OT8OffsetToINS_14UnsizedArrayOfINS_7IntTypeIsLj2EEEEENS2_ItLj2EEELb0EE8sanitizeIJRjEEEbP21hb_sanitize_context_tPKvDpOT_, symObjAddr: 0x10A60, symBinAddr: 0x19A98, symSize: 0x54 }
  - { offsetInCU: 0x84284, offset: 0x1A1F1C, size: 0x8, addend: 0x0, symName: __ZNK2OT8OffsetToINS_14UnsizedArrayOfINS_7IntTypeIsLj2EEEEENS2_ItLj2EEELb0EE8sanitizeIJRjEEEbP21hb_sanitize_context_tPKvDpOT_, symObjAddr: 0x10A60, symBinAddr: 0x19A98, symSize: 0x54 }
  - { offsetInCU: 0x842AA, offset: 0x1A1F42, size: 0x8, addend: 0x0, symName: __ZNK2OT8OffsetToINS_14UnsizedArrayOfINS_7IntTypeIsLj2EEEEENS2_ItLj2EEELb0EE8sanitizeIJRjEEEbP21hb_sanitize_context_tPKvDpOT_, symObjAddr: 0x10A60, symBinAddr: 0x19A98, symSize: 0x54 }
  - { offsetInCU: 0x844EB, offset: 0x1A2183, size: 0x8, addend: 0x0, symName: __ZNK2OT14UnsizedArrayOfINS_7IntTypeIsLj2EEEE8sanitizeIJEEEbP21hb_sanitize_context_tjDpOT_, symObjAddr: 0x10AB4, symBinAddr: 0x19AEC, symSize: 0x50 }
  - { offsetInCU: 0x84540, offset: 0x1A21D8, size: 0x8, addend: 0x0, symName: __ZNK2OT14UnsizedArrayOfINS_7IntTypeIsLj2EEEE8sanitizeIJEEEbP21hb_sanitize_context_tjDpOT_, symObjAddr: 0x10AB4, symBinAddr: 0x19AEC, symSize: 0x50 }
  - { offsetInCU: 0x8456E, offset: 0x1A2206, size: 0x8, addend: 0x0, symName: __ZNK2OT14UnsizedArrayOfINS_7IntTypeIsLj2EEEE8sanitizeIJEEEbP21hb_sanitize_context_tjDpOT_, symObjAddr: 0x10AB4, symBinAddr: 0x19AEC, symSize: 0x50 }
  - { offsetInCU: 0x8459C, offset: 0x1A2234, size: 0x8, addend: 0x0, symName: __ZNK2OT14UnsizedArrayOfINS_7IntTypeIsLj2EEEE8sanitizeIJEEEbP21hb_sanitize_context_tjDpOT_, symObjAddr: 0x10AB4, symBinAddr: 0x19AEC, symSize: 0x50 }
  - { offsetInCU: 0x846BC, offset: 0x1A2354, size: 0x8, addend: 0x0, symName: __ZNK17hb_data_wrapper_tI9hb_face_tLj33EE11call_createI9hb_blob_t22hb_table_lazy_loader_tIN3AAT4featELj33ELb0EEEEPT_v, symObjAddr: 0x10B7C, symBinAddr: 0x19BB4, symSize: 0x54 }
  - { offsetInCU: 0x847AE, offset: 0x1A2446, size: 0x8, addend: 0x0, symName: __ZN16hb_lazy_loader_tIN3AAT4featE22hb_table_lazy_loader_tIS1_Lj33ELb0EE9hb_face_tLj33E9hb_blob_tE10do_destroyEPS5_, symObjAddr: 0x10BD0, symBinAddr: 0x19C08, symSize: 0x3C }
  - { offsetInCU: 0x8484D, offset: 0x1A24E5, size: 0x8, addend: 0x0, symName: __ZN21hb_sanitize_context_t15reference_tableIN3AAT4featEEEP9hb_blob_tPK9hb_face_tj, symObjAddr: 0x10C0C, symBinAddr: 0x19C44, symSize: 0x5C }
  - { offsetInCU: 0x84925, offset: 0x1A25BD, size: 0x8, addend: 0x0, symName: __ZN21hb_sanitize_context_t13sanitize_blobIN3AAT4featEEEP9hb_blob_tS4_, symObjAddr: 0x10C68, symBinAddr: 0x19CA0, symSize: 0x168 }
  - { offsetInCU: 0x84B3A, offset: 0x1A27D2, size: 0x8, addend: 0x0, symName: __ZNK3AAT4feat8sanitizeEP21hb_sanitize_context_t, symObjAddr: 0x10DD0, symBinAddr: 0x19E08, symSize: 0x80 }
  - { offsetInCU: 0x84C9E, offset: 0x1A2936, size: 0x8, addend: 0x0, symName: __ZNK2OT14UnsizedArrayOfIN3AAT11FeatureNameEE8sanitizeIJPKNS1_4featEEEEbP21hb_sanitize_context_tjDpOT_, symObjAddr: 0x10E50, symBinAddr: 0x19E88, symSize: 0xBC }
  - { offsetInCU: 0x85011, offset: 0x1A2CA9, size: 0x8, addend: 0x0, symName: __ZNK3AAT11FeatureName8sanitizeEP21hb_sanitize_context_tPKv, symObjAddr: 0x10F0C, symBinAddr: 0x19F44, symSize: 0x58 }
  - { offsetInCU: 0x85065, offset: 0x1A2CFD, size: 0x8, addend: 0x0, symName: __ZNK3AAT11FeatureName8sanitizeEP21hb_sanitize_context_tPKv, symObjAddr: 0x10F0C, symBinAddr: 0x19F44, symSize: 0x58 }
  - { offsetInCU: 0x8508A, offset: 0x1A2D22, size: 0x8, addend: 0x0, symName: __ZNK3AAT11FeatureName8sanitizeEP21hb_sanitize_context_tPKv, symObjAddr: 0x10F0C, symBinAddr: 0x19F44, symSize: 0x58 }
  - { offsetInCU: 0x851EA, offset: 0x1A2E82, size: 0x8, addend: 0x0, symName: __ZNK2OT14UnsizedArrayOfIN3AAT11SettingNameEE8sanitizeIJEEEbP21hb_sanitize_context_tjDpOT_, symObjAddr: 0x10F64, symBinAddr: 0x19F9C, symSize: 0x54 }
  - { offsetInCU: 0x8523F, offset: 0x1A2ED7, size: 0x8, addend: 0x0, symName: __ZNK2OT14UnsizedArrayOfIN3AAT11SettingNameEE8sanitizeIJEEEbP21hb_sanitize_context_tjDpOT_, symObjAddr: 0x10F64, symBinAddr: 0x19F9C, symSize: 0x54 }
  - { offsetInCU: 0x8526D, offset: 0x1A2F05, size: 0x8, addend: 0x0, symName: __ZNK2OT14UnsizedArrayOfIN3AAT11SettingNameEE8sanitizeIJEEEbP21hb_sanitize_context_tjDpOT_, symObjAddr: 0x10F64, symBinAddr: 0x19F9C, symSize: 0x54 }
  - { offsetInCU: 0x8529B, offset: 0x1A2F33, size: 0x8, addend: 0x0, symName: __ZNK2OT14UnsizedArrayOfIN3AAT11SettingNameEE8sanitizeIJEEEbP21hb_sanitize_context_tjDpOT_, symObjAddr: 0x10F64, symBinAddr: 0x19F9C, symSize: 0x54 }
  - { offsetInCU: 0x26, offset: 0x1A3237, size: 0x8, addend: 0x0, symName: __ZN20hb_aat_map_builder_t11add_featureEjj, symObjAddr: 0x0, symBinAddr: 0x19FF0, symSize: 0x190 }
  - { offsetInCU: 0xA902, offset: 0x1ADB13, size: 0x8, addend: 0x0, symName: __ZN20hb_aat_map_builder_t11add_featureEjj, symObjAddr: 0x0, symBinAddr: 0x19FF0, symSize: 0x190 }
  - { offsetInCU: 0xB0ED, offset: 0x1AE2FE, size: 0x8, addend: 0x0, symName: __ZN11hb_vector_tIN20hb_aat_map_builder_t14feature_info_tELb1EE4pushEv, symObjAddr: 0x190, symBinAddr: 0x1A180, symSize: 0x84 }
  - { offsetInCU: 0xB2F1, offset: 0x1AE502, size: 0x8, addend: 0x0, symName: __ZN11hb_vector_tIN20hb_aat_map_builder_t14feature_info_tELb1EE5allocEj, symObjAddr: 0x944, symBinAddr: 0x1A40C, symSize: 0x88 }
  - { offsetInCU: 0xB73A, offset: 0x1AE94B, size: 0x8, addend: 0x0, symName: __ZN20hb_aat_map_builder_t7compileER12hb_aat_map_t, symObjAddr: 0x288, symBinAddr: 0x1A204, symSize: 0x1B4 }
  - { offsetInCU: 0xBB9A, offset: 0x1AEDAB, size: 0x8, addend: 0x0, symName: __ZN20hb_aat_map_builder_t14feature_info_t3cmpEPKvS2_, symObjAddr: 0x43C, symBinAddr: 0x1A3B8, symSize: 0x54 }
  - { offsetInCU: 0x26, offset: 0x1AFB90, size: 0x8, addend: 0x0, symName: _hb_blob_create, symObjAddr: 0x0, symBinAddr: 0x1A494, symSize: 0x40 }
  - { offsetInCU: 0x31AB, offset: 0x1B2D15, size: 0x8, addend: 0x0, symName: _hb_blob_create, symObjAddr: 0x0, symBinAddr: 0x1A494, symSize: 0x40 }
  - { offsetInCU: 0x3216, offset: 0x1B2D80, size: 0x8, addend: 0x0, symName: _hb_blob_create_or_fail, symObjAddr: 0x4C, symBinAddr: 0x1A4E0, symSize: 0xB4 }
  - { offsetInCU: 0x3468, offset: 0x1B2FD2, size: 0x8, addend: 0x0, symName: _hb_blob_get_empty, symObjAddr: 0x40, symBinAddr: 0x1A4D4, symSize: 0xC }
  - { offsetInCU: 0x3609, offset: 0x1B3173, size: 0x8, addend: 0x0, symName: __ZN9hb_blob_t17try_make_writableEv, symObjAddr: 0x100, symBinAddr: 0x1A594, symSize: 0xA8 }
  - { offsetInCU: 0x36BD, offset: 0x1B3227, size: 0x8, addend: 0x0, symName: _hb_blob_destroy, symObjAddr: 0x1A8, symBinAddr: 0x1A63C, symSize: 0x98 }
  - { offsetInCU: 0x3E42, offset: 0x1B39AC, size: 0x8, addend: 0x0, symName: _hb_blob_create_sub_blob, symObjAddr: 0x240, symBinAddr: 0x1A6D4, symSize: 0xD8 }
  - { offsetInCU: 0x4316, offset: 0x1B3E80, size: 0x8, addend: 0x0, symName: _hb_blob_make_immutable, symObjAddr: 0x318, symBinAddr: 0x1A7AC, symSize: 0x10 }
  - { offsetInCU: 0x4336, offset: 0x1B3EA0, size: 0x8, addend: 0x0, symName: _hb_blob_make_immutable, symObjAddr: 0x318, symBinAddr: 0x1A7AC, symSize: 0x10 }
  - { offsetInCU: 0x4354, offset: 0x1B3EBE, size: 0x8, addend: 0x0, symName: _hb_blob_make_immutable, symObjAddr: 0x318, symBinAddr: 0x1A7AC, symSize: 0x10 }
  - { offsetInCU: 0x4373, offset: 0x1B3EDD, size: 0x8, addend: 0x0, symName: _hb_blob_make_immutable, symObjAddr: 0x318, symBinAddr: 0x1A7AC, symSize: 0x10 }
  - { offsetInCU: 0x43EB, offset: 0x1B3F55, size: 0x8, addend: 0x0, symName: _hb_blob_reference, symObjAddr: 0x328, symBinAddr: 0x1A7BC, symSize: 0x24 }
  - { offsetInCU: 0x440B, offset: 0x1B3F75, size: 0x8, addend: 0x0, symName: _hb_blob_reference, symObjAddr: 0x328, symBinAddr: 0x1A7BC, symSize: 0x24 }
  - { offsetInCU: 0x4428, offset: 0x1B3F92, size: 0x8, addend: 0x0, symName: _hb_blob_reference, symObjAddr: 0x328, symBinAddr: 0x1A7BC, symSize: 0x24 }
  - { offsetInCU: 0x4544, offset: 0x1B40AE, size: 0x8, addend: 0x0, symName: __ZL16_hb_blob_destroyPv, symObjAddr: 0x34C, symBinAddr: 0x1A7E0, symSize: 0x4 }
  - { offsetInCU: 0x4570, offset: 0x1B40DA, size: 0x8, addend: 0x0, symName: __ZL16_hb_blob_destroyPv, symObjAddr: 0x34C, symBinAddr: 0x1A7E0, symSize: 0x4 }
  - { offsetInCU: 0x4584, offset: 0x1B40EE, size: 0x8, addend: 0x0, symName: _hb_blob_copy_writable_or_fail, symObjAddr: 0x350, symBinAddr: 0x1A7E4, symSize: 0x44 }
  - { offsetInCU: 0x4757, offset: 0x1B42C1, size: 0x8, addend: 0x0, symName: _hb_blob_set_user_data, symObjAddr: 0x394, symBinAddr: 0x1A828, symSize: 0xC8 }
  - { offsetInCU: 0x4AB6, offset: 0x1B4620, size: 0x8, addend: 0x0, symName: _hb_blob_get_user_data, symObjAddr: 0x45C, symBinAddr: 0x1A8F0, symSize: 0x24 }
  - { offsetInCU: 0x4AF5, offset: 0x1B465F, size: 0x8, addend: 0x0, symName: _hb_blob_get_user_data, symObjAddr: 0x45C, symBinAddr: 0x1A8F0, symSize: 0x24 }
  - { offsetInCU: 0x4BBD, offset: 0x1B4727, size: 0x8, addend: 0x0, symName: _hb_blob_is_immutable, symObjAddr: 0x480, symBinAddr: 0x1A914, symSize: 0x10 }
  - { offsetInCU: 0x4BED, offset: 0x1B4757, size: 0x8, addend: 0x0, symName: _hb_blob_is_immutable, symObjAddr: 0x480, symBinAddr: 0x1A914, symSize: 0x10 }
  - { offsetInCU: 0x4C0B, offset: 0x1B4775, size: 0x8, addend: 0x0, symName: _hb_blob_is_immutable, symObjAddr: 0x480, symBinAddr: 0x1A914, symSize: 0x10 }
  - { offsetInCU: 0x4C2A, offset: 0x1B4794, size: 0x8, addend: 0x0, symName: _hb_blob_is_immutable, symObjAddr: 0x480, symBinAddr: 0x1A914, symSize: 0x10 }
  - { offsetInCU: 0x4C49, offset: 0x1B47B3, size: 0x8, addend: 0x0, symName: _hb_blob_get_length, symObjAddr: 0x490, symBinAddr: 0x1A924, symSize: 0x8 }
  - { offsetInCU: 0x4C76, offset: 0x1B47E0, size: 0x8, addend: 0x0, symName: _hb_blob_get_data, symObjAddr: 0x498, symBinAddr: 0x1A92C, symSize: 0x14 }
  - { offsetInCU: 0x4CB2, offset: 0x1B481C, size: 0x8, addend: 0x0, symName: _hb_blob_get_data_writable, symObjAddr: 0x4AC, symBinAddr: 0x1A940, symSize: 0x50 }
  - { offsetInCU: 0x4D5D, offset: 0x1B48C7, size: 0x8, addend: 0x0, symName: _hb_blob_create_from_file, symObjAddr: 0x514, symBinAddr: 0x1A990, symSize: 0x24 }
  - { offsetInCU: 0x4DB2, offset: 0x1B491C, size: 0x8, addend: 0x0, symName: _hb_blob_create_from_file_or_fail, symObjAddr: 0x538, symBinAddr: 0x1A9B4, symSize: 0x144 }
  - { offsetInCU: 0x26, offset: 0x1B4DC2, size: 0x8, addend: 0x0, symName: _hb_segment_properties_equal, symObjAddr: 0x0, symBinAddr: 0x1AAF8, symSize: 0x5C }
  - { offsetInCU: 0x41, offset: 0x1B4DDD, size: 0x8, addend: 0x0, symName: __hb_Null_hb_buffer_t, symObjAddr: 0x2F40, symBinAddr: 0x13A190, symSize: 0x0 }
  - { offsetInCU: 0x6FDC, offset: 0x1BBD78, size: 0x8, addend: 0x0, symName: _hb_segment_properties_equal, symObjAddr: 0x0, symBinAddr: 0x1AAF8, symSize: 0x5C }
  - { offsetInCU: 0x7015, offset: 0x1BBDB1, size: 0x8, addend: 0x0, symName: _hb_segment_properties_hash, symObjAddr: 0x5C, symBinAddr: 0x1AB54, symSize: 0x24 }
  - { offsetInCU: 0x7040, offset: 0x1BBDDC, size: 0x8, addend: 0x0, symName: _hb_segment_properties_overlay, symObjAddr: 0x80, symBinAddr: 0x1AB78, symSize: 0x58 }
  - { offsetInCU: 0x70BA, offset: 0x1BBE56, size: 0x8, addend: 0x0, symName: __ZN11hb_buffer_t7enlargeEj, symObjAddr: 0xD8, symBinAddr: 0x1ABD0, symSize: 0x120 }
  - { offsetInCU: 0x71D1, offset: 0x1BBF6D, size: 0x8, addend: 0x0, symName: __ZN11hb_buffer_t13make_room_forEjj, symObjAddr: 0x1F8, symBinAddr: 0x1ACF0, symSize: 0x94 }
  - { offsetInCU: 0x72AC, offset: 0x1BC048, size: 0x8, addend: 0x0, symName: __ZN11hb_buffer_t13shift_forwardEj, symObjAddr: 0x28C, symBinAddr: 0x1AD84, symSize: 0xAC }
  - { offsetInCU: 0x7344, offset: 0x1BC0E0, size: 0x8, addend: 0x0, symName: __ZN11hb_buffer_t7similarERKS_, symObjAddr: 0x360, symBinAddr: 0x1AE30, symSize: 0x50 }
  - { offsetInCU: 0x73E3, offset: 0x1BC17F, size: 0x8, addend: 0x0, symName: __ZN11hb_buffer_t5resetEv, symObjAddr: 0x3B0, symBinAddr: 0x1AE80, symSize: 0x70 }
  - { offsetInCU: 0x74A9, offset: 0x1BC245, size: 0x8, addend: 0x0, symName: __ZN11hb_buffer_t5enterEv, symObjAddr: 0x458, symBinAddr: 0x1AEF0, symSize: 0x48 }
  - { offsetInCU: 0x74E1, offset: 0x1BC27D, size: 0x8, addend: 0x0, symName: __ZN11hb_buffer_t5enterEv, symObjAddr: 0x458, symBinAddr: 0x1AEF0, symSize: 0x48 }
  - { offsetInCU: 0x754A, offset: 0x1BC2E6, size: 0x8, addend: 0x0, symName: __ZN11hb_buffer_t5leaveEv, symObjAddr: 0x4A0, symBinAddr: 0x1AF38, symSize: 0x14 }
  - { offsetInCU: 0x7591, offset: 0x1BC32D, size: 0x8, addend: 0x0, symName: __ZN11hb_buffer_t3addEjj, symObjAddr: 0x4B4, symBinAddr: 0x1AF4C, symSize: 0x88 }
  - { offsetInCU: 0x7654, offset: 0x1BC3F0, size: 0x8, addend: 0x0, symName: __ZN11hb_buffer_t8add_infoERK15hb_glyph_info_t, symObjAddr: 0x53C, symBinAddr: 0x1AFD4, symSize: 0x7C }
  - { offsetInCU: 0x76C8, offset: 0x1BC464, size: 0x8, addend: 0x0, symName: __ZN11hb_buffer_t12clear_outputEv, symObjAddr: 0x5B8, symBinAddr: 0x1B050, symSize: 0x1C }
  - { offsetInCU: 0x76F0, offset: 0x1BC48C, size: 0x8, addend: 0x0, symName: __ZN11hb_buffer_t15clear_positionsEv, symObjAddr: 0x5D4, symBinAddr: 0x1B06C, symSize: 0x30 }
  - { offsetInCU: 0x773B, offset: 0x1BC4D7, size: 0x8, addend: 0x0, symName: __ZN11hb_buffer_t4syncEv, symObjAddr: 0x604, symBinAddr: 0x1B09C, symSize: 0x74 }
  - { offsetInCU: 0x779D, offset: 0x1BC539, size: 0x8, addend: 0x0, symName: __ZN11hb_buffer_t11next_glyphsEj, symObjAddr: 0x678, symBinAddr: 0x1B110, symSize: 0x94 }
  - { offsetInCU: 0x77F9, offset: 0x1BC595, size: 0x8, addend: 0x0, symName: __ZN11hb_buffer_t11sync_so_farEv, symObjAddr: 0x70C, symBinAddr: 0x1B1A4, symSize: 0x54 }
  - { offsetInCU: 0x787A, offset: 0x1BC616, size: 0x8, addend: 0x0, symName: __ZN11hb_buffer_t7move_toEj, symObjAddr: 0x760, symBinAddr: 0x1B1F8, symSize: 0xEC }
  - { offsetInCU: 0x792D, offset: 0x1BC6C9, size: 0x8, addend: 0x0, symName: __ZN11hb_buffer_t9set_masksEjjjj, symObjAddr: 0x84C, symBinAddr: 0x1B2E4, symSize: 0x4C }
  - { offsetInCU: 0x7A7D, offset: 0x1BC819, size: 0x8, addend: 0x0, symName: __ZN11hb_buffer_t19merge_clusters_implEjj, symObjAddr: 0x898, symBinAddr: 0x1B330, symSize: 0x194 }
  - { offsetInCU: 0x7E51, offset: 0x1BCBED, size: 0x8, addend: 0x0, symName: __ZN11hb_buffer_t18merge_out_clustersEjj, symObjAddr: 0xA2C, symBinAddr: 0x1B4C4, symSize: 0x17C }
  - { offsetInCU: 0x7FBD, offset: 0x1BCD59, size: 0x8, addend: 0x0, symName: __ZN11hb_buffer_t12delete_glyphEv, symObjAddr: 0xBA8, symBinAddr: 0x1B640, symSize: 0xD0 }
  - { offsetInCU: 0x80C4, offset: 0x1BCE60, size: 0x8, addend: 0x0, symName: __ZN11hb_buffer_t21delete_glyphs_inplaceEPFbPK15hb_glyph_info_tE, symObjAddr: 0xC78, symBinAddr: 0x1B710, symSize: 0x160 }
  - { offsetInCU: 0x8241, offset: 0x1BCFDD, size: 0x8, addend: 0x0, symName: __ZN11hb_buffer_t24guess_segment_propertiesEv, symObjAddr: 0xDD8, symBinAddr: 0x1B870, symSize: 0xD0 }
  - { offsetInCU: 0x849F, offset: 0x1BD23B, size: 0x8, addend: 0x0, symName: _hb_buffer_create, symObjAddr: 0xEA8, symBinAddr: 0x1B940, symSize: 0x60 }
  - { offsetInCU: 0x869C, offset: 0x1BD438, size: 0x8, addend: 0x0, symName: _hb_buffer_get_empty, symObjAddr: 0xF08, symBinAddr: 0x1B9A0, symSize: 0xC }
  - { offsetInCU: 0x86B7, offset: 0x1BD453, size: 0x8, addend: 0x0, symName: _hb_buffer_create_similar, symObjAddr: 0xF14, symBinAddr: 0x1B9AC, symSize: 0x30 }
  - { offsetInCU: 0x8741, offset: 0x1BD4DD, size: 0x8, addend: 0x0, symName: _hb_buffer_reset, symObjAddr: 0xF44, symBinAddr: 0x1B9DC, symSize: 0x10 }
  - { offsetInCU: 0x876A, offset: 0x1BD506, size: 0x8, addend: 0x0, symName: _hb_buffer_reset, symObjAddr: 0xF44, symBinAddr: 0x1B9DC, symSize: 0x10 }
  - { offsetInCU: 0x8788, offset: 0x1BD524, size: 0x8, addend: 0x0, symName: _hb_buffer_reset, symObjAddr: 0xF44, symBinAddr: 0x1B9DC, symSize: 0x10 }
  - { offsetInCU: 0x87A7, offset: 0x1BD543, size: 0x8, addend: 0x0, symName: _hb_buffer_reset, symObjAddr: 0xF44, symBinAddr: 0x1B9DC, symSize: 0x10 }
  - { offsetInCU: 0x8844, offset: 0x1BD5E0, size: 0x8, addend: 0x0, symName: _hb_buffer_reference, symObjAddr: 0xF54, symBinAddr: 0x1B9EC, symSize: 0x24 }
  - { offsetInCU: 0x8871, offset: 0x1BD60D, size: 0x8, addend: 0x0, symName: _hb_buffer_reference, symObjAddr: 0xF54, symBinAddr: 0x1B9EC, symSize: 0x24 }
  - { offsetInCU: 0x888F, offset: 0x1BD62B, size: 0x8, addend: 0x0, symName: _hb_buffer_reference, symObjAddr: 0xF54, symBinAddr: 0x1B9EC, symSize: 0x24 }
  - { offsetInCU: 0x8A97, offset: 0x1BD833, size: 0x8, addend: 0x0, symName: _hb_buffer_destroy, symObjAddr: 0xF78, symBinAddr: 0x1BA10, symSize: 0xAC }
  - { offsetInCU: 0x9008, offset: 0x1BDDA4, size: 0x8, addend: 0x0, symName: _hb_buffer_set_user_data, symObjAddr: 0x1024, symBinAddr: 0x1BABC, symSize: 0xC8 }
  - { offsetInCU: 0x9321, offset: 0x1BE0BD, size: 0x8, addend: 0x0, symName: _hb_buffer_get_user_data, symObjAddr: 0x10EC, symBinAddr: 0x1BB84, symSize: 0x24 }
  - { offsetInCU: 0x935F, offset: 0x1BE0FB, size: 0x8, addend: 0x0, symName: _hb_buffer_get_user_data, symObjAddr: 0x10EC, symBinAddr: 0x1BB84, symSize: 0x24 }
  - { offsetInCU: 0x9428, offset: 0x1BE1C4, size: 0x8, addend: 0x0, symName: _hb_buffer_set_content_type, symObjAddr: 0x1110, symBinAddr: 0x1BBA8, symSize: 0x8 }
  - { offsetInCU: 0x945E, offset: 0x1BE1FA, size: 0x8, addend: 0x0, symName: _hb_buffer_get_content_type, symObjAddr: 0x1118, symBinAddr: 0x1BBB0, symSize: 0x8 }
  - { offsetInCU: 0x948B, offset: 0x1BE227, size: 0x8, addend: 0x0, symName: _hb_buffer_set_unicode_funcs, symObjAddr: 0x1120, symBinAddr: 0x1BBB8, symSize: 0x48 }
  - { offsetInCU: 0x9556, offset: 0x1BE2F2, size: 0x8, addend: 0x0, symName: _hb_buffer_get_unicode_funcs, symObjAddr: 0x1168, symBinAddr: 0x1BC00, symSize: 0x8 }
  - { offsetInCU: 0x9583, offset: 0x1BE31F, size: 0x8, addend: 0x0, symName: _hb_buffer_set_direction, symObjAddr: 0x1170, symBinAddr: 0x1BC08, symSize: 0x10 }
  - { offsetInCU: 0x95BB, offset: 0x1BE357, size: 0x8, addend: 0x0, symName: _hb_buffer_set_direction, symObjAddr: 0x1170, symBinAddr: 0x1BC08, symSize: 0x10 }
  - { offsetInCU: 0x95D9, offset: 0x1BE375, size: 0x8, addend: 0x0, symName: _hb_buffer_set_direction, symObjAddr: 0x1170, symBinAddr: 0x1BC08, symSize: 0x10 }
  - { offsetInCU: 0x95F8, offset: 0x1BE394, size: 0x8, addend: 0x0, symName: _hb_buffer_set_direction, symObjAddr: 0x1170, symBinAddr: 0x1BC08, symSize: 0x10 }
  - { offsetInCU: 0x9618, offset: 0x1BE3B4, size: 0x8, addend: 0x0, symName: _hb_buffer_get_direction, symObjAddr: 0x1180, symBinAddr: 0x1BC18, symSize: 0x8 }
  - { offsetInCU: 0x9645, offset: 0x1BE3E1, size: 0x8, addend: 0x0, symName: _hb_buffer_set_script, symObjAddr: 0x1188, symBinAddr: 0x1BC20, symSize: 0x10 }
  - { offsetInCU: 0x967D, offset: 0x1BE419, size: 0x8, addend: 0x0, symName: _hb_buffer_set_script, symObjAddr: 0x1188, symBinAddr: 0x1BC20, symSize: 0x10 }
  - { offsetInCU: 0x969B, offset: 0x1BE437, size: 0x8, addend: 0x0, symName: _hb_buffer_set_script, symObjAddr: 0x1188, symBinAddr: 0x1BC20, symSize: 0x10 }
  - { offsetInCU: 0x96BA, offset: 0x1BE456, size: 0x8, addend: 0x0, symName: _hb_buffer_set_script, symObjAddr: 0x1188, symBinAddr: 0x1BC20, symSize: 0x10 }
  - { offsetInCU: 0x96DA, offset: 0x1BE476, size: 0x8, addend: 0x0, symName: _hb_buffer_get_script, symObjAddr: 0x1198, symBinAddr: 0x1BC30, symSize: 0x8 }
  - { offsetInCU: 0x9707, offset: 0x1BE4A3, size: 0x8, addend: 0x0, symName: _hb_buffer_set_language, symObjAddr: 0x11A0, symBinAddr: 0x1BC38, symSize: 0x10 }
  - { offsetInCU: 0x973F, offset: 0x1BE4DB, size: 0x8, addend: 0x0, symName: _hb_buffer_set_language, symObjAddr: 0x11A0, symBinAddr: 0x1BC38, symSize: 0x10 }
  - { offsetInCU: 0x975D, offset: 0x1BE4F9, size: 0x8, addend: 0x0, symName: _hb_buffer_set_language, symObjAddr: 0x11A0, symBinAddr: 0x1BC38, symSize: 0x10 }
  - { offsetInCU: 0x977C, offset: 0x1BE518, size: 0x8, addend: 0x0, symName: _hb_buffer_set_language, symObjAddr: 0x11A0, symBinAddr: 0x1BC38, symSize: 0x10 }
  - { offsetInCU: 0x979C, offset: 0x1BE538, size: 0x8, addend: 0x0, symName: _hb_buffer_get_language, symObjAddr: 0x11B0, symBinAddr: 0x1BC48, symSize: 0x8 }
  - { offsetInCU: 0x97C9, offset: 0x1BE565, size: 0x8, addend: 0x0, symName: _hb_buffer_set_segment_properties, symObjAddr: 0x11B8, symBinAddr: 0x1BC50, symSize: 0x14 }
  - { offsetInCU: 0x9801, offset: 0x1BE59D, size: 0x8, addend: 0x0, symName: _hb_buffer_set_segment_properties, symObjAddr: 0x11B8, symBinAddr: 0x1BC50, symSize: 0x14 }
  - { offsetInCU: 0x981F, offset: 0x1BE5BB, size: 0x8, addend: 0x0, symName: _hb_buffer_set_segment_properties, symObjAddr: 0x11B8, symBinAddr: 0x1BC50, symSize: 0x14 }
  - { offsetInCU: 0x983E, offset: 0x1BE5DA, size: 0x8, addend: 0x0, symName: _hb_buffer_set_segment_properties, symObjAddr: 0x11B8, symBinAddr: 0x1BC50, symSize: 0x14 }
  - { offsetInCU: 0x985E, offset: 0x1BE5FA, size: 0x8, addend: 0x0, symName: _hb_buffer_get_segment_properties, symObjAddr: 0x11CC, symBinAddr: 0x1BC64, symSize: 0xC }
  - { offsetInCU: 0x9894, offset: 0x1BE630, size: 0x8, addend: 0x0, symName: _hb_buffer_set_flags, symObjAddr: 0x11D8, symBinAddr: 0x1BC70, symSize: 0x10 }
  - { offsetInCU: 0x98CC, offset: 0x1BE668, size: 0x8, addend: 0x0, symName: _hb_buffer_set_flags, symObjAddr: 0x11D8, symBinAddr: 0x1BC70, symSize: 0x10 }
  - { offsetInCU: 0x98EA, offset: 0x1BE686, size: 0x8, addend: 0x0, symName: _hb_buffer_set_flags, symObjAddr: 0x11D8, symBinAddr: 0x1BC70, symSize: 0x10 }
  - { offsetInCU: 0x9909, offset: 0x1BE6A5, size: 0x8, addend: 0x0, symName: _hb_buffer_set_flags, symObjAddr: 0x11D8, symBinAddr: 0x1BC70, symSize: 0x10 }
  - { offsetInCU: 0x9929, offset: 0x1BE6C5, size: 0x8, addend: 0x0, symName: _hb_buffer_get_flags, symObjAddr: 0x11E8, symBinAddr: 0x1BC80, symSize: 0x8 }
  - { offsetInCU: 0x9956, offset: 0x1BE6F2, size: 0x8, addend: 0x0, symName: _hb_buffer_set_cluster_level, symObjAddr: 0x11F0, symBinAddr: 0x1BC88, symSize: 0x10 }
  - { offsetInCU: 0x998E, offset: 0x1BE72A, size: 0x8, addend: 0x0, symName: _hb_buffer_set_cluster_level, symObjAddr: 0x11F0, symBinAddr: 0x1BC88, symSize: 0x10 }
  - { offsetInCU: 0x99AC, offset: 0x1BE748, size: 0x8, addend: 0x0, symName: _hb_buffer_set_cluster_level, symObjAddr: 0x11F0, symBinAddr: 0x1BC88, symSize: 0x10 }
  - { offsetInCU: 0x99CB, offset: 0x1BE767, size: 0x8, addend: 0x0, symName: _hb_buffer_set_cluster_level, symObjAddr: 0x11F0, symBinAddr: 0x1BC88, symSize: 0x10 }
  - { offsetInCU: 0x99EB, offset: 0x1BE787, size: 0x8, addend: 0x0, symName: _hb_buffer_get_cluster_level, symObjAddr: 0x1200, symBinAddr: 0x1BC98, symSize: 0x8 }
  - { offsetInCU: 0x9A18, offset: 0x1BE7B4, size: 0x8, addend: 0x0, symName: _hb_buffer_set_replacement_codepoint, symObjAddr: 0x1208, symBinAddr: 0x1BCA0, symSize: 0x10 }
  - { offsetInCU: 0x9A50, offset: 0x1BE7EC, size: 0x8, addend: 0x0, symName: _hb_buffer_set_replacement_codepoint, symObjAddr: 0x1208, symBinAddr: 0x1BCA0, symSize: 0x10 }
  - { offsetInCU: 0x9A6E, offset: 0x1BE80A, size: 0x8, addend: 0x0, symName: _hb_buffer_set_replacement_codepoint, symObjAddr: 0x1208, symBinAddr: 0x1BCA0, symSize: 0x10 }
  - { offsetInCU: 0x9A8D, offset: 0x1BE829, size: 0x8, addend: 0x0, symName: _hb_buffer_set_replacement_codepoint, symObjAddr: 0x1208, symBinAddr: 0x1BCA0, symSize: 0x10 }
  - { offsetInCU: 0x9AAD, offset: 0x1BE849, size: 0x8, addend: 0x0, symName: _hb_buffer_get_replacement_codepoint, symObjAddr: 0x1218, symBinAddr: 0x1BCB0, symSize: 0x8 }
  - { offsetInCU: 0x9ADA, offset: 0x1BE876, size: 0x8, addend: 0x0, symName: _hb_buffer_set_invisible_glyph, symObjAddr: 0x1220, symBinAddr: 0x1BCB8, symSize: 0x10 }
  - { offsetInCU: 0x9B12, offset: 0x1BE8AE, size: 0x8, addend: 0x0, symName: _hb_buffer_set_invisible_glyph, symObjAddr: 0x1220, symBinAddr: 0x1BCB8, symSize: 0x10 }
  - { offsetInCU: 0x9B30, offset: 0x1BE8CC, size: 0x8, addend: 0x0, symName: _hb_buffer_set_invisible_glyph, symObjAddr: 0x1220, symBinAddr: 0x1BCB8, symSize: 0x10 }
  - { offsetInCU: 0x9B4F, offset: 0x1BE8EB, size: 0x8, addend: 0x0, symName: _hb_buffer_set_invisible_glyph, symObjAddr: 0x1220, symBinAddr: 0x1BCB8, symSize: 0x10 }
  - { offsetInCU: 0x9B6F, offset: 0x1BE90B, size: 0x8, addend: 0x0, symName: _hb_buffer_get_invisible_glyph, symObjAddr: 0x1230, symBinAddr: 0x1BCC8, symSize: 0x8 }
  - { offsetInCU: 0x9B9C, offset: 0x1BE938, size: 0x8, addend: 0x0, symName: _hb_buffer_set_not_found_glyph, symObjAddr: 0x1238, symBinAddr: 0x1BCD0, symSize: 0x10 }
  - { offsetInCU: 0x9BD4, offset: 0x1BE970, size: 0x8, addend: 0x0, symName: _hb_buffer_set_not_found_glyph, symObjAddr: 0x1238, symBinAddr: 0x1BCD0, symSize: 0x10 }
  - { offsetInCU: 0x9BF2, offset: 0x1BE98E, size: 0x8, addend: 0x0, symName: _hb_buffer_set_not_found_glyph, symObjAddr: 0x1238, symBinAddr: 0x1BCD0, symSize: 0x10 }
  - { offsetInCU: 0x9C11, offset: 0x1BE9AD, size: 0x8, addend: 0x0, symName: _hb_buffer_set_not_found_glyph, symObjAddr: 0x1238, symBinAddr: 0x1BCD0, symSize: 0x10 }
  - { offsetInCU: 0x9C31, offset: 0x1BE9CD, size: 0x8, addend: 0x0, symName: _hb_buffer_get_not_found_glyph, symObjAddr: 0x1248, symBinAddr: 0x1BCE0, symSize: 0x8 }
  - { offsetInCU: 0x9C5E, offset: 0x1BE9FA, size: 0x8, addend: 0x0, symName: _hb_buffer_clear_contents, symObjAddr: 0x1250, symBinAddr: 0x1BCE8, symSize: 0x44 }
  - { offsetInCU: 0x9C87, offset: 0x1BEA23, size: 0x8, addend: 0x0, symName: _hb_buffer_clear_contents, symObjAddr: 0x1250, symBinAddr: 0x1BCE8, symSize: 0x44 }
  - { offsetInCU: 0x9CA5, offset: 0x1BEA41, size: 0x8, addend: 0x0, symName: _hb_buffer_clear_contents, symObjAddr: 0x1250, symBinAddr: 0x1BCE8, symSize: 0x44 }
  - { offsetInCU: 0x9CC4, offset: 0x1BEA60, size: 0x8, addend: 0x0, symName: _hb_buffer_clear_contents, symObjAddr: 0x1250, symBinAddr: 0x1BCE8, symSize: 0x44 }
  - { offsetInCU: 0x9D33, offset: 0x1BEACF, size: 0x8, addend: 0x0, symName: _hb_buffer_pre_allocate, symObjAddr: 0x1294, symBinAddr: 0x1BD2C, symSize: 0x2C }
  - { offsetInCU: 0x9DA2, offset: 0x1BEB3E, size: 0x8, addend: 0x0, symName: _hb_buffer_allocation_successful, symObjAddr: 0x12C0, symBinAddr: 0x1BD58, symSize: 0x8 }
  - { offsetInCU: 0x9DF2, offset: 0x1BEB8E, size: 0x8, addend: 0x0, symName: _hb_buffer_add, symObjAddr: 0x12C8, symBinAddr: 0x1BD60, symSize: 0x24 }
  - { offsetInCU: 0x9E8A, offset: 0x1BEC26, size: 0x8, addend: 0x0, symName: _hb_buffer_set_length, symObjAddr: 0x12EC, symBinAddr: 0x1BD84, symSize: 0xDC }
  - { offsetInCU: 0xA003, offset: 0x1BED9F, size: 0x8, addend: 0x0, symName: _hb_buffer_get_length, symObjAddr: 0x13C8, symBinAddr: 0x1BE60, symSize: 0x8 }
  - { offsetInCU: 0xA030, offset: 0x1BEDCC, size: 0x8, addend: 0x0, symName: _hb_buffer_get_glyph_infos, symObjAddr: 0x13D0, symBinAddr: 0x1BE68, symSize: 0x14 }
  - { offsetInCU: 0xA085, offset: 0x1BEE21, size: 0x8, addend: 0x0, symName: _hb_buffer_get_glyph_positions, symObjAddr: 0x13E4, symBinAddr: 0x1BE7C, symSize: 0x70 }
  - { offsetInCU: 0xA10A, offset: 0x1BEEA6, size: 0x8, addend: 0x0, symName: _hb_buffer_has_positions, symObjAddr: 0x1454, symBinAddr: 0x1BEEC, symSize: 0x8 }
  - { offsetInCU: 0xA137, offset: 0x1BEED3, size: 0x8, addend: 0x0, symName: _hb_glyph_info_get_glyph_flags, symObjAddr: 0x145C, symBinAddr: 0x1BEF4, symSize: 0xC }
  - { offsetInCU: 0xA17A, offset: 0x1BEF16, size: 0x8, addend: 0x0, symName: _hb_buffer_reverse, symObjAddr: 0x1468, symBinAddr: 0x1BF00, symSize: 0xC }
  - { offsetInCU: 0xA1A3, offset: 0x1BEF3F, size: 0x8, addend: 0x0, symName: _hb_buffer_reverse, symObjAddr: 0x1468, symBinAddr: 0x1BF00, symSize: 0xC }
  - { offsetInCU: 0xA2B8, offset: 0x1BF054, size: 0x8, addend: 0x0, symName: _hb_buffer_reverse_range, symObjAddr: 0x1474, symBinAddr: 0x1BF0C, symSize: 0x4 }
  - { offsetInCU: 0xA300, offset: 0x1BF09C, size: 0x8, addend: 0x0, symName: _hb_buffer_reverse_range, symObjAddr: 0x1474, symBinAddr: 0x1BF0C, symSize: 0x4 }
  - { offsetInCU: 0xA538, offset: 0x1BF2D4, size: 0x8, addend: 0x0, symName: _hb_buffer_reverse_clusters, symObjAddr: 0x14EC, symBinAddr: 0x1BF10, symSize: 0x10 }
  - { offsetInCU: 0xA561, offset: 0x1BF2FD, size: 0x8, addend: 0x0, symName: _hb_buffer_reverse_clusters, symObjAddr: 0x14EC, symBinAddr: 0x1BF10, symSize: 0x10 }
  - { offsetInCU: 0xA5BD, offset: 0x1BF359, size: 0x8, addend: 0x0, symName: __ZN11hb_buffer_t14reverse_groupsIFbRK15hb_glyph_info_tS3_EEEvRKT_b, symObjAddr: 0x2BB4, symBinAddr: 0x1D25C, symSize: 0x114 }
  - { offsetInCU: 0xA751, offset: 0x1BF4ED, size: 0x8, addend: 0x0, symName: _hb_buffer_guess_segment_properties, symObjAddr: 0x14FC, symBinAddr: 0x1BF20, symSize: 0x4 }
  - { offsetInCU: 0xA77B, offset: 0x1BF517, size: 0x8, addend: 0x0, symName: _hb_buffer_guess_segment_properties, symObjAddr: 0x14FC, symBinAddr: 0x1BF20, symSize: 0x4 }
  - { offsetInCU: 0xA87E, offset: 0x1BF61A, size: 0x8, addend: 0x0, symName: _hb_buffer_add_utf8, symObjAddr: 0x1500, symBinAddr: 0x1BF24, symSize: 0x1AC }
  - { offsetInCU: 0xAB47, offset: 0x1BF8E3, size: 0x8, addend: 0x0, symName: __ZN9hb_utf8_t4prevEPKhS1_Pjj, symObjAddr: 0x2D7C, symBinAddr: 0x1D370, symSize: 0x94 }
  - { offsetInCU: 0xABD7, offset: 0x1BF973, size: 0x8, addend: 0x0, symName: __ZN9hb_utf8_t4nextEPKhS1_Pjj, symObjAddr: 0x2E10, symBinAddr: 0x1D404, symSize: 0x11C }
  - { offsetInCU: 0xAF54, offset: 0x1BFCF0, size: 0x8, addend: 0x0, symName: _hb_buffer_add_utf16, symObjAddr: 0x16AC, symBinAddr: 0x1C0D0, symSize: 0x2A8 }
  - { offsetInCU: 0xB524, offset: 0x1C02C0, size: 0x8, addend: 0x0, symName: _hb_buffer_add_utf32, symObjAddr: 0x1954, symBinAddr: 0x1C378, symSize: 0x1CC }
  - { offsetInCU: 0xB9AD, offset: 0x1C0749, size: 0x8, addend: 0x0, symName: _hb_buffer_add_latin1, symObjAddr: 0x1B20, symBinAddr: 0x1C544, symSize: 0x174 }
  - { offsetInCU: 0xBE25, offset: 0x1C0BC1, size: 0x8, addend: 0x0, symName: _hb_buffer_add_codepoints, symObjAddr: 0x1C94, symBinAddr: 0x1C6B8, symSize: 0x178 }
  - { offsetInCU: 0xC0FB, offset: 0x1C0E97, size: 0x8, addend: 0x0, symName: _hb_buffer_append, symObjAddr: 0x1E0C, symBinAddr: 0x1C830, symSize: 0x238 }
  - { offsetInCU: 0xC4BE, offset: 0x1C125A, size: 0x8, addend: 0x0, symName: _hb_buffer_normalize_glyphs, symObjAddr: 0x2044, symBinAddr: 0x1CA68, symSize: 0x3D0 }
  - { offsetInCU: 0xC779, offset: 0x1C1515, size: 0x8, addend: 0x0, symName: __ZN11hb_buffer_t19_cluster_group_funcERK15hb_glyph_info_tS2_, symObjAddr: 0x2414, symBinAddr: 0x1CE38, symSize: 0x14 }
  - { offsetInCU: 0xC79F, offset: 0x1C153B, size: 0x8, addend: 0x0, symName: __ZN11hb_buffer_t4sortEjjPFiPK15hb_glyph_info_tS2_E, symObjAddr: 0x2428, symBinAddr: 0x1CE4C, symSize: 0x140 }
  - { offsetInCU: 0xC902, offset: 0x1C169E, size: 0x8, addend: 0x0, symName: _hb_buffer_diff, symObjAddr: 0x2568, symBinAddr: 0x1CF8C, symSize: 0x1B0 }
  - { offsetInCU: 0xCABB, offset: 0x1C1857, size: 0x8, addend: 0x0, symName: _hb_buffer_set_message_func, symObjAddr: 0x2718, symBinAddr: 0x1D13C, symSize: 0x8C }
  - { offsetInCU: 0xCB95, offset: 0x1C1931, size: 0x8, addend: 0x0, symName: __ZN11hb_buffer_t12message_implEP9hb_font_tPKcPc, symObjAddr: 0x27A4, symBinAddr: 0x1D1C8, symSize: 0x94 }
  - { offsetInCU: 0x26, offset: 0x1C1CE3, size: 0x8, addend: 0x0, symName: _hb_buffer_serialize_list_formats, symObjAddr: 0x0, symBinAddr: 0x1D520, symSize: 0xC }
  - { offsetInCU: 0x54, offset: 0x1C1D11, size: 0x8, addend: 0x0, symName: __ZL28_hb_buffer_serialize_formats, symObjAddr: 0x3A10, symBinAddr: 0x13A270, symSize: 0x0 }
  - { offsetInCU: 0xF4, offset: 0x1C1DB1, size: 0x8, addend: 0x0, symName: __ZL28_deserialize_text_trans_keys, symObjAddr: 0x1F02, symBinAddr: 0x101FAE, symSize: 0x0 }
  - { offsetInCU: 0x128, offset: 0x1C1DE5, size: 0x8, addend: 0x0, symName: __ZL26_deserialize_text_indicies, symObjAddr: 0x1F53, symBinAddr: 0x101FFF, symSize: 0x0 }
  - { offsetInCU: 0x150, offset: 0x1C1E0D, size: 0x8, addend: 0x0, symName: __ZL31_deserialize_text_index_offsets, symObjAddr: 0x29A4, symBinAddr: 0x102A50, symSize: 0x0 }
  - { offsetInCU: 0x184, offset: 0x1C1E41, size: 0x8, addend: 0x0, symName: __ZL27_deserialize_text_key_spans, symObjAddr: 0x29F4, symBinAddr: 0x102AA0, symSize: 0x0 }
  - { offsetInCU: 0x1AC, offset: 0x1C1E69, size: 0x8, addend: 0x0, symName: __ZL29_deserialize_text_trans_targs, symObjAddr: 0x2A1C, symBinAddr: 0x102AC8, symSize: 0x0 }
  - { offsetInCU: 0x1D4, offset: 0x1C1E91, size: 0x8, addend: 0x0, symName: __ZL31_deserialize_text_trans_actions, symObjAddr: 0x2A78, symBinAddr: 0x102B24, symSize: 0x0 }
  - { offsetInCU: 0x1EF, offset: 0x1C1EAC, size: 0x8, addend: 0x0, symName: __ZL29_deserialize_text_eof_actions, symObjAddr: 0x2AD4, symBinAddr: 0x102B80, symSize: 0x0 }
  - { offsetInCU: 0x217, offset: 0x1C1ED4, size: 0x8, addend: 0x0, symName: __ZL28_deserialize_json_trans_keys, symObjAddr: 0x2AFC, symBinAddr: 0x102BA8, symSize: 0x0 }
  - { offsetInCU: 0x23E, offset: 0x1C1EFB, size: 0x8, addend: 0x0, symName: __ZL26_deserialize_json_indicies, symObjAddr: 0x2B71, symBinAddr: 0x102C1D, symSize: 0x0 }
  - { offsetInCU: 0x266, offset: 0x1C1F23, size: 0x8, addend: 0x0, symName: __ZL31_deserialize_json_index_offsets, symObjAddr: 0x389E, symBinAddr: 0x10394A, symSize: 0x0 }
  - { offsetInCU: 0x28D, offset: 0x1C1F4A, size: 0x8, addend: 0x0, symName: __ZL27_deserialize_json_key_spans, symObjAddr: 0x3912, symBinAddr: 0x1039BE, symSize: 0x0 }
  - { offsetInCU: 0x2B5, offset: 0x1C1F72, size: 0x8, addend: 0x0, symName: __ZL29_deserialize_json_trans_targs, symObjAddr: 0x394C, symBinAddr: 0x1039F8, symSize: 0x0 }
  - { offsetInCU: 0x2DD, offset: 0x1C1F9A, size: 0x8, addend: 0x0, symName: __ZL31_deserialize_json_trans_actions, symObjAddr: 0x39AE, symBinAddr: 0x103A5A, symSize: 0x0 }
  - { offsetInCU: 0x3704, offset: 0x1C53C1, size: 0x8, addend: 0x0, symName: _hb_buffer_serialize_list_formats, symObjAddr: 0x0, symBinAddr: 0x1D520, symSize: 0xC }
  - { offsetInCU: 0x371E, offset: 0x1C53DB, size: 0x8, addend: 0x0, symName: _hb_buffer_serialize_format_from_string, symObjAddr: 0xC, symBinAddr: 0x1D52C, symSize: 0x18 }
  - { offsetInCU: 0x378F, offset: 0x1C544C, size: 0x8, addend: 0x0, symName: _hb_buffer_serialize_format_to_string, symObjAddr: 0x24, symBinAddr: 0x1D544, symSize: 0x40 }
  - { offsetInCU: 0x44F2, offset: 0x1C61AF, size: 0x8, addend: 0x0, symName: _hb_buffer_serialize_glyphs, symObjAddr: 0x64, symBinAddr: 0x1D584, symSize: 0x768 }
  - { offsetInCU: 0x4B3C, offset: 0x1C67F9, size: 0x8, addend: 0x0, symName: _hb_buffer_serialize_unicode, symObjAddr: 0x7CC, symBinAddr: 0x1DCEC, symSize: 0x394 }
  - { offsetInCU: 0x4E86, offset: 0x1C6B43, size: 0x8, addend: 0x0, symName: _hb_buffer_serialize, symObjAddr: 0xB60, symBinAddr: 0x1E080, symSize: 0x9C }
  - { offsetInCU: 0x4FE3, offset: 0x1C6CA0, size: 0x8, addend: 0x0, symName: _hb_buffer_deserialize_glyphs, symObjAddr: 0xBFC, symBinAddr: 0x1E11C, symSize: 0xF8 }
  - { offsetInCU: 0x5173, offset: 0x1C6E30, size: 0x8, addend: 0x0, symName: __ZL27_hb_buffer_deserialize_textP11hb_buffer_tPKcjPS2_P9hb_font_t, symObjAddr: 0xCF4, symBinAddr: 0x1E214, symSize: 0x8D4 }
  - { offsetInCU: 0x5DE2, offset: 0x1C7A9F, size: 0x8, addend: 0x0, symName: __ZL27_hb_buffer_deserialize_jsonP11hb_buffer_tPKcjPS2_P9hb_font_t, symObjAddr: 0x15C8, symBinAddr: 0x1EAE8, symSize: 0x7DC }
  - { offsetInCU: 0x6846, offset: 0x1C8503, size: 0x8, addend: 0x0, symName: _hb_buffer_deserialize_unicode, symObjAddr: 0x1DA4, symBinAddr: 0x1F2C4, symSize: 0xE8 }
  - { offsetInCU: 0x26, offset: 0x1C869C, size: 0x8, addend: 0x0, symName: __ZN11hb_buffer_t6verifyEPS_P9hb_font_tPK12hb_feature_tjPKPKc, symObjAddr: 0x0, symBinAddr: 0x1F3AC, symSize: 0x914 }
  - { offsetInCU: 0x4780, offset: 0x1CCDF6, size: 0x8, addend: 0x0, symName: __ZN11hb_buffer_t6verifyEPS_P9hb_font_tPK12hb_feature_tjPKPKc, symObjAddr: 0x0, symBinAddr: 0x1F3AC, symSize: 0x914 }
  - { offsetInCU: 0x5447, offset: 0x1CDABD, size: 0x8, addend: 0x0, symName: __ZL19buffer_verify_errorP11hb_buffer_tP9hb_font_tPKcz, symObjAddr: 0x914, symBinAddr: 0x1FCC0, symSize: 0x80 }
  - { offsetInCU: 0x5597, offset: 0x1CDC0D, size: 0x8, addend: 0x0, symName: __ZN11hb_vector_tIcLb0EE5allocEj, symObjAddr: 0x994, symBinAddr: 0x1FD40, symSize: 0x80 }
  - { offsetInCU: 0x26, offset: 0x1CDDC1, size: 0x8, addend: 0x0, symName: __Z16_hb_options_initv, symObjAddr: 0x0, symBinAddr: 0x1FDC0, symSize: 0xC0 }
  - { offsetInCU: 0x40, offset: 0x1CDDDB, size: 0x8, addend: 0x0, symName: __hb_options, symObjAddr: 0xED00, symBinAddr: 0x13ADB8, symSize: 0x0 }
  - { offsetInCU: 0x65, offset: 0x1CDE00, size: 0x8, addend: 0x0, symName: _hb_language_get_default, symObjAddr: 0x348, symBinAddr: 0x20108, symSize: 0x54 }
  - { offsetInCU: 0x8D, offset: 0x1CDE28, size: 0x8, addend: 0x0, symName: __ZZ23hb_language_get_defaultE16default_language, symObjAddr: 0xED08, symBinAddr: 0x13AFC0, symSize: 0x0 }
  - { offsetInCU: 0x31F, offset: 0x1CE0BA, size: 0x8, addend: 0x0, symName: __ZL17direction_strings, symObjAddr: 0x157A, symBinAddr: 0x103ABC, symSize: 0x0 }
  - { offsetInCU: 0x34E, offset: 0x1CE0E9, size: 0x8, addend: 0x0, symName: __ZL5langs, symObjAddr: 0xED10, symBinAddr: 0x13AFC8, symSize: 0x0 }
  - { offsetInCU: 0x54D, offset: 0x1CE2E8, size: 0x8, addend: 0x0, symName: __ZL9canon_map, symObjAddr: 0x158A, symBinAddr: 0x103ACC, symSize: 0x0 }
  - { offsetInCU: 0x2E5F, offset: 0x1D0BFA, size: 0x8, addend: 0x0, symName: __Z16_hb_options_initv, symObjAddr: 0x0, symBinAddr: 0x1FDC0, symSize: 0xC0 }
  - { offsetInCU: 0x2F3A, offset: 0x1D0CD5, size: 0x8, addend: 0x0, symName: _hb_tag_from_string, symObjAddr: 0xC0, symBinAddr: 0x1FE80, symSize: 0x90 }
  - { offsetInCU: 0x2F94, offset: 0x1D0D2F, size: 0x8, addend: 0x0, symName: _hb_tag_to_string, symObjAddr: 0x150, symBinAddr: 0x1FF10, symSize: 0xC }
  - { offsetInCU: 0x2FD9, offset: 0x1D0D74, size: 0x8, addend: 0x0, symName: _hb_direction_from_string, symObjAddr: 0x15C, symBinAddr: 0x1FF1C, symSize: 0x5C }
  - { offsetInCU: 0x3059, offset: 0x1D0DF4, size: 0x8, addend: 0x0, symName: _hb_direction_to_string, symObjAddr: 0x1B8, symBinAddr: 0x1FF78, symSize: 0x24 }
  - { offsetInCU: 0x30BE, offset: 0x1D0E59, size: 0x8, addend: 0x0, symName: _hb_language_from_string, symObjAddr: 0x1DC, symBinAddr: 0x1FF9C, symSize: 0xAC }
  - { offsetInCU: 0x3148, offset: 0x1D0EE3, size: 0x8, addend: 0x0, symName: __ZL19lang_find_or_insertPKc, symObjAddr: 0x288, symBinAddr: 0x20048, symSize: 0xBC }
  - { offsetInCU: 0x3370, offset: 0x1D110B, size: 0x8, addend: 0x0, symName: __ZNK18hb_language_item_teqEPKc, symObjAddr: 0x1324, symBinAddr: 0x210E4, symSize: 0x48 }
  - { offsetInCU: 0x33DD, offset: 0x1D1178, size: 0x8, addend: 0x0, symName: __ZN18hb_language_item_taSEPKc, symObjAddr: 0x136C, symBinAddr: 0x2112C, symSize: 0x8C }
  - { offsetInCU: 0x3475, offset: 0x1D1210, size: 0x8, addend: 0x0, symName: _hb_language_to_string, symObjAddr: 0x344, symBinAddr: 0x20104, symSize: 0x4 }
  - { offsetInCU: 0x355C, offset: 0x1D12F7, size: 0x8, addend: 0x0, symName: _hb_language_matches, symObjAddr: 0x39C, symBinAddr: 0x2015C, symSize: 0x90 }
  - { offsetInCU: 0x35DE, offset: 0x1D1379, size: 0x8, addend: 0x0, symName: _hb_script_from_iso15924_tag, symObjAddr: 0x42C, symBinAddr: 0x201EC, symSize: 0x1B4 }
  - { offsetInCU: 0x360B, offset: 0x1D13A6, size: 0x8, addend: 0x0, symName: _hb_script_from_string, symObjAddr: 0x5E0, symBinAddr: 0x203A0, symSize: 0x14 }
  - { offsetInCU: 0x3676, offset: 0x1D1411, size: 0x8, addend: 0x0, symName: _hb_script_to_iso15924_tag, symObjAddr: 0x5F4, symBinAddr: 0x203B4, symSize: 0x4 }
  - { offsetInCU: 0x36A1, offset: 0x1D143C, size: 0x8, addend: 0x0, symName: _hb_script_get_horizontal_direction, symObjAddr: 0x5F8, symBinAddr: 0x203B8, symSize: 0x324 }
  - { offsetInCU: 0x36CE, offset: 0x1D1469, size: 0x8, addend: 0x0, symName: _hb_version, symObjAddr: 0x91C, symBinAddr: 0x206DC, symSize: 0x14 }
  - { offsetInCU: 0x3713, offset: 0x1D14AE, size: 0x8, addend: 0x0, symName: _hb_version_string, symObjAddr: 0x930, symBinAddr: 0x206F0, symSize: 0xC }
  - { offsetInCU: 0x372E, offset: 0x1D14C9, size: 0x8, addend: 0x0, symName: _hb_version_atleast, symObjAddr: 0x93C, symBinAddr: 0x206FC, symSize: 0x24 }
  - { offsetInCU: 0x3A4D, offset: 0x1D17E8, size: 0x8, addend: 0x0, symName: _hb_feature_from_string, symObjAddr: 0x960, symBinAddr: 0x20720, symSize: 0x570 }
  - { offsetInCU: 0x4160, offset: 0x1D1EFB, size: 0x8, addend: 0x0, symName: __ZL9parse_tagPPKcS0_Pj, symObjAddr: 0x13F8, symBinAddr: 0x211B8, symSize: 0x148 }
  - { offsetInCU: 0x427D, offset: 0x1D2018, size: 0x8, addend: 0x0, symName: _hb_feature_to_string, symObjAddr: 0xED0, symBinAddr: 0x20C90, symSize: 0x1F0 }
  - { offsetInCU: 0x43C1, offset: 0x1D215C, size: 0x8, addend: 0x0, symName: _hb_variation_from_string, symObjAddr: 0x10C0, symBinAddr: 0x20E80, symSize: 0x144 }
  - { offsetInCU: 0x45D3, offset: 0x1D236E, size: 0x8, addend: 0x0, symName: _hb_variation_to_string, symObjAddr: 0x1204, symBinAddr: 0x20FC4, symSize: 0x100 }
  - { offsetInCU: 0x46AC, offset: 0x1D2447, size: 0x8, addend: 0x0, symName: _hb_color_get_alpha, symObjAddr: 0x1304, symBinAddr: 0x210C4, symSize: 0x8 }
  - { offsetInCU: 0x46D9, offset: 0x1D2474, size: 0x8, addend: 0x0, symName: _hb_color_get_red, symObjAddr: 0x130C, symBinAddr: 0x210CC, symSize: 0x8 }
  - { offsetInCU: 0x4706, offset: 0x1D24A1, size: 0x8, addend: 0x0, symName: _hb_color_get_green, symObjAddr: 0x1314, symBinAddr: 0x210D4, symSize: 0x8 }
  - { offsetInCU: 0x4733, offset: 0x1D24CE, size: 0x8, addend: 0x0, symName: _hb_color_get_blue, symObjAddr: 0x131C, symBinAddr: 0x210DC, symSize: 0x8 }
  - { offsetInCU: 0x26, offset: 0x1D25FB, size: 0x8, addend: 0x0, symName: _hb_draw_funcs_set_move_to_func, symObjAddr: 0x0, symBinAddr: 0x21300, symSize: 0xEC }
  - { offsetInCU: 0x40, offset: 0x1D2615, size: 0x8, addend: 0x0, symName: __hb_Null_hb_draw_funcs_t, symObjAddr: 0xB58, symBinAddr: 0x13A288, symSize: 0x0 }
  - { offsetInCU: 0x346C, offset: 0x1D5A41, size: 0x8, addend: 0x0, symName: _hb_draw_funcs_set_move_to_func, symObjAddr: 0x0, symBinAddr: 0x21300, symSize: 0xEC }
  - { offsetInCU: 0x3592, offset: 0x1D5B67, size: 0x8, addend: 0x0, symName: __ZL25_hb_draw_funcs_set_middleP15hb_draw_funcs_tPvPFvS1_E, symObjAddr: 0xEC, symBinAddr: 0x213EC, symSize: 0x90 }
  - { offsetInCU: 0x3605, offset: 0x1D5BDA, size: 0x8, addend: 0x0, symName: __ZL19hb_draw_move_to_nilP15hb_draw_funcs_tPvP15hb_draw_state_tffS1_, symObjAddr: 0x17C, symBinAddr: 0x2147C, symSize: 0x4 }
  - { offsetInCU: 0x3668, offset: 0x1D5C3D, size: 0x8, addend: 0x0, symName: _hb_draw_funcs_set_line_to_func, symObjAddr: 0x180, symBinAddr: 0x21480, symSize: 0xEC }
  - { offsetInCU: 0x378E, offset: 0x1D5D63, size: 0x8, addend: 0x0, symName: __ZL19hb_draw_line_to_nilP15hb_draw_funcs_tPvP15hb_draw_state_tffS1_, symObjAddr: 0x26C, symBinAddr: 0x2156C, symSize: 0x4 }
  - { offsetInCU: 0x37F1, offset: 0x1D5DC6, size: 0x8, addend: 0x0, symName: _hb_draw_funcs_set_quadratic_to_func, symObjAddr: 0x270, symBinAddr: 0x21570, symSize: 0xEC }
  - { offsetInCU: 0x398D, offset: 0x1D5F62, size: 0x8, addend: 0x0, symName: __ZL24hb_draw_quadratic_to_nilP15hb_draw_funcs_tPvP15hb_draw_state_tffffS1_, symObjAddr: 0x35C, symBinAddr: 0x2165C, symSize: 0x54 }
  - { offsetInCU: 0x3A74, offset: 0x1D6049, size: 0x8, addend: 0x0, symName: _hb_draw_funcs_set_cubic_to_func, symObjAddr: 0x3B0, symBinAddr: 0x216B0, symSize: 0xEC }
  - { offsetInCU: 0x3B9A, offset: 0x1D616F, size: 0x8, addend: 0x0, symName: __ZL20hb_draw_cubic_to_nilP15hb_draw_funcs_tPvP15hb_draw_state_tffffffS1_, symObjAddr: 0x49C, symBinAddr: 0x2179C, symSize: 0x4 }
  - { offsetInCU: 0x3C2D, offset: 0x1D6202, size: 0x8, addend: 0x0, symName: _hb_draw_funcs_set_close_path_func, symObjAddr: 0x4A0, symBinAddr: 0x217A0, symSize: 0xEC }
  - { offsetInCU: 0x3D53, offset: 0x1D6328, size: 0x8, addend: 0x0, symName: __ZL22hb_draw_close_path_nilP15hb_draw_funcs_tPvP15hb_draw_state_tS1_, symObjAddr: 0x58C, symBinAddr: 0x2188C, symSize: 0x4 }
  - { offsetInCU: 0x3EF4, offset: 0x1D64C9, size: 0x8, addend: 0x0, symName: _hb_draw_funcs_create, symObjAddr: 0x590, symBinAddr: 0x21890, symSize: 0x60 }
  - { offsetInCU: 0x414F, offset: 0x1D6724, size: 0x8, addend: 0x0, symName: _hb_draw_funcs_reference, symObjAddr: 0x5F0, symBinAddr: 0x218F0, symSize: 0x24 }
  - { offsetInCU: 0x417B, offset: 0x1D6750, size: 0x8, addend: 0x0, symName: _hb_draw_funcs_reference, symObjAddr: 0x5F0, symBinAddr: 0x218F0, symSize: 0x24 }
  - { offsetInCU: 0x4198, offset: 0x1D676D, size: 0x8, addend: 0x0, symName: _hb_draw_funcs_reference, symObjAddr: 0x5F0, symBinAddr: 0x218F0, symSize: 0x24 }
  - { offsetInCU: 0x43A4, offset: 0x1D6979, size: 0x8, addend: 0x0, symName: _hb_draw_funcs_destroy, symObjAddr: 0x614, symBinAddr: 0x21914, symSize: 0x14C }
  - { offsetInCU: 0x4812, offset: 0x1D6DE7, size: 0x8, addend: 0x0, symName: _hb_draw_funcs_make_immutable, symObjAddr: 0x760, symBinAddr: 0x21A60, symSize: 0x10 }
  - { offsetInCU: 0x483C, offset: 0x1D6E11, size: 0x8, addend: 0x0, symName: _hb_draw_funcs_make_immutable, symObjAddr: 0x760, symBinAddr: 0x21A60, symSize: 0x10 }
  - { offsetInCU: 0x485A, offset: 0x1D6E2F, size: 0x8, addend: 0x0, symName: _hb_draw_funcs_make_immutable, symObjAddr: 0x760, symBinAddr: 0x21A60, symSize: 0x10 }
  - { offsetInCU: 0x4879, offset: 0x1D6E4E, size: 0x8, addend: 0x0, symName: _hb_draw_funcs_make_immutable, symObjAddr: 0x760, symBinAddr: 0x21A60, symSize: 0x10 }
  - { offsetInCU: 0x48F1, offset: 0x1D6EC6, size: 0x8, addend: 0x0, symName: _hb_draw_funcs_is_immutable, symObjAddr: 0x770, symBinAddr: 0x21A70, symSize: 0x10 }
  - { offsetInCU: 0x4921, offset: 0x1D6EF6, size: 0x8, addend: 0x0, symName: _hb_draw_funcs_is_immutable, symObjAddr: 0x770, symBinAddr: 0x21A70, symSize: 0x10 }
  - { offsetInCU: 0x493F, offset: 0x1D6F14, size: 0x8, addend: 0x0, symName: _hb_draw_funcs_is_immutable, symObjAddr: 0x770, symBinAddr: 0x21A70, symSize: 0x10 }
  - { offsetInCU: 0x495E, offset: 0x1D6F33, size: 0x8, addend: 0x0, symName: _hb_draw_funcs_is_immutable, symObjAddr: 0x770, symBinAddr: 0x21A70, symSize: 0x10 }
  - { offsetInCU: 0x49C3, offset: 0x1D6F98, size: 0x8, addend: 0x0, symName: _hb_draw_move_to, symObjAddr: 0x780, symBinAddr: 0x21A80, symSize: 0x40 }
  - { offsetInCU: 0x4A8B, offset: 0x1D7060, size: 0x8, addend: 0x0, symName: __ZN15hb_draw_funcs_t10close_pathEPvR15hb_draw_state_t, symObjAddr: 0x9B0, symBinAddr: 0x21CB0, symSize: 0x9C }
  - { offsetInCU: 0x4B84, offset: 0x1D7159, size: 0x8, addend: 0x0, symName: _hb_draw_line_to, symObjAddr: 0x7C0, symBinAddr: 0x21AC0, symSize: 0x4 }
  - { offsetInCU: 0x4BEC, offset: 0x1D71C1, size: 0x8, addend: 0x0, symName: _hb_draw_line_to, symObjAddr: 0x7C0, symBinAddr: 0x21AC0, symSize: 0x4 }
  - { offsetInCU: 0x4C24, offset: 0x1D71F9, size: 0x8, addend: 0x0, symName: __ZN15hb_draw_funcs_t7line_toEPvR15hb_draw_state_tff, symObjAddr: 0x7C4, symBinAddr: 0x21AC4, symSize: 0x88 }
  - { offsetInCU: 0x4D57, offset: 0x1D732C, size: 0x8, addend: 0x0, symName: __ZN15hb_draw_funcs_t10start_pathEPvR15hb_draw_state_t, symObjAddr: 0xA4C, symBinAddr: 0x21D4C, symSize: 0x50 }
  - { offsetInCU: 0x4DEE, offset: 0x1D73C3, size: 0x8, addend: 0x0, symName: _hb_draw_quadratic_to, symObjAddr: 0x84C, symBinAddr: 0x21B4C, symSize: 0x4 }
  - { offsetInCU: 0x4E76, offset: 0x1D744B, size: 0x8, addend: 0x0, symName: _hb_draw_quadratic_to, symObjAddr: 0x84C, symBinAddr: 0x21B4C, symSize: 0x4 }
  - { offsetInCU: 0x4EC2, offset: 0x1D7497, size: 0x8, addend: 0x0, symName: __ZN15hb_draw_funcs_t12quadratic_toEPvR15hb_draw_state_tffff, symObjAddr: 0x850, symBinAddr: 0x21B50, symSize: 0xA0 }
  - { offsetInCU: 0x503F, offset: 0x1D7614, size: 0x8, addend: 0x0, symName: _hb_draw_cubic_to, symObjAddr: 0x8F0, symBinAddr: 0x21BF0, symSize: 0x4 }
  - { offsetInCU: 0x50E7, offset: 0x1D76BC, size: 0x8, addend: 0x0, symName: _hb_draw_cubic_to, symObjAddr: 0x8F0, symBinAddr: 0x21BF0, symSize: 0x4 }
  - { offsetInCU: 0x5147, offset: 0x1D771C, size: 0x8, addend: 0x0, symName: __ZN15hb_draw_funcs_t8cubic_toEPvR15hb_draw_state_tffffff, symObjAddr: 0x8F4, symBinAddr: 0x21BF4, symSize: 0xB8 }
  - { offsetInCU: 0x5298, offset: 0x1D786D, size: 0x8, addend: 0x0, symName: _hb_draw_close_path, symObjAddr: 0x9AC, symBinAddr: 0x21CAC, symSize: 0x4 }
  - { offsetInCU: 0x52E0, offset: 0x1D78B5, size: 0x8, addend: 0x0, symName: _hb_draw_close_path, symObjAddr: 0x9AC, symBinAddr: 0x21CAC, symSize: 0x4 }
  - { offsetInCU: 0x40, offset: 0x1D7A92, size: 0x8, addend: 0x0, symName: __hb_Null_hb_face_t, symObjAddr: 0x7D30, symBinAddr: 0x13A2D0, symSize: 0x0 }
  - { offsetInCU: 0x29FB, offset: 0x1DA44D, size: 0x8, addend: 0x0, symName: __ZL23_hb_arabic_pua_simp_mapj, symObjAddr: 0x6DA0, symBinAddr: 0x28960, symSize: 0x8C }
  - { offsetInCU: 0x2A31, offset: 0x1DA483, size: 0x8, addend: 0x0, symName: __ZL23_hb_arabic_pua_trad_mapj, symObjAddr: 0x6E2C, symBinAddr: 0x289EC, symSize: 0x90 }
  - { offsetInCU: 0x1DC46, offset: 0x1F5698, size: 0x8, addend: 0x0, symName: __ZL12hb_ridentity, symObjAddr: 0x751F, symBinAddr: 0x103BFB, symSize: 0x0 }
  - { offsetInCU: 0x1DD13, offset: 0x1F5765, size: 0x8, addend: 0x0, symName: __ZL11hb_identity, symObjAddr: 0x7520, symBinAddr: 0x103BFC, symSize: 0x0 }
  - { offsetInCU: 0x1DE30, offset: 0x1F5882, size: 0x8, addend: 0x0, symName: __ZL14_hb_arabic_u16, symObjAddr: 0x7522, symBinAddr: 0x103BFE, symSize: 0x0 }
  - { offsetInCU: 0x1DE5E, offset: 0x1F58B0, size: 0x8, addend: 0x0, symName: __ZL13_hb_arabic_u8, symObjAddr: 0x7AC2, symBinAddr: 0x10419E, symSize: 0x0 }
  - { offsetInCU: 0x26FD7, offset: 0x1FEA29, size: 0x8, addend: 0x0, symName: __ZNK2OT19CmapSubtableFormat413accelerator_t9get_glyphEjPj, symObjAddr: 0x6EBC, symBinAddr: 0x28A7C, symSize: 0xD8 }
  - { offsetInCU: 0x290D1, offset: 0x200B23, size: 0x8, addend: 0x0, symName: _hb_face_count, symObjAddr: 0x0, symBinAddr: 0x21D9C, symSize: 0x90 }
  - { offsetInCU: 0x29231, offset: 0x200C83, size: 0x8, addend: 0x0, symName: __ZN21hb_sanitize_context_t13sanitize_blobIN2OT16OpenTypeFontFileEEEP9hb_blob_tS4_, symObjAddr: 0x90, symBinAddr: 0x21E2C, symSize: 0x168 }
  - { offsetInCU: 0x29445, offset: 0x200E97, size: 0x8, addend: 0x0, symName: __ZNK2OT16OpenTypeFontFile14get_face_countEv, symObjAddr: 0x1F8, symBinAddr: 0x21F94, symSize: 0x88 }
  - { offsetInCU: 0x29470, offset: 0x200EC2, size: 0x8, addend: 0x0, symName: __ZNK2OT16OpenTypeFontFile14get_face_countEv, symObjAddr: 0x1F8, symBinAddr: 0x21F94, symSize: 0x88 }
  - { offsetInCU: 0x2948E, offset: 0x200EE0, size: 0x8, addend: 0x0, symName: __ZNK2OT16OpenTypeFontFile14get_face_countEv, symObjAddr: 0x1F8, symBinAddr: 0x21F94, symSize: 0x88 }
  - { offsetInCU: 0x2965D, offset: 0x2010AF, size: 0x8, addend: 0x0, symName: __ZNK2OT16OpenTypeFontFile8sanitizeEP21hb_sanitize_context_t, symObjAddr: 0x4810, symBinAddr: 0x26464, symSize: 0xB8 }
  - { offsetInCU: 0x296A4, offset: 0x2010F6, size: 0x8, addend: 0x0, symName: __ZNK2OT16OpenTypeFontFile8sanitizeEP21hb_sanitize_context_t, symObjAddr: 0x4810, symBinAddr: 0x26464, symSize: 0xB8 }
  - { offsetInCU: 0x296CA, offset: 0x20111C, size: 0x8, addend: 0x0, symName: __ZNK2OT16OpenTypeFontFile8sanitizeEP21hb_sanitize_context_t, symObjAddr: 0x4810, symBinAddr: 0x26464, symSize: 0xB8 }
  - { offsetInCU: 0x296EF, offset: 0x201141, size: 0x8, addend: 0x0, symName: __ZNK2OT16OpenTypeFontFile8sanitizeEP21hb_sanitize_context_t, symObjAddr: 0x4810, symBinAddr: 0x26464, symSize: 0xB8 }
  - { offsetInCU: 0x2986F, offset: 0x2012C1, size: 0x8, addend: 0x0, symName: __ZNK2OT9TTCHeader14get_face_countEv, symObjAddr: 0x151C, symBinAddr: 0x232B8, symSize: 0x28 }
  - { offsetInCU: 0x2989A, offset: 0x2012EC, size: 0x8, addend: 0x0, symName: __ZNK2OT9TTCHeader14get_face_countEv, symObjAddr: 0x151C, symBinAddr: 0x232B8, symSize: 0x28 }
  - { offsetInCU: 0x298B9, offset: 0x20130B, size: 0x8, addend: 0x0, symName: __ZNK2OT9TTCHeader14get_face_countEv, symObjAddr: 0x151C, symBinAddr: 0x232B8, symSize: 0x28 }
  - { offsetInCU: 0x29934, offset: 0x201386, size: 0x8, addend: 0x0, symName: __ZNK2OT11ResourceMap14get_face_countEv, symObjAddr: 0x1544, symBinAddr: 0x232E0, symSize: 0x84 }
  - { offsetInCU: 0x29DAB, offset: 0x2017FD, size: 0x8, addend: 0x0, symName: _hb_face_create_for_tables, symObjAddr: 0x280, symBinAddr: 0x2201C, symSize: 0x9C }
  - { offsetInCU: 0x2A051, offset: 0x201AA3, size: 0x8, addend: 0x0, symName: _hb_face_get_empty, symObjAddr: 0x31C, symBinAddr: 0x220B8, symSize: 0xC }
  - { offsetInCU: 0x2A0A1, offset: 0x201AF3, size: 0x8, addend: 0x0, symName: _hb_face_create, symObjAddr: 0x328, symBinAddr: 0x220C4, symSize: 0xB0 }
  - { offsetInCU: 0x2A1DC, offset: 0x201C2E, size: 0x8, addend: 0x0, symName: __ZL33_hb_face_for_data_reference_tableP9hb_face_tjPv, symObjAddr: 0x3D8, symBinAddr: 0x22174, symSize: 0x8C }
  - { offsetInCU: 0x2A39F, offset: 0x201DF1, size: 0x8, addend: 0x0, symName: __ZNK2OT16OpenTypeFontFile8get_faceEjPj, symObjAddr: 0x7F4, symBinAddr: 0x22590, symSize: 0x94 }
  - { offsetInCU: 0x2A4A6, offset: 0x201EF8, size: 0x8, addend: 0x0, symName: __ZNK2OT19OpenTypeOffsetTable16get_table_by_tagEj, symObjAddr: 0x15F8, symBinAddr: 0x23394, symSize: 0x54 }
  - { offsetInCU: 0x2A62A, offset: 0x20207C, size: 0x8, addend: 0x0, symName: __ZL33_hb_face_for_data_closure_destroyPv, symObjAddr: 0x464, symBinAddr: 0x22200, symSize: 0x28 }
  - { offsetInCU: 0x2A6E2, offset: 0x202134, size: 0x8, addend: 0x0, symName: _hb_face_reference, symObjAddr: 0x48C, symBinAddr: 0x22228, symSize: 0x24 }
  - { offsetInCU: 0x2A710, offset: 0x202162, size: 0x8, addend: 0x0, symName: _hb_face_reference, symObjAddr: 0x48C, symBinAddr: 0x22228, symSize: 0x24 }
  - { offsetInCU: 0x2A72E, offset: 0x202180, size: 0x8, addend: 0x0, symName: _hb_face_reference, symObjAddr: 0x48C, symBinAddr: 0x22228, symSize: 0x24 }
  - { offsetInCU: 0x2AA21, offset: 0x202473, size: 0x8, addend: 0x0, symName: _hb_face_destroy, symObjAddr: 0x4B0, symBinAddr: 0x2224C, symSize: 0xE0 }
  - { offsetInCU: 0x2B0EB, offset: 0x202B3D, size: 0x8, addend: 0x0, symName: _hb_face_set_user_data, symObjAddr: 0x590, symBinAddr: 0x2232C, symSize: 0xC8 }
  - { offsetInCU: 0x2B404, offset: 0x202E56, size: 0x8, addend: 0x0, symName: _hb_face_get_user_data, symObjAddr: 0x658, symBinAddr: 0x223F4, symSize: 0x24 }
  - { offsetInCU: 0x2B443, offset: 0x202E95, size: 0x8, addend: 0x0, symName: _hb_face_get_user_data, symObjAddr: 0x658, symBinAddr: 0x223F4, symSize: 0x24 }
  - { offsetInCU: 0x2B557, offset: 0x202FA9, size: 0x8, addend: 0x0, symName: _hb_face_make_immutable, symObjAddr: 0x67C, symBinAddr: 0x22418, symSize: 0x10 }
  - { offsetInCU: 0x2B581, offset: 0x202FD3, size: 0x8, addend: 0x0, symName: _hb_face_make_immutable, symObjAddr: 0x67C, symBinAddr: 0x22418, symSize: 0x10 }
  - { offsetInCU: 0x2B59F, offset: 0x202FF1, size: 0x8, addend: 0x0, symName: _hb_face_make_immutable, symObjAddr: 0x67C, symBinAddr: 0x22418, symSize: 0x10 }
  - { offsetInCU: 0x2B5BE, offset: 0x203010, size: 0x8, addend: 0x0, symName: _hb_face_make_immutable, symObjAddr: 0x67C, symBinAddr: 0x22418, symSize: 0x10 }
  - { offsetInCU: 0x2B636, offset: 0x203088, size: 0x8, addend: 0x0, symName: _hb_face_is_immutable, symObjAddr: 0x68C, symBinAddr: 0x22428, symSize: 0x10 }
  - { offsetInCU: 0x2B666, offset: 0x2030B8, size: 0x8, addend: 0x0, symName: _hb_face_is_immutable, symObjAddr: 0x68C, symBinAddr: 0x22428, symSize: 0x10 }
  - { offsetInCU: 0x2B684, offset: 0x2030D6, size: 0x8, addend: 0x0, symName: _hb_face_is_immutable, symObjAddr: 0x68C, symBinAddr: 0x22428, symSize: 0x10 }
  - { offsetInCU: 0x2B6A3, offset: 0x2030F5, size: 0x8, addend: 0x0, symName: _hb_face_is_immutable, symObjAddr: 0x68C, symBinAddr: 0x22428, symSize: 0x10 }
  - { offsetInCU: 0x2B6F0, offset: 0x203142, size: 0x8, addend: 0x0, symName: _hb_face_reference_table, symObjAddr: 0x69C, symBinAddr: 0x22438, symSize: 0x30 }
  - { offsetInCU: 0x2B77D, offset: 0x2031CF, size: 0x8, addend: 0x0, symName: _hb_face_reference_blob, symObjAddr: 0x6CC, symBinAddr: 0x22468, symSize: 0x30 }
  - { offsetInCU: 0x2B7F8, offset: 0x20324A, size: 0x8, addend: 0x0, symName: _hb_face_set_index, symObjAddr: 0x6FC, symBinAddr: 0x22498, symSize: 0x10 }
  - { offsetInCU: 0x2B831, offset: 0x203283, size: 0x8, addend: 0x0, symName: _hb_face_set_index, symObjAddr: 0x6FC, symBinAddr: 0x22498, symSize: 0x10 }
  - { offsetInCU: 0x2B84F, offset: 0x2032A1, size: 0x8, addend: 0x0, symName: _hb_face_set_index, symObjAddr: 0x6FC, symBinAddr: 0x22498, symSize: 0x10 }
  - { offsetInCU: 0x2B86E, offset: 0x2032C0, size: 0x8, addend: 0x0, symName: _hb_face_set_index, symObjAddr: 0x6FC, symBinAddr: 0x22498, symSize: 0x10 }
  - { offsetInCU: 0x2B88D, offset: 0x2032DF, size: 0x8, addend: 0x0, symName: _hb_face_get_index, symObjAddr: 0x70C, symBinAddr: 0x224A8, symSize: 0x8 }
  - { offsetInCU: 0x2B8BA, offset: 0x20330C, size: 0x8, addend: 0x0, symName: _hb_face_set_upem, symObjAddr: 0x714, symBinAddr: 0x224B0, symSize: 0x10 }
  - { offsetInCU: 0x2B8F3, offset: 0x203345, size: 0x8, addend: 0x0, symName: _hb_face_set_upem, symObjAddr: 0x714, symBinAddr: 0x224B0, symSize: 0x10 }
  - { offsetInCU: 0x2B911, offset: 0x203363, size: 0x8, addend: 0x0, symName: _hb_face_set_upem, symObjAddr: 0x714, symBinAddr: 0x224B0, symSize: 0x10 }
  - { offsetInCU: 0x2B930, offset: 0x203382, size: 0x8, addend: 0x0, symName: _hb_face_set_upem, symObjAddr: 0x714, symBinAddr: 0x224B0, symSize: 0x10 }
  - { offsetInCU: 0x2B9C2, offset: 0x203414, size: 0x8, addend: 0x0, symName: _hb_face_get_upem, symObjAddr: 0x724, symBinAddr: 0x224C0, symSize: 0x14 }
  - { offsetInCU: 0x2BA14, offset: 0x203466, size: 0x8, addend: 0x0, symName: _hb_face_get_upem, symObjAddr: 0x724, symBinAddr: 0x224C0, symSize: 0x14 }
  - { offsetInCU: 0x2BA33, offset: 0x203485, size: 0x8, addend: 0x0, symName: _hb_face_get_upem, symObjAddr: 0x724, symBinAddr: 0x224C0, symSize: 0x14 }
  - { offsetInCU: 0x2BA52, offset: 0x2034A4, size: 0x8, addend: 0x0, symName: _hb_face_set_glyph_count, symObjAddr: 0x738, symBinAddr: 0x224D4, symSize: 0x10 }
  - { offsetInCU: 0x2BA8B, offset: 0x2034DD, size: 0x8, addend: 0x0, symName: _hb_face_set_glyph_count, symObjAddr: 0x738, symBinAddr: 0x224D4, symSize: 0x10 }
  - { offsetInCU: 0x2BAA9, offset: 0x2034FB, size: 0x8, addend: 0x0, symName: _hb_face_set_glyph_count, symObjAddr: 0x738, symBinAddr: 0x224D4, symSize: 0x10 }
  - { offsetInCU: 0x2BAC8, offset: 0x20351A, size: 0x8, addend: 0x0, symName: _hb_face_set_glyph_count, symObjAddr: 0x738, symBinAddr: 0x224D4, symSize: 0x10 }
  - { offsetInCU: 0x2BB5A, offset: 0x2035AC, size: 0x8, addend: 0x0, symName: _hb_face_get_glyph_count, symObjAddr: 0x748, symBinAddr: 0x224E4, symSize: 0x18 }
  - { offsetInCU: 0x2BB9E, offset: 0x2035F0, size: 0x8, addend: 0x0, symName: _hb_face_get_glyph_count, symObjAddr: 0x748, symBinAddr: 0x224E4, symSize: 0x18 }
  - { offsetInCU: 0x2BBBD, offset: 0x20360F, size: 0x8, addend: 0x0, symName: _hb_face_get_glyph_count, symObjAddr: 0x748, symBinAddr: 0x224E4, symSize: 0x18 }
  - { offsetInCU: 0x2BBDC, offset: 0x20362E, size: 0x8, addend: 0x0, symName: _hb_face_get_table_tags, symObjAddr: 0x760, symBinAddr: 0x224FC, symSize: 0x94 }
  - { offsetInCU: 0x2BCFC, offset: 0x20374E, size: 0x8, addend: 0x0, symName: __ZNK2OT19OpenTypeOffsetTable14get_table_tagsEjPjS1_, symObjAddr: 0x888, symBinAddr: 0x22624, symSize: 0x74 }
  - { offsetInCU: 0x2BF28, offset: 0x20397A, size: 0x8, addend: 0x0, symName: __ZNK2OT17TTCHeaderVersion18get_faceEj, symObjAddr: 0x17F8, symBinAddr: 0x23594, symSize: 0x40 }
  - { offsetInCU: 0x2BF61, offset: 0x2039B3, size: 0x8, addend: 0x0, symName: __ZNK2OT17TTCHeaderVersion18get_faceEj, symObjAddr: 0x17F8, symBinAddr: 0x23594, symSize: 0x40 }
  - { offsetInCU: 0x2BF90, offset: 0x2039E2, size: 0x8, addend: 0x0, symName: __ZNK2OT17TTCHeaderVersion18get_faceEj, symObjAddr: 0x17F8, symBinAddr: 0x23594, symSize: 0x40 }
  - { offsetInCU: 0x2BFB0, offset: 0x203A02, size: 0x8, addend: 0x0, symName: __ZNK2OT17TTCHeaderVersion18get_faceEj, symObjAddr: 0x17F8, symBinAddr: 0x23594, symSize: 0x40 }
  - { offsetInCU: 0x2C0B4, offset: 0x203B06, size: 0x8, addend: 0x0, symName: __ZNK2OT18ResourceForkHeader8get_faceEjPj, symObjAddr: 0x17B4, symBinAddr: 0x23550, symSize: 0x44 }
  - { offsetInCU: 0x2C3BA, offset: 0x203E0C, size: 0x8, addend: 0x0, symName: __ZN9hb_sink_tI10hb_array_tIjEEclI13hb_map_iter_tI17hb_sorted_array_tIKN2OT11TableRecordEEMS7_NS6_3TagEL24hb_function_sortedness_t0ELPv0EELSD_0EEEvT_, symObjAddr: 0x1954, symBinAddr: 0x236F0, symSize: 0x88 }
  - { offsetInCU: 0x2C6EE, offset: 0x204140, size: 0x8, addend: 0x0, symName: _hb_face_collect_unicodes, symObjAddr: 0x8FC, symBinAddr: 0x22698, symSize: 0x68 }
  - { offsetInCU: 0x2C860, offset: 0x2042B2, size: 0x8, addend: 0x0, symName: __ZNK16hb_lazy_loader_tIN2OT18cmap_accelerator_tE21hb_face_lazy_loader_tIS1_Lj3EE9hb_face_tLj3ES1_E10get_storedEv, symObjAddr: 0x52A8, symBinAddr: 0x26EFC, symSize: 0x70 }
  - { offsetInCU: 0x2C9C3, offset: 0x204415, size: 0x8, addend: 0x0, symName: __ZNK2OT12CmapSubtable16collect_unicodesEP8hb_set_tj, symObjAddr: 0x1A34, symBinAddr: 0x237D0, symSize: 0xC4 }
  - { offsetInCU: 0x2CB9A, offset: 0x2045EC, size: 0x8, addend: 0x0, symName: _hb_face_collect_variation_selectors, symObjAddr: 0x964, symBinAddr: 0x22700, symSize: 0x3C }
  - { offsetInCU: 0x2CCA1, offset: 0x2046F3, size: 0x8, addend: 0x0, symName: __ZNK2OT20CmapSubtableFormat1427collect_variation_selectorsEP8hb_set_t, symObjAddr: 0x2CC0, symBinAddr: 0x249C8, symSize: 0x68 }
  - { offsetInCU: 0x2CE60, offset: 0x2048B2, size: 0x8, addend: 0x0, symName: _hb_face_collect_variation_unicodes, symObjAddr: 0x9A0, symBinAddr: 0x2273C, symSize: 0x68 }
  - { offsetInCU: 0x2CFD3, offset: 0x204A25, size: 0x8, addend: 0x0, symName: __ZNK2OT13SortedArrayOfINS_23VariationSelectorRecordENS_7IntTypeIjLj4EEEE7bsearchIjEERKS1_RKT_S7_, symObjAddr: 0x2D28, symBinAddr: 0x24A30, symSize: 0x54 }
  - { offsetInCU: 0x2D124, offset: 0x204B76, size: 0x8, addend: 0x0, symName: __ZNK2OT23VariationSelectorRecord16collect_unicodesEP8hb_set_tPKv, symObjAddr: 0x2D7C, symBinAddr: 0x24A84, symSize: 0x64 }
  - { offsetInCU: 0x2D34F, offset: 0x204DA1, size: 0x8, addend: 0x0, symName: _hb_face_builder_create, symObjAddr: 0xA08, symBinAddr: 0x227A4, symSize: 0x6C }
  - { offsetInCU: 0x2EBA8, offset: 0x2065FA, size: 0x8, addend: 0x0, symName: __ZL32_hb_face_builder_reference_tableP9hb_face_tjPv, symObjAddr: 0xA74, symBinAddr: 0x22810, symSize: 0x718 }
  - { offsetInCU: 0x30788, offset: 0x2081DA, size: 0x8, addend: 0x0, symName: __ZNK12hb_hashmap_tIj17face_table_info_tLb0EE13get_with_hashERKjj, symObjAddr: 0x705C, symBinAddr: 0x28C1C, symSize: 0x60 }
  - { offsetInCU: 0x30833, offset: 0x208285, size: 0x8, addend: 0x0, symName: '__ZN16hb_filter_iter_tI10hb_array_tIN12hb_hashmap_tIj17face_table_info_tLb0EE6item_tEEMS4_KFbvERK3$_5LPv0EEC1ERKS5_S7_SA_', symObjAddr: 0x3098, symBinAddr: 0x24DA0, symSize: 0x94 }
  - { offsetInCU: 0x30B55, offset: 0x2085A7, size: 0x8, addend: 0x0, symName: '__ZNK9hb_iter_tI13hb_map_iter_tI16hb_filter_iter_tI10hb_array_tIN12hb_hashmap_tIj17face_table_info_tLb0EE6item_tEEMS6_KFbvERK3$_5LPv0EEMS6_S4_L24hb_function_sortedness_t0ELSD_0EERS4_E4_endEv', symObjAddr: 0x3018, symBinAddr: 0x24D20, symSize: 0x80 }
  - { offsetInCU: 0x30DA1, offset: 0x2087F3, size: 0x8, addend: 0x0, symName: '__ZNR9hb_iter_tI16hb_filter_iter_tI10hb_array_tIN12hb_hashmap_tIj17face_table_info_tLb0EE6item_tEEMS5_KFbvERK3$_5LPv0EERS5_EppEv', symObjAddr: 0x38DC, symBinAddr: 0x25530, symSize: 0x78 }
  - { offsetInCU: 0x30F19, offset: 0x20896B, size: 0x8, addend: 0x0, symName: __ZN22hb_serialize_context_tC2EPvj, symObjAddr: 0x312C, symBinAddr: 0x24E34, symSize: 0xA8 }
  - { offsetInCU: 0x31228, offset: 0x208C7A, size: 0x8, addend: 0x0, symName: __ZN22hb_serialize_context_t4pushIN2OT16OpenTypeFontFileEEEPT_v, symObjAddr: 0x357C, symBinAddr: 0x251D0, symSize: 0x5C }
  - { offsetInCU: 0x3131B, offset: 0x208D6D, size: 0x8, addend: 0x0, symName: __ZNK12hb_hashmap_tIj17face_table_info_tLb0EE3hasIS0_EEbjPPT_, symObjAddr: 0x14A8, symBinAddr: 0x23244, symSize: 0x74 }
  - { offsetInCU: 0x313DB, offset: 0x208E2D, size: 0x8, addend: 0x0, symName: __ZN11hb_vector_tI9hb_pair_tIj17face_table_info_tELb0EE4pushIS2_S2_LPv0EEEPS2_OT_, symObjAddr: 0x37D0, symBinAddr: 0x25424, symSize: 0x7C }
  - { offsetInCU: 0x314A7, offset: 0x208EF9, size: 0x8, addend: 0x0, symName: __ZN2OT7ArrayOfINS_11TableRecordENS_15BinSearchHeaderINS_7IntTypeItLj2EEEEEE9serializeEP22hb_serialize_context_tjb, symObjAddr: 0x397C, symBinAddr: 0x255D0, symSize: 0x88 }
  - { offsetInCU: 0x315F5, offset: 0x209047, size: 0x8, addend: 0x0, symName: __ZN22hb_serialize_context_t13end_serializeEv, symObjAddr: 0x2F94, symBinAddr: 0x24C9C, symSize: 0x84 }
  - { offsetInCU: 0x3179C, offset: 0x2091EE, size: 0x8, addend: 0x0, symName: __ZN22hb_serialize_context_tD2Ev, symObjAddr: 0x4750, symBinAddr: 0x263A4, symSize: 0x54 }
  - { offsetInCU: 0x31905, offset: 0x209357, size: 0x8, addend: 0x0, symName: __ZL29_hb_face_builder_data_destroyPv, symObjAddr: 0x118C, symBinAddr: 0x22F28, symSize: 0x118 }
  - { offsetInCU: 0x31F25, offset: 0x209977, size: 0x8, addend: 0x0, symName: __ZN12hb_hashmap_tIj17face_table_info_tLb0EE4finiEv, symObjAddr: 0x47A4, symBinAddr: 0x263F8, symSize: 0x6C }
  - { offsetInCU: 0x321C8, offset: 0x209C1A, size: 0x8, addend: 0x0, symName: _hb_face_builder_add_table, symObjAddr: 0x12A4, symBinAddr: 0x23040, symSize: 0xBC }
  - { offsetInCU: 0x32340, offset: 0x209D92, size: 0x8, addend: 0x0, symName: __ZN12hb_hashmap_tIj17face_table_info_tLb0EE13set_with_hashIRKjS0_EEbOT_jOT0_b, symObjAddr: 0x70BC, symBinAddr: 0x28C7C, symSize: 0x100 }
  - { offsetInCU: 0x3273D, offset: 0x20A18F, size: 0x8, addend: 0x0, symName: _hb_face_builder_sort_tables, symObjAddr: 0x1360, symBinAddr: 0x230FC, symSize: 0x148 }
  - { offsetInCU: 0x32D1C, offset: 0x20A76E, size: 0x8, addend: 0x0, symName: __ZNK12hb_hashmap_tIj17face_table_info_tLb0EE13item_for_hashERKjj, symObjAddr: 0x6FC4, symBinAddr: 0x28B84, symSize: 0x98 }
  - { offsetInCU: 0x32E9C, offset: 0x20A8EE, size: 0x8, addend: 0x0, symName: __ZNK2OT18ResourceTypeRecord18get_resource_countEv, symObjAddr: 0x15C8, symBinAddr: 0x23364, symSize: 0x30 }
  - { offsetInCU: 0x32EC7, offset: 0x20A919, size: 0x8, addend: 0x0, symName: __ZNK2OT18ResourceTypeRecord18get_resource_countEv, symObjAddr: 0x15C8, symBinAddr: 0x23364, symSize: 0x30 }
  - { offsetInCU: 0x32EE5, offset: 0x20A937, size: 0x8, addend: 0x0, symName: __ZNK2OT18ResourceTypeRecord18get_resource_countEv, symObjAddr: 0x15C8, symBinAddr: 0x23364, symSize: 0x30 }
  - { offsetInCU: 0x32F99, offset: 0x20A9EB, size: 0x8, addend: 0x0, symName: __ZNK2OT19OpenTypeOffsetTable16find_table_indexEjPj, symObjAddr: 0x164C, symBinAddr: 0x233E8, symSize: 0xE8 }
  - { offsetInCU: 0x33503, offset: 0x20AF55, size: 0x8, addend: 0x0, symName: __ZNK17hb_sorted_array_tIKN2OT11TableRecordEE12bsearch_implINS0_3TagEJEEEbRKT_PjDpT0_, symObjAddr: 0x1734, symBinAddr: 0x234D0, symSize: 0x80 }
  - { offsetInCU: 0x337BB, offset: 0x20B20D, size: 0x8, addend: 0x0, symName: __ZNK2OT11ResourceMap8get_faceEjPKv, symObjAddr: 0x1838, symBinAddr: 0x235D4, symSize: 0x11C }
  - { offsetInCU: 0x34184, offset: 0x20BBD6, size: 0x8, addend: 0x0, symName: __ZNR9hb_iter_tI10hb_array_tIjERjElsIN2OT3TagEEERS1_T_, symObjAddr: 0x19DC, symBinAddr: 0x23778, symSize: 0x58 }
  - { offsetInCU: 0x341BD, offset: 0x20BC0F, size: 0x8, addend: 0x0, symName: __ZNR9hb_iter_tI10hb_array_tIjERjElsIN2OT3TagEEERS1_T_, symObjAddr: 0x19DC, symBinAddr: 0x23778, symSize: 0x58 }
  - { offsetInCU: 0x341D2, offset: 0x20BC24, size: 0x8, addend: 0x0, symName: __ZNR9hb_iter_tI10hb_array_tIjERjElsIN2OT3TagEEERS1_T_, symObjAddr: 0x19DC, symBinAddr: 0x23778, symSize: 0x58 }
  - { offsetInCU: 0x34514, offset: 0x20BF66, size: 0x8, addend: 0x0, symName: __ZN23hb_bit_set_invertible_t3addEj, symObjAddr: 0x1F1C, symBinAddr: 0x23CB8, symSize: 0x10 }
  - { offsetInCU: 0x34564, offset: 0x20BFB6, size: 0x8, addend: 0x0, symName: __ZNK2OT19CmapSubtableFormat416collect_unicodesEP8hb_set_t, symObjAddr: 0x1AF8, symBinAddr: 0x23894, symSize: 0x68 }
  - { offsetInCU: 0x346C1, offset: 0x20C113, size: 0x8, addend: 0x0, symName: __ZNK2OT19CmapSubtableTrimmedINS_7IntTypeItLj2EEEE16collect_unicodesEP8hb_set_t, symObjAddr: 0x1B60, symBinAddr: 0x238FC, symSize: 0xA4 }
  - { offsetInCU: 0x348BD, offset: 0x20C30F, size: 0x8, addend: 0x0, symName: __ZNK2OT19CmapSubtableTrimmedINS_7IntTypeIjLj4EEEE16collect_unicodesEP8hb_set_t, symObjAddr: 0x1C04, symBinAddr: 0x239A0, symSize: 0xA4 }
  - { offsetInCU: 0x34A84, offset: 0x20C4D6, size: 0x8, addend: 0x0, symName: __ZNK2OT25CmapSubtableLongSegmentedINS_20CmapSubtableFormat12EE16collect_unicodesEP8hb_set_tj, symObjAddr: 0x1CA8, symBinAddr: 0x23A44, symSize: 0x140 }
  - { offsetInCU: 0x34E9B, offset: 0x20C8ED, size: 0x8, addend: 0x0, symName: __ZNK2OT25CmapSubtableLongSegmentedINS_20CmapSubtableFormat13EE16collect_unicodesEP8hb_set_tj, symObjAddr: 0x1DE8, symBinAddr: 0x23B84, symSize: 0x134 }
  - { offsetInCU: 0x35375, offset: 0x20CDC7, size: 0x8, addend: 0x0, symName: __ZNK2OT19CmapSubtableFormat413accelerator_t16collect_unicodesEP8hb_set_t, symObjAddr: 0x238C, symBinAddr: 0x24128, symSize: 0x178 }
  - { offsetInCU: 0x35796, offset: 0x20D1E8, size: 0x8, addend: 0x0, symName: __ZN2OT20CmapSubtableFormat1215group_get_glyphERKNS_21CmapSubtableLongGroupEj, symObjAddr: 0x2C90, symBinAddr: 0x24998, symSize: 0x30 }
  - { offsetInCU: 0x357CE, offset: 0x20D220, size: 0x8, addend: 0x0, symName: __ZN2OT20CmapSubtableFormat1215group_get_glyphERKNS_21CmapSubtableLongGroupEj, symObjAddr: 0x2C90, symBinAddr: 0x24998, symSize: 0x30 }
  - { offsetInCU: 0x357EC, offset: 0x20D23E, size: 0x8, addend: 0x0, symName: __ZN2OT20CmapSubtableFormat1215group_get_glyphERKNS_21CmapSubtableLongGroupEj, symObjAddr: 0x2C90, symBinAddr: 0x24998, symSize: 0x30 }
  - { offsetInCU: 0x3588A, offset: 0x20D2DC, size: 0x8, addend: 0x0, symName: __ZN23hb_bit_set_invertible_t9add_rangeEjj, symObjAddr: 0x2504, symBinAddr: 0x242A0, symSize: 0x28 }
  - { offsetInCU: 0x3590F, offset: 0x20D361, size: 0x8, addend: 0x0, symName: __ZN12hb_bit_set_t3addEj, symObjAddr: 0x1F80, symBinAddr: 0x23D1C, symSize: 0x58 }
  - { offsetInCU: 0x359F3, offset: 0x20D445, size: 0x8, addend: 0x0, symName: __ZN12hb_bit_set_t3delEj, symObjAddr: 0x1F2C, symBinAddr: 0x23CC8, symSize: 0x54 }
  - { offsetInCU: 0x35B50, offset: 0x20D5A2, size: 0x8, addend: 0x0, symName: __ZN12hb_bit_set_t8page_forEjb, symObjAddr: 0x1FD8, symBinAddr: 0x23D74, symSize: 0x14C }
  - { offsetInCU: 0x36246, offset: 0x20DC98, size: 0x8, addend: 0x0, symName: __ZN12hb_bit_set_t6resizeEjb, symObjAddr: 0x2124, symBinAddr: 0x23EC0, symSize: 0x80 }
  - { offsetInCU: 0x362E3, offset: 0x20DD35, size: 0x8, addend: 0x0, symName: __ZN11hb_vector_tI13hb_bit_page_tLb0EE6resizeEib, symObjAddr: 0x21A4, symBinAddr: 0x23F40, symSize: 0x6C }
  - { offsetInCU: 0x36382, offset: 0x20DDD4, size: 0x8, addend: 0x0, symName: __ZN11hb_vector_tIN12hb_bit_set_t10page_map_tELb1EE6resizeEib, symObjAddr: 0x2210, symBinAddr: 0x23FAC, symSize: 0x6C }
  - { offsetInCU: 0x3645A, offset: 0x20DEAC, size: 0x8, addend: 0x0, symName: __ZN11hb_vector_tI13hb_bit_page_tLb0EE5allocEj, symObjAddr: 0x227C, symBinAddr: 0x24018, symSize: 0x88 }
  - { offsetInCU: 0x3653B, offset: 0x20DF8D, size: 0x8, addend: 0x0, symName: __ZN11hb_vector_tIN12hb_bit_set_t10page_map_tELb1EE5allocEj, symObjAddr: 0x2304, symBinAddr: 0x240A0, symSize: 0x88 }
  - { offsetInCU: 0x366CE, offset: 0x20E120, size: 0x8, addend: 0x0, symName: __ZN23hb_bit_set_invertible_t3delEj, symObjAddr: 0x2C70, symBinAddr: 0x24978, symSize: 0x10 }
  - { offsetInCU: 0x3671D, offset: 0x20E16F, size: 0x8, addend: 0x0, symName: __ZN23hb_bit_set_invertible_t9del_rangeEjj, symObjAddr: 0x2C80, symBinAddr: 0x24988, symSize: 0x10 }
  - { offsetInCU: 0x3677B, offset: 0x20E1CD, size: 0x8, addend: 0x0, symName: __ZN12hb_bit_set_t9add_rangeEjj, symObjAddr: 0x2638, symBinAddr: 0x243D4, symSize: 0x10C }
  - { offsetInCU: 0x369B5, offset: 0x20E407, size: 0x8, addend: 0x0, symName: __ZN12hb_bit_set_t9del_rangeEjj, symObjAddr: 0x252C, symBinAddr: 0x242C8, symSize: 0x10C }
  - { offsetInCU: 0x36BE6, offset: 0x20E638, size: 0x8, addend: 0x0, symName: __ZN13hb_bit_page_t9del_rangeEjj, symObjAddr: 0x2744, symBinAddr: 0x244E0, symSize: 0x8C }
  - { offsetInCU: 0x36D0D, offset: 0x20E75F, size: 0x8, addend: 0x0, symName: __ZN12hb_bit_set_t9del_pagesEii, symObjAddr: 0x27D0, symBinAddr: 0x2456C, symSize: 0x150 }
  - { offsetInCU: 0x37030, offset: 0x20EA82, size: 0x8, addend: 0x0, symName: __ZN13hb_bit_page_t9add_rangeEjj, symObjAddr: 0x2BF0, symBinAddr: 0x248F8, symSize: 0x80 }
  - { offsetInCU: 0x371FD, offset: 0x20EC4F, size: 0x8, addend: 0x0, symName: __ZN12hb_bit_set_t26allocate_compact_workspaceER11hb_vector_tIjLb0EE, symObjAddr: 0x2920, symBinAddr: 0x246BC, symSize: 0x78 }
  - { offsetInCU: 0x372B5, offset: 0x20ED07, size: 0x8, addend: 0x0, symName: __ZN12hb_bit_set_t7compactER11hb_vector_tIjLb0EEj, symObjAddr: 0x2998, symBinAddr: 0x24734, symSize: 0xA4 }
  - { offsetInCU: 0x3730B, offset: 0x20ED5D, size: 0x8, addend: 0x0, symName: __ZN12hb_bit_set_t7compactER11hb_vector_tIjLb0EEj, symObjAddr: 0x2998, symBinAddr: 0x24734, symSize: 0xA4 }
  - { offsetInCU: 0x37329, offset: 0x20ED7B, size: 0x8, addend: 0x0, symName: __ZN12hb_bit_set_t7compactER11hb_vector_tIjLb0EEj, symObjAddr: 0x2998, symBinAddr: 0x24734, symSize: 0xA4 }
  - { offsetInCU: 0x376AE, offset: 0x20F100, size: 0x8, addend: 0x0, symName: __ZN12hb_bit_set_t13compact_pagesERK11hb_vector_tIjLb0EE, symObjAddr: 0x2AC4, symBinAddr: 0x247D8, symSize: 0x120 }
  - { offsetInCU: 0x376F3, offset: 0x20F145, size: 0x8, addend: 0x0, symName: __ZN12hb_bit_set_t13compact_pagesERK11hb_vector_tIjLb0EE, symObjAddr: 0x2AC4, symBinAddr: 0x247D8, symSize: 0x120 }
  - { offsetInCU: 0x37A96, offset: 0x20F4E8, size: 0x8, addend: 0x0, symName: __ZNK17hb_sorted_array_tIKN2OT23VariationSelectorRecordEE12bsearch_implIjJEEEbRKT_PjDpT0_, symObjAddr: 0x2DE0, symBinAddr: 0x24AE8, symSize: 0x84 }
  - { offsetInCU: 0x37C35, offset: 0x20F687, size: 0x8, addend: 0x0, symName: __ZNK2OT10DefaultUVS16collect_unicodesEP8hb_set_t, symObjAddr: 0x2E64, symBinAddr: 0x24B6C, symSize: 0x70 }
  - { offsetInCU: 0x37DC7, offset: 0x20F819, size: 0x8, addend: 0x0, symName: __ZNK2OT13NonDefaultUVS16collect_unicodesEP8hb_set_t, symObjAddr: 0x2ED4, symBinAddr: 0x24BDC, symSize: 0x68 }
  - { offsetInCU: 0x380C4, offset: 0x20FB16, size: 0x8, addend: 0x0, symName: __ZL15compare_entriesPKvS0_, symObjAddr: 0x2F3C, symBinAddr: 0x24C44, symSize: 0x58 }
  - { offsetInCU: 0x381C3, offset: 0x20FC15, size: 0x8, addend: 0x0, symName: __ZN22hb_serialize_context_t8pop_packEb, symObjAddr: 0x3BDC, symBinAddr: 0x25830, symSize: 0x188 }
  - { offsetInCU: 0x384A6, offset: 0x20FEF8, size: 0x8, addend: 0x0, symName: __ZN22hb_serialize_context_t13resolve_linksEv, symObjAddr: 0x3D64, symBinAddr: 0x259B8, symSize: 0x1F0 }
  - { offsetInCU: 0x384CF, offset: 0x20FF21, size: 0x8, addend: 0x0, symName: __ZN22hb_serialize_context_t13resolve_linksEv, symObjAddr: 0x3D64, symBinAddr: 0x259B8, symSize: 0x1F0 }
  - { offsetInCU: 0x38FDE, offset: 0x210A30, size: 0x8, addend: 0x0, symName: __ZN22hb_serialize_context_t5resetEv, symObjAddr: 0x31D4, symBinAddr: 0x24EDC, symSize: 0x68 }
  - { offsetInCU: 0x39194, offset: 0x210BE6, size: 0x8, addend: 0x0, symName: __ZN12hb_hashmap_tIPKN22hb_serialize_context_t8object_tEjLb0EE4finiEv, symObjAddr: 0x3374, symBinAddr: 0x2507C, symSize: 0x6C }
  - { offsetInCU: 0x3931F, offset: 0x210D71, size: 0x8, addend: 0x0, symName: __ZN9hb_pool_tIN22hb_serialize_context_t8object_tELj16EED2Ev, symObjAddr: 0x351C, symBinAddr: 0x25170, symSize: 0x60 }
  - { offsetInCU: 0x39509, offset: 0x210F5B, size: 0x8, addend: 0x0, symName: __ZN22hb_serialize_context_t4finiEv, symObjAddr: 0x323C, symBinAddr: 0x24F44, symSize: 0x8C }
  - { offsetInCU: 0x39703, offset: 0x211155, size: 0x8, addend: 0x0, symName: __ZN11hb_vector_tIPN22hb_serialize_context_t8object_tELb0EE4pushIDnS2_LPv0EEEPS2_OT_, symObjAddr: 0x32C8, symBinAddr: 0x24FD0, symSize: 0x5C }
  - { offsetInCU: 0x3989E, offset: 0x2112F0, size: 0x8, addend: 0x0, symName: __ZN22hb_serialize_context_t8object_t4finiEv, symObjAddr: 0x3324, symBinAddr: 0x2502C, symSize: 0x50 }
  - { offsetInCU: 0x39A1D, offset: 0x21146F, size: 0x8, addend: 0x0, symName: __ZN11hb_vector_tIPN22hb_serialize_context_t8object_tELb0EE5allocEj, symObjAddr: 0x3494, symBinAddr: 0x250E8, symSize: 0x88 }
  - { offsetInCU: 0x39F03, offset: 0x211955, size: 0x8, addend: 0x0, symName: __ZN9hb_pool_tIN22hb_serialize_context_t8object_tELj16EE5allocEv, symObjAddr: 0x35D8, symBinAddr: 0x2522C, symSize: 0x110 }
  - { offsetInCU: 0x3A011, offset: 0x211A63, size: 0x8, addend: 0x0, symName: __ZN11hb_vector_tIPN9hb_pool_tIN22hb_serialize_context_t8object_tELj16EE7chunk_tELb0EE5allocEj, symObjAddr: 0x36E8, symBinAddr: 0x2533C, symSize: 0x88 }
  - { offsetInCU: 0x3A0BE, offset: 0x211B10, size: 0x8, addend: 0x0, symName: __ZN11hb_vector_tIPN9hb_pool_tIN22hb_serialize_context_t8object_tELj16EE7chunk_tELb0EE4pushIRS5_S5_LPv0EEEPS5_OT_, symObjAddr: 0x3770, symBinAddr: 0x253C4, symSize: 0x60 }
  - { offsetInCU: 0x3A2D6, offset: 0x211D28, size: 0x8, addend: 0x0, symName: __ZN11hb_vector_tI9hb_pair_tIj17face_table_info_tELb0EE5allocEj, symObjAddr: 0x384C, symBinAddr: 0x254A0, symSize: 0x90 }
  - { offsetInCU: 0x3A433, offset: 0x211E85, size: 0x8, addend: 0x0, symName: __ZNK12hb_hashmap_tIj17face_table_info_tLb0EE6item_t8get_pairEv, symObjAddr: 0x3954, symBinAddr: 0x255A8, symSize: 0x14 }
  - { offsetInCU: 0x3A496, offset: 0x211EE8, size: 0x8, addend: 0x0, symName: __ZNK12hb_hashmap_tIj17face_table_info_tLb0EE6item_t7is_realEv, symObjAddr: 0x3968, symBinAddr: 0x255BC, symSize: 0x14 }
  - { offsetInCU: 0x3A4CF, offset: 0x211F21, size: 0x8, addend: 0x0, symName: __ZN22hb_serialize_context_t10extend_minIN2OT7ArrayOfINS1_11TableRecordENS1_15BinSearchHeaderINS1_7IntTypeItLj2EEEEEEEEEPT_SA_, symObjAddr: 0x3A04, symBinAddr: 0x25658, symSize: 0x88 }
  - { offsetInCU: 0x3A5F3, offset: 0x212045, size: 0x8, addend: 0x0, symName: __ZN22hb_serialize_context_t12check_assignIN2OT15BinSearchHeaderINS1_7IntTypeItLj2EEEEERjEEbRT_OT0_20hb_serialize_error_t, symObjAddr: 0x3A8C, symBinAddr: 0x256E0, symSize: 0x9C }
  - { offsetInCU: 0x3A7E8, offset: 0x21223A, size: 0x8, addend: 0x0, symName: __ZN22hb_serialize_context_t11extend_sizeIN2OT7ArrayOfINS1_11TableRecordENS1_15BinSearchHeaderINS1_7IntTypeItLj2EEEEEEEEEPT_SA_mb, symObjAddr: 0x3B28, symBinAddr: 0x2577C, symSize: 0x90 }
  - { offsetInCU: 0x3AA16, offset: 0x212468, size: 0x8, addend: 0x0, symName: __ZN2OT11TableRecord3cmpEPKvS2_, symObjAddr: 0x3BB8, symBinAddr: 0x2580C, symSize: 0x24 }
  - { offsetInCU: 0x3AB7E, offset: 0x2125D0, size: 0x8, addend: 0x0, symName: __ZNK22hb_serialize_context_t8object_t4hashEv, symObjAddr: 0x41A4, symBinAddr: 0x25DF8, symSize: 0xEC }
  - { offsetInCU: 0x3ACAC, offset: 0x2126FE, size: 0x8, addend: 0x0, symName: __ZNK12hb_hashmap_tIPKN22hb_serialize_context_t8object_tEjLb0EE13get_with_hashERKS3_j, symObjAddr: 0x3F54, symBinAddr: 0x25BA8, symSize: 0x70 }
  - { offsetInCU: 0x3AD65, offset: 0x2127B7, size: 0x8, addend: 0x0, symName: __ZN22hb_serialize_context_t19merge_virtual_linksEPKNS_8object_tEj, symObjAddr: 0x3FC4, symBinAddr: 0x25C18, symSize: 0x80 }
  - { offsetInCU: 0x3AEAF, offset: 0x212901, size: 0x8, addend: 0x0, symName: __ZN11hb_vector_tIPN22hb_serialize_context_t8object_tELb0EE4pushIRS2_S2_LPv0EEEPS2_OT_, symObjAddr: 0x4044, symBinAddr: 0x25C98, symSize: 0x60 }
  - { offsetInCU: 0x3AF5E, offset: 0x2129B0, size: 0x8, addend: 0x0, symName: __ZN12hb_hashmap_tIPKN22hb_serialize_context_t8object_tEjLb0EE13set_with_hashIRPS1_RjEEbOT_jOT0_b, symObjAddr: 0x40A4, symBinAddr: 0x25CF8, symSize: 0x100 }
  - { offsetInCU: 0x3B67D, offset: 0x2130CF, size: 0x8, addend: 0x0, symName: __ZNK12hb_hashmap_tIPKN22hb_serialize_context_t8object_tEjLb0EE13item_for_hashERKS3_j, symObjAddr: 0x4290, symBinAddr: 0x25EE4, symSize: 0xD0 }
  - { offsetInCU: 0x3B76D, offset: 0x2131BF, size: 0x8, addend: 0x0, symName: __ZNK22hb_serialize_context_t8object_teqERKS0_, symObjAddr: 0x4360, symBinAddr: 0x25FB4, symSize: 0x90 }
  - { offsetInCU: 0x3B865, offset: 0x2132B7, size: 0x8, addend: 0x0, symName: __ZN11hb_vector_tIN22hb_serialize_context_t8object_t6link_tELb0EE4pushIRKS2_S2_LPv0EEEPS2_OT_, symObjAddr: 0x43F0, symBinAddr: 0x26044, symSize: 0x7C }
  - { offsetInCU: 0x3B94C, offset: 0x21339E, size: 0x8, addend: 0x0, symName: __ZN12hb_hashmap_tIPKN22hb_serialize_context_t8object_tEjLb0EE6resizeEj, symObjAddr: 0x44FC, symBinAddr: 0x26150, symSize: 0x154 }
  - { offsetInCU: 0x3BC59, offset: 0x2136AB, size: 0x8, addend: 0x0, symName: __ZN11hb_vector_tIN22hb_serialize_context_t8object_t6link_tELb0EE5allocEj, symObjAddr: 0x446C, symBinAddr: 0x260C0, symSize: 0x90 }
  - { offsetInCU: 0x3BD9A, offset: 0x2137EC, size: 0x8, addend: 0x0, symName: __ZN12hb_hashmap_tIPKN22hb_serialize_context_t8object_tEjLb0EE13set_with_hashIS3_jEEbOT_jOT0_b, symObjAddr: 0x4650, symBinAddr: 0x262A4, symSize: 0x100 }
  - { offsetInCU: 0x3BF9F, offset: 0x2139F1, size: 0x8, addend: 0x0, symName: __ZNK2OT19OpenTypeOffsetTable8sanitizeEP21hb_sanitize_context_t, symObjAddr: 0x48C8, symBinAddr: 0x2651C, symSize: 0x44 }
  - { offsetInCU: 0x3BFE4, offset: 0x213A36, size: 0x8, addend: 0x0, symName: __ZNK2OT19OpenTypeOffsetTable8sanitizeEP21hb_sanitize_context_t, symObjAddr: 0x48C8, symBinAddr: 0x2651C, symSize: 0x44 }
  - { offsetInCU: 0x3C009, offset: 0x213A5B, size: 0x8, addend: 0x0, symName: __ZNK2OT19OpenTypeOffsetTable8sanitizeEP21hb_sanitize_context_t, symObjAddr: 0x48C8, symBinAddr: 0x2651C, symSize: 0x44 }
  - { offsetInCU: 0x3C071, offset: 0x213AC3, size: 0x8, addend: 0x0, symName: __ZNK2OT18ResourceForkHeader8sanitizeEP21hb_sanitize_context_t, symObjAddr: 0x4998, symBinAddr: 0x265EC, symSize: 0xA4 }
  - { offsetInCU: 0x3C216, offset: 0x213C68, size: 0x8, addend: 0x0, symName: __ZNK2OT9TTCHeader8sanitizeEP21hb_sanitize_context_t, symObjAddr: 0x490C, symBinAddr: 0x26560, symSize: 0x8C }
  - { offsetInCU: 0x3C3B6, offset: 0x213E08, size: 0x8, addend: 0x0, symName: __ZNK2OT7ArrayOfINS_11TableRecordENS_15BinSearchHeaderINS_7IntTypeItLj2EEEEEE16sanitize_shallowEP21hb_sanitize_context_t, symObjAddr: 0x4A3C, symBinAddr: 0x26690, symSize: 0x94 }
  - { offsetInCU: 0x3C3FD, offset: 0x213E4F, size: 0x8, addend: 0x0, symName: __ZNK2OT7ArrayOfINS_11TableRecordENS_15BinSearchHeaderINS_7IntTypeItLj2EEEEEE16sanitize_shallowEP21hb_sanitize_context_t, symObjAddr: 0x4A3C, symBinAddr: 0x26690, symSize: 0x94 }
  - { offsetInCU: 0x3C423, offset: 0x213E75, size: 0x8, addend: 0x0, symName: __ZNK2OT7ArrayOfINS_11TableRecordENS_15BinSearchHeaderINS_7IntTypeItLj2EEEEEE16sanitize_shallowEP21hb_sanitize_context_t, symObjAddr: 0x4A3C, symBinAddr: 0x26690, symSize: 0x94 }
  - { offsetInCU: 0x3C449, offset: 0x213E9B, size: 0x8, addend: 0x0, symName: __ZNK2OT7ArrayOfINS_11TableRecordENS_15BinSearchHeaderINS_7IntTypeItLj2EEEEEE16sanitize_shallowEP21hb_sanitize_context_t, symObjAddr: 0x4A3C, symBinAddr: 0x26690, symSize: 0x94 }
  - { offsetInCU: 0x3C63D, offset: 0x21408F, size: 0x8, addend: 0x0, symName: __ZNK2OT7ArrayOfINS_8OffsetToINS_19OpenTypeOffsetTableENS_7IntTypeIjLj4EEELb1EEES4_E8sanitizeIJPKNS_17TTCHeaderVersion1EEEEbP21hb_sanitize_context_tDpOT_, symObjAddr: 0x4AD0, symBinAddr: 0x26724, symSize: 0x74 }
  - { offsetInCU: 0x3C7CF, offset: 0x214221, size: 0x8, addend: 0x0, symName: __ZNK2OT8OffsetToINS_14UnsizedArrayOfINS_7IntTypeIhLj1EEEEENS2_IjLj4EEELb0EE8sanitizeIJRKS5_EEEbP21hb_sanitize_context_tPKvDpOT_, symObjAddr: 0x4C94, symBinAddr: 0x268E8, symSize: 0x5C }
  - { offsetInCU: 0x3C838, offset: 0x21428A, size: 0x8, addend: 0x0, symName: __ZNK2OT8OffsetToINS_14UnsizedArrayOfINS_7IntTypeIhLj1EEEEENS2_IjLj4EEELb0EE8sanitizeIJRKS5_EEEbP21hb_sanitize_context_tPKvDpOT_, symObjAddr: 0x4C94, symBinAddr: 0x268E8, symSize: 0x5C }
  - { offsetInCU: 0x3C866, offset: 0x2142B8, size: 0x8, addend: 0x0, symName: __ZNK2OT8OffsetToINS_14UnsizedArrayOfINS_7IntTypeIhLj1EEEEENS2_IjLj4EEELb0EE8sanitizeIJRKS5_EEEbP21hb_sanitize_context_tPKvDpOT_, symObjAddr: 0x4C94, symBinAddr: 0x268E8, symSize: 0x5C }
  - { offsetInCU: 0x3C88C, offset: 0x2142DE, size: 0x8, addend: 0x0, symName: __ZNK2OT8OffsetToINS_14UnsizedArrayOfINS_7IntTypeIhLj1EEEEENS2_IjLj4EEELb0EE8sanitizeIJRKS5_EEEbP21hb_sanitize_context_tPKvDpOT_, symObjAddr: 0x4C94, symBinAddr: 0x268E8, symSize: 0x5C }
  - { offsetInCU: 0x3C976, offset: 0x2143C8, size: 0x8, addend: 0x0, symName: __ZNK2OT8OffsetToINS_11ResourceMapENS_7IntTypeIjLj4EEELb0EE8sanitizeIJPKNS_14UnsizedArrayOfINS2_IhLj1EEEEEEEEbP21hb_sanitize_context_tPKvDpOT_, symObjAddr: 0x4CF0, symBinAddr: 0x26944, symSize: 0x54 }
  - { offsetInCU: 0x3C9DD, offset: 0x21442F, size: 0x8, addend: 0x0, symName: __ZNK2OT8OffsetToINS_11ResourceMapENS_7IntTypeIjLj4EEELb0EE8sanitizeIJPKNS_14UnsizedArrayOfINS2_IhLj1EEEEEEEEbP21hb_sanitize_context_tPKvDpOT_, symObjAddr: 0x4CF0, symBinAddr: 0x26944, symSize: 0x54 }
  - { offsetInCU: 0x3CA0B, offset: 0x21445D, size: 0x8, addend: 0x0, symName: __ZNK2OT8OffsetToINS_11ResourceMapENS_7IntTypeIjLj4EEELb0EE8sanitizeIJPKNS_14UnsizedArrayOfINS2_IhLj1EEEEEEEEbP21hb_sanitize_context_tPKvDpOT_, symObjAddr: 0x4CF0, symBinAddr: 0x26944, symSize: 0x54 }
  - { offsetInCU: 0x3CA31, offset: 0x214483, size: 0x8, addend: 0x0, symName: __ZNK2OT8OffsetToINS_11ResourceMapENS_7IntTypeIjLj4EEELb0EE8sanitizeIJPKNS_14UnsizedArrayOfINS2_IhLj1EEEEEEEEbP21hb_sanitize_context_tPKvDpOT_, symObjAddr: 0x4CF0, symBinAddr: 0x26944, symSize: 0x54 }
  - { offsetInCU: 0x3CCBB, offset: 0x21470D, size: 0x8, addend: 0x0, symName: __ZNK2OT7ArrayOfINS_8OffsetToINS_19OpenTypeOffsetTableENS_7IntTypeIjLj4EEELb1EEES4_E16sanitize_shallowEP21hb_sanitize_context_t, symObjAddr: 0x4B44, symBinAddr: 0x26798, symSize: 0xB0 }
  - { offsetInCU: 0x3CD02, offset: 0x214754, size: 0x8, addend: 0x0, symName: __ZNK2OT7ArrayOfINS_8OffsetToINS_19OpenTypeOffsetTableENS_7IntTypeIjLj4EEELb1EEES4_E16sanitize_shallowEP21hb_sanitize_context_t, symObjAddr: 0x4B44, symBinAddr: 0x26798, symSize: 0xB0 }
  - { offsetInCU: 0x3CD28, offset: 0x21477A, size: 0x8, addend: 0x0, symName: __ZNK2OT7ArrayOfINS_8OffsetToINS_19OpenTypeOffsetTableENS_7IntTypeIjLj4EEELb1EEES4_E16sanitize_shallowEP21hb_sanitize_context_t, symObjAddr: 0x4B44, symBinAddr: 0x26798, symSize: 0xB0 }
  - { offsetInCU: 0x3CD4D, offset: 0x21479F, size: 0x8, addend: 0x0, symName: __ZNK2OT7ArrayOfINS_8OffsetToINS_19OpenTypeOffsetTableENS_7IntTypeIjLj4EEELb1EEES4_E16sanitize_shallowEP21hb_sanitize_context_t, symObjAddr: 0x4B44, symBinAddr: 0x26798, symSize: 0xB0 }
  - { offsetInCU: 0x3CE64, offset: 0x2148B6, size: 0x8, addend: 0x0, symName: __ZNK2OT8OffsetToINS_19OpenTypeOffsetTableENS_7IntTypeIjLj4EEELb1EE8sanitizeIJEEEbP21hb_sanitize_context_tPKvDpOT_, symObjAddr: 0x4BF4, symBinAddr: 0x26848, symSize: 0xA0 }
  - { offsetInCU: 0x3D447, offset: 0x214E99, size: 0x8, addend: 0x0, symName: __ZN21hb_sanitize_context_t9_dispatchIN2OT14UnsizedArrayOfINS1_7IntTypeIhLj1EEEEEJRKNS3_IjLj4EEEEEEDTcldtfp_8sanitizefpTspclsr3stdE7forwardIT0_Efp1_EEERKT_11hb_priorityILj1EEDpOS9_, symObjAddr: 0x4D44, symBinAddr: 0x26998, symSize: 0x50 }
  - { offsetInCU: 0x3D496, offset: 0x214EE8, size: 0x8, addend: 0x0, symName: __ZN21hb_sanitize_context_t9_dispatchIN2OT14UnsizedArrayOfINS1_7IntTypeIhLj1EEEEEJRKNS3_IjLj4EEEEEEDTcldtfp_8sanitizefpTspclsr3stdE7forwardIT0_Efp1_EEERKT_11hb_priorityILj1EEDpOS9_, symObjAddr: 0x4D44, symBinAddr: 0x26998, symSize: 0x50 }
  - { offsetInCU: 0x3D4B3, offset: 0x214F05, size: 0x8, addend: 0x0, symName: __ZN21hb_sanitize_context_t9_dispatchIN2OT14UnsizedArrayOfINS1_7IntTypeIhLj1EEEEEJRKNS3_IjLj4EEEEEEDTcldtfp_8sanitizefpTspclsr3stdE7forwardIT0_Efp1_EEERKT_11hb_priorityILj1EEDpOS9_, symObjAddr: 0x4D44, symBinAddr: 0x26998, symSize: 0x50 }
  - { offsetInCU: 0x3D6CB, offset: 0x21511D, size: 0x8, addend: 0x0, symName: __ZNK2OT11ResourceMap8sanitizeEP21hb_sanitize_context_tPKv, symObjAddr: 0x4D94, symBinAddr: 0x269E8, symSize: 0x80 }
  - { offsetInCU: 0x3D996, offset: 0x2153E8, size: 0x8, addend: 0x0, symName: __ZNK2OT8OffsetToINS_9ArrayOfM1INS_18ResourceTypeRecordENS_7IntTypeItLj2EEEEES4_Lb0EE8sanitizeIJPKS5_RPKvEEEbP21hb_sanitize_context_tSB_DpOT_, symObjAddr: 0x4E14, symBinAddr: 0x26A68, symSize: 0x58 }
  - { offsetInCU: 0x3DA0E, offset: 0x215460, size: 0x8, addend: 0x0, symName: __ZNK2OT8OffsetToINS_9ArrayOfM1INS_18ResourceTypeRecordENS_7IntTypeItLj2EEEEES4_Lb0EE8sanitizeIJPKS5_RPKvEEEbP21hb_sanitize_context_tSB_DpOT_, symObjAddr: 0x4E14, symBinAddr: 0x26A68, symSize: 0x58 }
  - { offsetInCU: 0x3DA3C, offset: 0x21548E, size: 0x8, addend: 0x0, symName: __ZNK2OT8OffsetToINS_9ArrayOfM1INS_18ResourceTypeRecordENS_7IntTypeItLj2EEEEES4_Lb0EE8sanitizeIJPKS5_RPKvEEEbP21hb_sanitize_context_tSB_DpOT_, symObjAddr: 0x4E14, symBinAddr: 0x26A68, symSize: 0x58 }
  - { offsetInCU: 0x3DA62, offset: 0x2154B4, size: 0x8, addend: 0x0, symName: __ZNK2OT8OffsetToINS_9ArrayOfM1INS_18ResourceTypeRecordENS_7IntTypeItLj2EEEEES4_Lb0EE8sanitizeIJPKS5_RPKvEEEbP21hb_sanitize_context_tSB_DpOT_, symObjAddr: 0x4E14, symBinAddr: 0x26A68, symSize: 0x58 }
  - { offsetInCU: 0x3DCE1, offset: 0x215733, size: 0x8, addend: 0x0, symName: __ZNK2OT9ArrayOfM1INS_18ResourceTypeRecordENS_7IntTypeItLj2EEEE8sanitizeIJPKS4_RPKvEEEbP21hb_sanitize_context_tDpOT_, symObjAddr: 0x4E6C, symBinAddr: 0x26AC0, symSize: 0x70 }
  - { offsetInCU: 0x3DF23, offset: 0x215975, size: 0x8, addend: 0x0, symName: __ZNK2OT9ArrayOfM1INS_18ResourceTypeRecordENS_7IntTypeItLj2EEEE16sanitize_shallowEP21hb_sanitize_context_t, symObjAddr: 0x4EDC, symBinAddr: 0x26B30, symSize: 0x90 }
  - { offsetInCU: 0x3DF6A, offset: 0x2159BC, size: 0x8, addend: 0x0, symName: __ZNK2OT9ArrayOfM1INS_18ResourceTypeRecordENS_7IntTypeItLj2EEEE16sanitize_shallowEP21hb_sanitize_context_t, symObjAddr: 0x4EDC, symBinAddr: 0x26B30, symSize: 0x90 }
  - { offsetInCU: 0x3DF92, offset: 0x2159E4, size: 0x8, addend: 0x0, symName: __ZNK2OT9ArrayOfM1INS_18ResourceTypeRecordENS_7IntTypeItLj2EEEE16sanitize_shallowEP21hb_sanitize_context_t, symObjAddr: 0x4EDC, symBinAddr: 0x26B30, symSize: 0x90 }
  - { offsetInCU: 0x3DFB9, offset: 0x215A0B, size: 0x8, addend: 0x0, symName: __ZNK2OT9ArrayOfM1INS_18ResourceTypeRecordENS_7IntTypeItLj2EEEE16sanitize_shallowEP21hb_sanitize_context_t, symObjAddr: 0x4EDC, symBinAddr: 0x26B30, symSize: 0x90 }
  - { offsetInCU: 0x3E097, offset: 0x215AE9, size: 0x8, addend: 0x0, symName: __ZNK2OT18ResourceTypeRecord8sanitizeEP21hb_sanitize_context_tPKvS4_, symObjAddr: 0x4F6C, symBinAddr: 0x26BC0, symSize: 0x98 }
  - { offsetInCU: 0x3E2B1, offset: 0x215D03, size: 0x8, addend: 0x0, symName: __ZNK2OT8OffsetToINS_14UnsizedArrayOfINS_14ResourceRecordEEENS_7IntTypeItLj2EEELb0EE8sanitizeIJjRPKvEEEbP21hb_sanitize_context_tS9_DpOT_, symObjAddr: 0x5004, symBinAddr: 0x26C58, symSize: 0x58 }
  - { offsetInCU: 0x3E329, offset: 0x215D7B, size: 0x8, addend: 0x0, symName: __ZNK2OT8OffsetToINS_14UnsizedArrayOfINS_14ResourceRecordEEENS_7IntTypeItLj2EEELb0EE8sanitizeIJjRPKvEEEbP21hb_sanitize_context_tS9_DpOT_, symObjAddr: 0x5004, symBinAddr: 0x26C58, symSize: 0x58 }
  - { offsetInCU: 0x3E357, offset: 0x215DA9, size: 0x8, addend: 0x0, symName: __ZNK2OT8OffsetToINS_14UnsizedArrayOfINS_14ResourceRecordEEENS_7IntTypeItLj2EEELb0EE8sanitizeIJjRPKvEEEbP21hb_sanitize_context_tS9_DpOT_, symObjAddr: 0x5004, symBinAddr: 0x26C58, symSize: 0x58 }
  - { offsetInCU: 0x3E37D, offset: 0x215DCF, size: 0x8, addend: 0x0, symName: __ZNK2OT8OffsetToINS_14UnsizedArrayOfINS_14ResourceRecordEEENS_7IntTypeItLj2EEELb0EE8sanitizeIJjRPKvEEEbP21hb_sanitize_context_tS9_DpOT_, symObjAddr: 0x5004, symBinAddr: 0x26C58, symSize: 0x58 }
  - { offsetInCU: 0x3E5FC, offset: 0x21604E, size: 0x8, addend: 0x0, symName: __ZNK2OT14UnsizedArrayOfINS_14ResourceRecordEE8sanitizeIJRPKvEEEbP21hb_sanitize_context_tjDpOT_, symObjAddr: 0x505C, symBinAddr: 0x26CB0, symSize: 0xBC }
  - { offsetInCU: 0x3E969, offset: 0x2163BB, size: 0x8, addend: 0x0, symName: __ZNK2OT14ResourceRecord8sanitizeEP21hb_sanitize_context_tPKv, symObjAddr: 0x5118, symBinAddr: 0x26D6C, symSize: 0xA8 }
  - { offsetInCU: 0x3EB35, offset: 0x216587, size: 0x8, addend: 0x0, symName: __ZNK2OT8OffsetToINS_7ArrayOfINS_7IntTypeIhLj1EEENS2_IjLj4EEEEENS2_IjLj3EEELb0EE8sanitizeIJEEEbP21hb_sanitize_context_tPKvDpOT_, symObjAddr: 0x51C0, symBinAddr: 0x26E14, symSize: 0x5C }
  - { offsetInCU: 0x3EB8B, offset: 0x2165DD, size: 0x8, addend: 0x0, symName: __ZNK2OT8OffsetToINS_7ArrayOfINS_7IntTypeIhLj1EEENS2_IjLj4EEEEENS2_IjLj3EEELb0EE8sanitizeIJEEEbP21hb_sanitize_context_tPKvDpOT_, symObjAddr: 0x51C0, symBinAddr: 0x26E14, symSize: 0x5C }
  - { offsetInCU: 0x3EBB9, offset: 0x21660B, size: 0x8, addend: 0x0, symName: __ZNK2OT8OffsetToINS_7ArrayOfINS_7IntTypeIhLj1EEENS2_IjLj4EEEEENS2_IjLj3EEELb0EE8sanitizeIJEEEbP21hb_sanitize_context_tPKvDpOT_, symObjAddr: 0x51C0, symBinAddr: 0x26E14, symSize: 0x5C }
  - { offsetInCU: 0x3EBDF, offset: 0x216631, size: 0x8, addend: 0x0, symName: __ZNK2OT8OffsetToINS_7ArrayOfINS_7IntTypeIhLj1EEENS2_IjLj4EEEEENS2_IjLj3EEELb0EE8sanitizeIJEEEbP21hb_sanitize_context_tPKvDpOT_, symObjAddr: 0x51C0, symBinAddr: 0x26E14, symSize: 0x5C }
  - { offsetInCU: 0x3EE3E, offset: 0x216890, size: 0x8, addend: 0x0, symName: __ZNK2OT7ArrayOfINS_7IntTypeIhLj1EEENS1_IjLj4EEEE16sanitize_shallowEP21hb_sanitize_context_t, symObjAddr: 0x521C, symBinAddr: 0x26E70, symSize: 0x8C }
  - { offsetInCU: 0x3EE85, offset: 0x2168D7, size: 0x8, addend: 0x0, symName: __ZNK2OT7ArrayOfINS_7IntTypeIhLj1EEENS1_IjLj4EEEE16sanitize_shallowEP21hb_sanitize_context_t, symObjAddr: 0x521C, symBinAddr: 0x26E70, symSize: 0x8C }
  - { offsetInCU: 0x3EEAB, offset: 0x2168FD, size: 0x8, addend: 0x0, symName: __ZNK2OT7ArrayOfINS_7IntTypeIhLj1EEENS1_IjLj4EEEE16sanitize_shallowEP21hb_sanitize_context_t, symObjAddr: 0x521C, symBinAddr: 0x26E70, symSize: 0x8C }
  - { offsetInCU: 0x3EED0, offset: 0x216922, size: 0x8, addend: 0x0, symName: __ZNK2OT7ArrayOfINS_7IntTypeIhLj1EEENS1_IjLj4EEEE16sanitize_shallowEP21hb_sanitize_context_t, symObjAddr: 0x521C, symBinAddr: 0x26E70, symSize: 0x8C }
  - { offsetInCU: 0x3F0BD, offset: 0x216B0F, size: 0x8, addend: 0x0, symName: __ZN16hb_lazy_loader_tIN2OT18cmap_accelerator_tE21hb_face_lazy_loader_tIS1_Lj3EE9hb_face_tLj3ES1_E6createEPS4_, symObjAddr: 0x5344, symBinAddr: 0x26F98, symSize: 0x34 }
  - { offsetInCU: 0x3F156, offset: 0x216BA8, size: 0x8, addend: 0x0, symName: __ZN16hb_lazy_loader_tIN2OT18cmap_accelerator_tE21hb_face_lazy_loader_tIS1_Lj3EE9hb_face_tLj3ES1_E10do_destroyEPS1_, symObjAddr: 0x5318, symBinAddr: 0x26F6C, symSize: 0x2C }
  - { offsetInCU: 0x3F232, offset: 0x216C84, size: 0x8, addend: 0x0, symName: __ZN2OT4cmap13accelerator_tD2Ev, symObjAddr: 0x6F94, symBinAddr: 0x28B54, symSize: 0x30 }
  - { offsetInCU: 0x3F319, offset: 0x216D6B, size: 0x8, addend: 0x0, symName: __ZN2OT4cmap13accelerator_tC2EP9hb_face_t, symObjAddr: 0x5378, symBinAddr: 0x26FCC, symSize: 0x1F4 }
  - { offsetInCU: 0x3FD42, offset: 0x217794, size: 0x8, addend: 0x0, symName: __ZN21hb_sanitize_context_t15reference_tableIN2OT4cmapEEEP9hb_blob_tPK9hb_face_tj, symObjAddr: 0x556C, symBinAddr: 0x271C0, symSize: 0x6C }
  - { offsetInCU: 0x3FE6B, offset: 0x2178BD, size: 0x8, addend: 0x0, symName: __ZNK2OT4cmap18find_best_subtableEPb, symObjAddr: 0x55D8, symBinAddr: 0x2722C, symSize: 0x108 }
  - { offsetInCU: 0x40008, offset: 0x217A5A, size: 0x8, addend: 0x0, symName: __ZNK2OT4cmap13find_subtableEjj, symObjAddr: 0x56E0, symBinAddr: 0x27334, symSize: 0x64 }
  - { offsetInCU: 0x40111, offset: 0x217B63, size: 0x8, addend: 0x0, symName: __ZNK16hb_lazy_loader_tIN2OT3OS2E22hb_table_lazy_loader_tIS1_Lj6ELb1EE9hb_face_tLj6E9hb_blob_tE10get_storedEv, symObjAddr: 0x6670, symBinAddr: 0x28230, symSize: 0x74 }
  - { offsetInCU: 0x402E2, offset: 0x217D34, size: 0x8, addend: 0x0, symName: __ZN21hb_sanitize_context_t13sanitize_blobIN2OT4cmapEEEP9hb_blob_tS4_, symObjAddr: 0x589C, symBinAddr: 0x274F0, symSize: 0x168 }
  - { offsetInCU: 0x404F7, offset: 0x217F49, size: 0x8, addend: 0x0, symName: __ZNK2OT13SortedArrayOfINS_14EncodingRecordENS_7IntTypeItLj2EEEE7bsearchIS1_EERKS1_RKT_S7_, symObjAddr: 0x6548, symBinAddr: 0x28108, symSize: 0x50 }
  - { offsetInCU: 0x40659, offset: 0x2180AB, size: 0x8, addend: 0x0, symName: __ZN2OT4cmap13accelerator_t21get_glyph_from_symbolINS_12CmapSubtableEXadL_ZNS_L18_hb_symbol_pua_mapEjEEEEbPKvjPj, symObjAddr: 0x5744, symBinAddr: 0x27398, symSize: 0x74 }
  - { offsetInCU: 0x40740, offset: 0x218192, size: 0x8, addend: 0x0, symName: __ZNK2OT12CmapSubtable9get_glyphEjPj, symObjAddr: 0x6A5C, symBinAddr: 0x2861C, symSize: 0x80 }
  - { offsetInCU: 0x40884, offset: 0x2182D6, size: 0x8, addend: 0x0, symName: __ZN2OT4cmap13accelerator_t21get_glyph_from_symbolINS_12CmapSubtableEXadL_ZL23_hb_arabic_pua_simp_mapjEEEEbPKvjPj, symObjAddr: 0x57B8, symBinAddr: 0x2740C, symSize: 0x6C }
  - { offsetInCU: 0x40968, offset: 0x2183BA, size: 0x8, addend: 0x0, symName: __ZL23_hb_arabic_pua_simp_mapj, symObjAddr: 0x6DA0, symBinAddr: 0x28960, symSize: 0x8C }
  - { offsetInCU: 0x40975, offset: 0x2183C7, size: 0x8, addend: 0x0, symName: __ZL23_hb_arabic_pua_simp_mapj, symObjAddr: 0x6DA0, symBinAddr: 0x28960, symSize: 0x8C }
  - { offsetInCU: 0x409E0, offset: 0x218432, size: 0x8, addend: 0x0, symName: __ZN2OT4cmap13accelerator_t21get_glyph_from_symbolINS_12CmapSubtableEXadL_ZL23_hb_arabic_pua_trad_mapjEEEEbPKvjPj, symObjAddr: 0x5824, symBinAddr: 0x27478, symSize: 0x6C }
  - { offsetInCU: 0x40AC4, offset: 0x218516, size: 0x8, addend: 0x0, symName: __ZL23_hb_arabic_pua_trad_mapj, symObjAddr: 0x6E2C, symBinAddr: 0x289EC, symSize: 0x90 }
  - { offsetInCU: 0x40AD1, offset: 0x218523, size: 0x8, addend: 0x0, symName: __ZL23_hb_arabic_pua_trad_mapj, symObjAddr: 0x6E2C, symBinAddr: 0x289EC, symSize: 0x90 }
  - { offsetInCU: 0x40B31, offset: 0x218583, size: 0x8, addend: 0x0, symName: __ZN2OT4cmap13accelerator_t14get_glyph_fromINS_12CmapSubtableEEEbPKvjPj, symObjAddr: 0x5890, symBinAddr: 0x274E4, symSize: 0x4 }
  - { offsetInCU: 0x40B85, offset: 0x2185D7, size: 0x8, addend: 0x0, symName: __ZN2OT4cmap13accelerator_t14get_glyph_fromINS_12CmapSubtableEEEbPKvjPj, symObjAddr: 0x5890, symBinAddr: 0x274E4, symSize: 0x4 }
  - { offsetInCU: 0x40BB3, offset: 0x218605, size: 0x8, addend: 0x0, symName: __ZN2OT4cmap13accelerator_t14get_glyph_fromINS_20CmapSubtableFormat12EEEbPKvjPj, symObjAddr: 0x5894, symBinAddr: 0x274E8, symSize: 0x4 }
  - { offsetInCU: 0x40C07, offset: 0x218659, size: 0x8, addend: 0x0, symName: __ZN2OT4cmap13accelerator_t14get_glyph_fromINS_20CmapSubtableFormat12EEEbPKvjPj, symObjAddr: 0x5894, symBinAddr: 0x274E8, symSize: 0x4 }
  - { offsetInCU: 0x40C35, offset: 0x218687, size: 0x8, addend: 0x0, symName: __ZNK2OT25CmapSubtableLongSegmentedINS_20CmapSubtableFormat12EE9get_glyphEjPj, symObjAddr: 0x6BD8, symBinAddr: 0x28798, symSize: 0x54 }
  - { offsetInCU: 0x40CB3, offset: 0x218705, size: 0x8, addend: 0x0, symName: __ZN2OT19CmapSubtableFormat413accelerator_t14get_glyph_funcEPKvjPj, symObjAddr: 0x5898, symBinAddr: 0x274EC, symSize: 0x4 }
  - { offsetInCU: 0x40CE3, offset: 0x218735, size: 0x8, addend: 0x0, symName: __ZN2OT19CmapSubtableFormat413accelerator_t14get_glyph_funcEPKvjPj, symObjAddr: 0x5898, symBinAddr: 0x274EC, symSize: 0x4 }
  - { offsetInCU: 0x40D07, offset: 0x218759, size: 0x8, addend: 0x0, symName: __ZNK2OT4cmap8sanitizeEP21hb_sanitize_context_t, symObjAddr: 0x5A04, symBinAddr: 0x27658, symSize: 0x78 }
  - { offsetInCU: 0x40E2F, offset: 0x218881, size: 0x8, addend: 0x0, symName: __ZNK2OT7ArrayOfINS_14EncodingRecordENS_7IntTypeItLj2EEEE8sanitizeIJPKNS_4cmapEEEEbP21hb_sanitize_context_tDpOT_, symObjAddr: 0x5A7C, symBinAddr: 0x276D0, symSize: 0x74 }
  - { offsetInCU: 0x41026, offset: 0x218A78, size: 0x8, addend: 0x0, symName: __ZNK2OT7ArrayOfINS_14EncodingRecordENS_7IntTypeItLj2EEEE16sanitize_shallowEP21hb_sanitize_context_t, symObjAddr: 0x5AF0, symBinAddr: 0x27744, symSize: 0x94 }
  - { offsetInCU: 0x4106D, offset: 0x218ABF, size: 0x8, addend: 0x0, symName: __ZNK2OT7ArrayOfINS_14EncodingRecordENS_7IntTypeItLj2EEEE16sanitize_shallowEP21hb_sanitize_context_t, symObjAddr: 0x5AF0, symBinAddr: 0x27744, symSize: 0x94 }
  - { offsetInCU: 0x41093, offset: 0x218AE5, size: 0x8, addend: 0x0, symName: __ZNK2OT7ArrayOfINS_14EncodingRecordENS_7IntTypeItLj2EEEE16sanitize_shallowEP21hb_sanitize_context_t, symObjAddr: 0x5AF0, symBinAddr: 0x27744, symSize: 0x94 }
  - { offsetInCU: 0x410B8, offset: 0x218B0A, size: 0x8, addend: 0x0, symName: __ZNK2OT7ArrayOfINS_14EncodingRecordENS_7IntTypeItLj2EEEE16sanitize_shallowEP21hb_sanitize_context_t, symObjAddr: 0x5AF0, symBinAddr: 0x27744, symSize: 0x94 }
  - { offsetInCU: 0x411F6, offset: 0x218C48, size: 0x8, addend: 0x0, symName: __ZNK2OT14EncodingRecord8sanitizeEP21hb_sanitize_context_tPKv, symObjAddr: 0x5B84, symBinAddr: 0x277D8, symSize: 0x48 }
  - { offsetInCU: 0x4124C, offset: 0x218C9E, size: 0x8, addend: 0x0, symName: __ZNK2OT14EncodingRecord8sanitizeEP21hb_sanitize_context_tPKv, symObjAddr: 0x5B84, symBinAddr: 0x277D8, symSize: 0x48 }
  - { offsetInCU: 0x41272, offset: 0x218CC4, size: 0x8, addend: 0x0, symName: __ZNK2OT14EncodingRecord8sanitizeEP21hb_sanitize_context_tPKv, symObjAddr: 0x5B84, symBinAddr: 0x277D8, symSize: 0x48 }
  - { offsetInCU: 0x4136C, offset: 0x218DBE, size: 0x8, addend: 0x0, symName: __ZNK2OT8OffsetToINS_12CmapSubtableENS_7IntTypeIjLj4EEELb1EE8sanitizeIJEEEbP21hb_sanitize_context_tPKvDpOT_, symObjAddr: 0x5BCC, symBinAddr: 0x27820, symSize: 0xA0 }
  - { offsetInCU: 0x417A9, offset: 0x2191FB, size: 0x8, addend: 0x0, symName: __ZNK2OT12CmapSubtable8sanitizeEP21hb_sanitize_context_t, symObjAddr: 0x5C6C, symBinAddr: 0x278C0, symSize: 0xA0 }
  - { offsetInCU: 0x417F0, offset: 0x219242, size: 0x8, addend: 0x0, symName: __ZNK2OT12CmapSubtable8sanitizeEP21hb_sanitize_context_t, symObjAddr: 0x5C6C, symBinAddr: 0x278C0, symSize: 0xA0 }
  - { offsetInCU: 0x41816, offset: 0x219268, size: 0x8, addend: 0x0, symName: __ZNK2OT12CmapSubtable8sanitizeEP21hb_sanitize_context_t, symObjAddr: 0x5C6C, symBinAddr: 0x278C0, symSize: 0xA0 }
  - { offsetInCU: 0x4183B, offset: 0x21928D, size: 0x8, addend: 0x0, symName: __ZNK2OT12CmapSubtable8sanitizeEP21hb_sanitize_context_t, symObjAddr: 0x5C6C, symBinAddr: 0x278C0, symSize: 0xA0 }
  - { offsetInCU: 0x419AF, offset: 0x219401, size: 0x8, addend: 0x0, symName: __ZNK2OT19CmapSubtableFormat48sanitizeEP21hb_sanitize_context_t, symObjAddr: 0x5D0C, symBinAddr: 0x27960, symSize: 0xD0 }
  - { offsetInCU: 0x419F6, offset: 0x219448, size: 0x8, addend: 0x0, symName: __ZNK2OT19CmapSubtableFormat48sanitizeEP21hb_sanitize_context_t, symObjAddr: 0x5D0C, symBinAddr: 0x27960, symSize: 0xD0 }
  - { offsetInCU: 0x41A1C, offset: 0x21946E, size: 0x8, addend: 0x0, symName: __ZNK2OT19CmapSubtableFormat48sanitizeEP21hb_sanitize_context_t, symObjAddr: 0x5D0C, symBinAddr: 0x27960, symSize: 0xD0 }
  - { offsetInCU: 0x41BC4, offset: 0x219616, size: 0x8, addend: 0x0, symName: __ZNK2OT25CmapSubtableLongSegmentedINS_20CmapSubtableFormat13EE8sanitizeEP21hb_sanitize_context_t, symObjAddr: 0x5EAC, symBinAddr: 0x27B00, symSize: 0x48 }
  - { offsetInCU: 0x41C0B, offset: 0x21965D, size: 0x8, addend: 0x0, symName: __ZNK2OT25CmapSubtableLongSegmentedINS_20CmapSubtableFormat13EE8sanitizeEP21hb_sanitize_context_t, symObjAddr: 0x5EAC, symBinAddr: 0x27B00, symSize: 0x48 }
  - { offsetInCU: 0x41C31, offset: 0x219683, size: 0x8, addend: 0x0, symName: __ZNK2OT25CmapSubtableLongSegmentedINS_20CmapSubtableFormat13EE8sanitizeEP21hb_sanitize_context_t, symObjAddr: 0x5EAC, symBinAddr: 0x27B00, symSize: 0x48 }
  - { offsetInCU: 0x41C99, offset: 0x2196EB, size: 0x8, addend: 0x0, symName: __ZNK2OT19CmapSubtableTrimmedINS_7IntTypeItLj2EEEE8sanitizeEP21hb_sanitize_context_t, symObjAddr: 0x5DDC, symBinAddr: 0x27A30, symSize: 0x44 }
  - { offsetInCU: 0x41CE0, offset: 0x219732, size: 0x8, addend: 0x0, symName: __ZNK2OT19CmapSubtableTrimmedINS_7IntTypeItLj2EEEE8sanitizeEP21hb_sanitize_context_t, symObjAddr: 0x5DDC, symBinAddr: 0x27A30, symSize: 0x44 }
  - { offsetInCU: 0x41D06, offset: 0x219758, size: 0x8, addend: 0x0, symName: __ZNK2OT19CmapSubtableTrimmedINS_7IntTypeItLj2EEEE8sanitizeEP21hb_sanitize_context_t, symObjAddr: 0x5DDC, symBinAddr: 0x27A30, symSize: 0x44 }
  - { offsetInCU: 0x41D6E, offset: 0x2197C0, size: 0x8, addend: 0x0, symName: __ZNK2OT19CmapSubtableTrimmedINS_7IntTypeIjLj4EEEE8sanitizeEP21hb_sanitize_context_t, symObjAddr: 0x5E20, symBinAddr: 0x27A74, symSize: 0x44 }
  - { offsetInCU: 0x41DB5, offset: 0x219807, size: 0x8, addend: 0x0, symName: __ZNK2OT19CmapSubtableTrimmedINS_7IntTypeIjLj4EEEE8sanitizeEP21hb_sanitize_context_t, symObjAddr: 0x5E20, symBinAddr: 0x27A74, symSize: 0x44 }
  - { offsetInCU: 0x41DDB, offset: 0x21982D, size: 0x8, addend: 0x0, symName: __ZNK2OT19CmapSubtableTrimmedINS_7IntTypeIjLj4EEEE8sanitizeEP21hb_sanitize_context_t, symObjAddr: 0x5E20, symBinAddr: 0x27A74, symSize: 0x44 }
  - { offsetInCU: 0x41E43, offset: 0x219895, size: 0x8, addend: 0x0, symName: __ZNK2OT25CmapSubtableLongSegmentedINS_20CmapSubtableFormat12EE8sanitizeEP21hb_sanitize_context_t, symObjAddr: 0x5E64, symBinAddr: 0x27AB8, symSize: 0x48 }
  - { offsetInCU: 0x41E8A, offset: 0x2198DC, size: 0x8, addend: 0x0, symName: __ZNK2OT25CmapSubtableLongSegmentedINS_20CmapSubtableFormat12EE8sanitizeEP21hb_sanitize_context_t, symObjAddr: 0x5E64, symBinAddr: 0x27AB8, symSize: 0x48 }
  - { offsetInCU: 0x41EB0, offset: 0x219902, size: 0x8, addend: 0x0, symName: __ZNK2OT25CmapSubtableLongSegmentedINS_20CmapSubtableFormat12EE8sanitizeEP21hb_sanitize_context_t, symObjAddr: 0x5E64, symBinAddr: 0x27AB8, symSize: 0x48 }
  - { offsetInCU: 0x41F19, offset: 0x21996B, size: 0x8, addend: 0x0, symName: __ZNK2OT20CmapSubtableFormat148sanitizeEP21hb_sanitize_context_t, symObjAddr: 0x5EF4, symBinAddr: 0x27B48, symSize: 0x68 }
  - { offsetInCU: 0x4223F, offset: 0x219C91, size: 0x8, addend: 0x0, symName: __ZNK2OT7ArrayOfINS_11HBGlyphID16ENS_7IntTypeIjLj4EEEE16sanitize_shallowEP21hb_sanitize_context_t, symObjAddr: 0x5FF0, symBinAddr: 0x27BB0, symSize: 0x94 }
  - { offsetInCU: 0x42286, offset: 0x219CD8, size: 0x8, addend: 0x0, symName: __ZNK2OT7ArrayOfINS_11HBGlyphID16ENS_7IntTypeIjLj4EEEE16sanitize_shallowEP21hb_sanitize_context_t, symObjAddr: 0x5FF0, symBinAddr: 0x27BB0, symSize: 0x94 }
  - { offsetInCU: 0x422AC, offset: 0x219CFE, size: 0x8, addend: 0x0, symName: __ZNK2OT7ArrayOfINS_11HBGlyphID16ENS_7IntTypeIjLj4EEEE16sanitize_shallowEP21hb_sanitize_context_t, symObjAddr: 0x5FF0, symBinAddr: 0x27BB0, symSize: 0x94 }
  - { offsetInCU: 0x422D1, offset: 0x219D23, size: 0x8, addend: 0x0, symName: __ZNK2OT7ArrayOfINS_11HBGlyphID16ENS_7IntTypeIjLj4EEEE16sanitize_shallowEP21hb_sanitize_context_t, symObjAddr: 0x5FF0, symBinAddr: 0x27BB0, symSize: 0x94 }
  - { offsetInCU: 0x42453, offset: 0x219EA5, size: 0x8, addend: 0x0, symName: __ZNK2OT7ArrayOfINS_21CmapSubtableLongGroupENS_7IntTypeIjLj4EEEE16sanitize_shallowEP21hb_sanitize_context_t, symObjAddr: 0x6084, symBinAddr: 0x27C44, symSize: 0x9C }
  - { offsetInCU: 0x4249A, offset: 0x219EEC, size: 0x8, addend: 0x0, symName: __ZNK2OT7ArrayOfINS_21CmapSubtableLongGroupENS_7IntTypeIjLj4EEEE16sanitize_shallowEP21hb_sanitize_context_t, symObjAddr: 0x6084, symBinAddr: 0x27C44, symSize: 0x9C }
  - { offsetInCU: 0x424C0, offset: 0x219F12, size: 0x8, addend: 0x0, symName: __ZNK2OT7ArrayOfINS_21CmapSubtableLongGroupENS_7IntTypeIjLj4EEEE16sanitize_shallowEP21hb_sanitize_context_t, symObjAddr: 0x6084, symBinAddr: 0x27C44, symSize: 0x9C }
  - { offsetInCU: 0x424E5, offset: 0x219F37, size: 0x8, addend: 0x0, symName: __ZNK2OT7ArrayOfINS_21CmapSubtableLongGroupENS_7IntTypeIjLj4EEEE16sanitize_shallowEP21hb_sanitize_context_t, symObjAddr: 0x6084, symBinAddr: 0x27C44, symSize: 0x9C }
  - { offsetInCU: 0x4268D, offset: 0x21A0DF, size: 0x8, addend: 0x0, symName: __ZNK2OT7ArrayOfINS_23VariationSelectorRecordENS_7IntTypeIjLj4EEEE8sanitizeIJPKNS_20CmapSubtableFormat14EEEEbP21hb_sanitize_context_tDpOT_, symObjAddr: 0x6120, symBinAddr: 0x27CE0, symSize: 0x74 }
  - { offsetInCU: 0x4299A, offset: 0x21A3EC, size: 0x8, addend: 0x0, symName: __ZNK2OT7ArrayOfINS_23VariationSelectorRecordENS_7IntTypeIjLj4EEEE16sanitize_shallowEP21hb_sanitize_context_t, symObjAddr: 0x6194, symBinAddr: 0x27D54, symSize: 0x9C }
  - { offsetInCU: 0x429E1, offset: 0x21A433, size: 0x8, addend: 0x0, symName: __ZNK2OT7ArrayOfINS_23VariationSelectorRecordENS_7IntTypeIjLj4EEEE16sanitize_shallowEP21hb_sanitize_context_t, symObjAddr: 0x6194, symBinAddr: 0x27D54, symSize: 0x9C }
  - { offsetInCU: 0x42A07, offset: 0x21A459, size: 0x8, addend: 0x0, symName: __ZNK2OT7ArrayOfINS_23VariationSelectorRecordENS_7IntTypeIjLj4EEEE16sanitize_shallowEP21hb_sanitize_context_t, symObjAddr: 0x6194, symBinAddr: 0x27D54, symSize: 0x9C }
  - { offsetInCU: 0x42A2C, offset: 0x21A47E, size: 0x8, addend: 0x0, symName: __ZNK2OT7ArrayOfINS_23VariationSelectorRecordENS_7IntTypeIjLj4EEEE16sanitize_shallowEP21hb_sanitize_context_t, symObjAddr: 0x6194, symBinAddr: 0x27D54, symSize: 0x9C }
  - { offsetInCU: 0x42B6F, offset: 0x21A5C1, size: 0x8, addend: 0x0, symName: __ZNK2OT23VariationSelectorRecord8sanitizeEP21hb_sanitize_context_tPKv, symObjAddr: 0x6230, symBinAddr: 0x27DF0, symSize: 0x90 }
  - { offsetInCU: 0x42D25, offset: 0x21A777, size: 0x8, addend: 0x0, symName: __ZNK2OT8OffsetToINS_10DefaultUVSENS_7IntTypeIjLj4EEELb1EE8sanitizeIJEEEbP21hb_sanitize_context_tPKvDpOT_, symObjAddr: 0x62C0, symBinAddr: 0x27E80, symSize: 0xA0 }
  - { offsetInCU: 0x42FF0, offset: 0x21AA42, size: 0x8, addend: 0x0, symName: __ZNK2OT8OffsetToINS_13NonDefaultUVSENS_7IntTypeIjLj4EEELb1EE8sanitizeIJEEEbP21hb_sanitize_context_tPKvDpOT_, symObjAddr: 0x6360, symBinAddr: 0x27F20, symSize: 0xA0 }
  - { offsetInCU: 0x43489, offset: 0x21AEDB, size: 0x8, addend: 0x0, symName: __ZNK2OT7ArrayOfINS_17UnicodeValueRangeENS_7IntTypeIjLj4EEEE16sanitize_shallowEP21hb_sanitize_context_t, symObjAddr: 0x6400, symBinAddr: 0x27FC0, symSize: 0xB0 }
  - { offsetInCU: 0x434D0, offset: 0x21AF22, size: 0x8, addend: 0x0, symName: __ZNK2OT7ArrayOfINS_17UnicodeValueRangeENS_7IntTypeIjLj4EEEE16sanitize_shallowEP21hb_sanitize_context_t, symObjAddr: 0x6400, symBinAddr: 0x27FC0, symSize: 0xB0 }
  - { offsetInCU: 0x434F6, offset: 0x21AF48, size: 0x8, addend: 0x0, symName: __ZNK2OT7ArrayOfINS_17UnicodeValueRangeENS_7IntTypeIjLj4EEEE16sanitize_shallowEP21hb_sanitize_context_t, symObjAddr: 0x6400, symBinAddr: 0x27FC0, symSize: 0xB0 }
  - { offsetInCU: 0x4351B, offset: 0x21AF6D, size: 0x8, addend: 0x0, symName: __ZNK2OT7ArrayOfINS_17UnicodeValueRangeENS_7IntTypeIjLj4EEEE16sanitize_shallowEP21hb_sanitize_context_t, symObjAddr: 0x6400, symBinAddr: 0x27FC0, symSize: 0xB0 }
  - { offsetInCU: 0x43800, offset: 0x21B252, size: 0x8, addend: 0x0, symName: __ZNK2OT7ArrayOfINS_10UVSMappingENS_7IntTypeIjLj4EEEE16sanitize_shallowEP21hb_sanitize_context_t, symObjAddr: 0x64B0, symBinAddr: 0x28070, symSize: 0x98 }
  - { offsetInCU: 0x43847, offset: 0x21B299, size: 0x8, addend: 0x0, symName: __ZNK2OT7ArrayOfINS_10UVSMappingENS_7IntTypeIjLj4EEEE16sanitize_shallowEP21hb_sanitize_context_t, symObjAddr: 0x64B0, symBinAddr: 0x28070, symSize: 0x98 }
  - { offsetInCU: 0x4386D, offset: 0x21B2BF, size: 0x8, addend: 0x0, symName: __ZNK2OT7ArrayOfINS_10UVSMappingENS_7IntTypeIjLj4EEEE16sanitize_shallowEP21hb_sanitize_context_t, symObjAddr: 0x64B0, symBinAddr: 0x28070, symSize: 0x98 }
  - { offsetInCU: 0x43892, offset: 0x21B2E4, size: 0x8, addend: 0x0, symName: __ZNK2OT7ArrayOfINS_10UVSMappingENS_7IntTypeIjLj4EEEE16sanitize_shallowEP21hb_sanitize_context_t, symObjAddr: 0x64B0, symBinAddr: 0x28070, symSize: 0x98 }
  - { offsetInCU: 0x43BAE, offset: 0x21B600, size: 0x8, addend: 0x0, symName: __ZNK17hb_sorted_array_tIKN2OT14EncodingRecordEE12bsearch_implIS1_JEEEbRKT_PjDpT0_, symObjAddr: 0x6598, symBinAddr: 0x28158, symSize: 0x94 }
  - { offsetInCU: 0x43DE2, offset: 0x21B834, size: 0x8, addend: 0x0, symName: __ZNK2OT14EncodingRecord3cmpERKS0_, symObjAddr: 0x662C, symBinAddr: 0x281EC, symSize: 0x44 }
  - { offsetInCU: 0x43FAA, offset: 0x21B9FC, size: 0x8, addend: 0x0, symName: __ZNK17hb_data_wrapper_tI9hb_face_tLj6EE11call_createI9hb_blob_t22hb_table_lazy_loader_tIN2OT3OS2ELj6ELb1EEEEPT_v, symObjAddr: 0x66E4, symBinAddr: 0x282A4, symSize: 0x50 }
  - { offsetInCU: 0x440C1, offset: 0x21BB13, size: 0x8, addend: 0x0, symName: __ZN16hb_lazy_loader_tIN2OT3OS2E22hb_table_lazy_loader_tIS1_Lj6ELb1EE9hb_face_tLj6E9hb_blob_tE10do_destroyEPS5_, symObjAddr: 0x6734, symBinAddr: 0x282F4, symSize: 0x3C }
  - { offsetInCU: 0x44161, offset: 0x21BBB3, size: 0x8, addend: 0x0, symName: __ZN21hb_sanitize_context_t15reference_tableIN2OT3OS2EEEP9hb_blob_tPK9hb_face_tj, symObjAddr: 0x6770, symBinAddr: 0x28330, symSize: 0x6C }
  - { offsetInCU: 0x4429F, offset: 0x21BCF1, size: 0x8, addend: 0x0, symName: __ZN21hb_sanitize_context_t13sanitize_blobIN2OT3OS2EEEP9hb_blob_tS4_, symObjAddr: 0x67DC, symBinAddr: 0x2839C, symSize: 0x168 }
  - { offsetInCU: 0x444B3, offset: 0x21BF05, size: 0x8, addend: 0x0, symName: __ZNK2OT3OS28sanitizeEP21hb_sanitize_context_t, symObjAddr: 0x6944, symBinAddr: 0x28504, symSize: 0x118 }
  - { offsetInCU: 0x444FA, offset: 0x21BF4C, size: 0x8, addend: 0x0, symName: __ZNK2OT3OS28sanitizeEP21hb_sanitize_context_t, symObjAddr: 0x6944, symBinAddr: 0x28504, symSize: 0x118 }
  - { offsetInCU: 0x44520, offset: 0x21BF72, size: 0x8, addend: 0x0, symName: __ZNK2OT3OS28sanitizeEP21hb_sanitize_context_t, symObjAddr: 0x6944, symBinAddr: 0x28504, symSize: 0x118 }
  - { offsetInCU: 0x4490D, offset: 0x21C35F, size: 0x8, addend: 0x0, symName: __ZNK2OT19CmapSubtableFormat49get_glyphEjPj, symObjAddr: 0x6ADC, symBinAddr: 0x2869C, symSize: 0x68 }
  - { offsetInCU: 0x44AB1, offset: 0x21C503, size: 0x8, addend: 0x0, symName: __ZNK2OT19CmapSubtableTrimmedINS_7IntTypeItLj2EEEE9get_glyphEjPj, symObjAddr: 0x6B44, symBinAddr: 0x28704, symSize: 0x4C }
  - { offsetInCU: 0x44B0B, offset: 0x21C55D, size: 0x8, addend: 0x0, symName: __ZNK2OT19CmapSubtableTrimmedINS_7IntTypeItLj2EEEE9get_glyphEjPj, symObjAddr: 0x6B44, symBinAddr: 0x28704, symSize: 0x4C }
  - { offsetInCU: 0x44B2B, offset: 0x21C57D, size: 0x8, addend: 0x0, symName: __ZNK2OT19CmapSubtableTrimmedINS_7IntTypeItLj2EEEE9get_glyphEjPj, symObjAddr: 0x6B44, symBinAddr: 0x28704, symSize: 0x4C }
  - { offsetInCU: 0x44C3A, offset: 0x21C68C, size: 0x8, addend: 0x0, symName: __ZNK2OT19CmapSubtableTrimmedINS_7IntTypeIjLj4EEEE9get_glyphEjPj, symObjAddr: 0x6B90, symBinAddr: 0x28750, symSize: 0x48 }
  - { offsetInCU: 0x44C94, offset: 0x21C6E6, size: 0x8, addend: 0x0, symName: __ZNK2OT19CmapSubtableTrimmedINS_7IntTypeIjLj4EEEE9get_glyphEjPj, symObjAddr: 0x6B90, symBinAddr: 0x28750, symSize: 0x48 }
  - { offsetInCU: 0x44CB4, offset: 0x21C706, size: 0x8, addend: 0x0, symName: __ZNK2OT19CmapSubtableTrimmedINS_7IntTypeIjLj4EEEE9get_glyphEjPj, symObjAddr: 0x6B90, symBinAddr: 0x28750, symSize: 0x48 }
  - { offsetInCU: 0x44DC4, offset: 0x21C816, size: 0x8, addend: 0x0, symName: __ZNK2OT25CmapSubtableLongSegmentedINS_20CmapSubtableFormat13EE9get_glyphEjPj, symObjAddr: 0x6C2C, symBinAddr: 0x287EC, symSize: 0x54 }
  - { offsetInCU: 0x44EC3, offset: 0x21C915, size: 0x8, addend: 0x0, symName: __ZNK2OT13SortedArrayOfINS_21CmapSubtableLongGroupENS_7IntTypeIjLj4EEEE7bsearchIjEERKS1_RKT_S7_, symObjAddr: 0x6C80, symBinAddr: 0x28840, symSize: 0x54 }
  - { offsetInCU: 0x450D7, offset: 0x21CB29, size: 0x8, addend: 0x0, symName: __ZNK17hb_sorted_array_tIKN2OT21CmapSubtableLongGroupEE12bsearch_implIjJEEEbRKT_PjDpT0_, symObjAddr: 0x6CD4, symBinAddr: 0x28894, symSize: 0xA0 }
  - { offsetInCU: 0x45303, offset: 0x21CD55, size: 0x8, addend: 0x0, symName: __ZNK2OT21CmapSubtableLongGroup3cmpEj, symObjAddr: 0x6D74, symBinAddr: 0x28934, symSize: 0x2C }
  - { offsetInCU: 0x4533D, offset: 0x21CD8F, size: 0x8, addend: 0x0, symName: __ZNK2OT21CmapSubtableLongGroup3cmpEj, symObjAddr: 0x6D74, symBinAddr: 0x28934, symSize: 0x2C }
  - { offsetInCU: 0x4535B, offset: 0x21CDAD, size: 0x8, addend: 0x0, symName: __ZNK2OT21CmapSubtableLongGroup3cmpEj, symObjAddr: 0x6D74, symBinAddr: 0x28934, symSize: 0x2C }
  - { offsetInCU: 0x456B8, offset: 0x21D10A, size: 0x8, addend: 0x0, symName: __ZN12hb_hashmap_tIj17face_table_info_tLb0EE6resizeEj, symObjAddr: 0x71BC, symBinAddr: 0x28D7C, symSize: 0x180 }
  - { offsetInCU: 0x458D3, offset: 0x21D325, size: 0x8, addend: 0x0, symName: __ZN12hb_hashmap_tIj17face_table_info_tLb0EE13set_with_hashIjS0_EEbOT_jOT0_b, symObjAddr: 0x733C, symBinAddr: 0x28EFC, symSize: 0x100 }
  - { offsetInCU: 0x26, offset: 0x21D4BE, size: 0x8, addend: 0x0, symName: __ZL30hb_font_get_font_h_extents_nilP9hb_font_tPvP17hb_font_extents_tS1_, symObjAddr: 0x0, symBinAddr: 0x28FFC, symSize: 0x14 }
  - { offsetInCU: 0x41, offset: 0x21D4D9, size: 0x8, addend: 0x0, symName: __hb_Null_hb_font_funcs_t, symObjAddr: 0x5F30, symBinAddr: 0x13A460, symSize: 0x0 }
  - { offsetInCU: 0xF504, offset: 0x22C99C, size: 0x8, addend: 0x0, symName: __hb_Null_hb_font_t, symObjAddr: 0x6090, symBinAddr: 0x13A5C0, symSize: 0x0 }
  - { offsetInCU: 0xF521, offset: 0x22C9B9, size: 0x8, addend: 0x0, symName: __ZL22_hb_font_funcs_default, symObjAddr: 0x5FE0, symBinAddr: 0x13A510, symSize: 0x0 }
  - { offsetInCU: 0xF53C, offset: 0x22C9D4, size: 0x8, addend: 0x0, symName: __ZL22_hb_draw_funcs_default, symObjAddr: 0x6128, symBinAddr: 0x13A658, symSize: 0x0 }
  - { offsetInCU: 0x1186B, offset: 0x22ED03, size: 0x8, addend: 0x0, symName: __ZL30hb_font_get_font_h_extents_nilP9hb_font_tPvP17hb_font_extents_tS1_, symObjAddr: 0x0, symBinAddr: 0x28FFC, symSize: 0x14 }
  - { offsetInCU: 0x118BF, offset: 0x22ED57, size: 0x8, addend: 0x0, symName: __ZL30hb_font_get_font_h_extents_nilP9hb_font_tPvP17hb_font_extents_tS1_, symObjAddr: 0x0, symBinAddr: 0x28FFC, symSize: 0x14 }
  - { offsetInCU: 0x118E8, offset: 0x22ED80, size: 0x8, addend: 0x0, symName: __ZL30hb_font_get_font_v_extents_nilP9hb_font_tPvP17hb_font_extents_tS1_, symObjAddr: 0x14, symBinAddr: 0x29010, symSize: 0x14 }
  - { offsetInCU: 0x1193C, offset: 0x22EDD4, size: 0x8, addend: 0x0, symName: __ZL30hb_font_get_font_v_extents_nilP9hb_font_tPvP17hb_font_extents_tS1_, symObjAddr: 0x14, symBinAddr: 0x29010, symSize: 0x14 }
  - { offsetInCU: 0x11965, offset: 0x22EDFD, size: 0x8, addend: 0x0, symName: __ZL29hb_font_get_nominal_glyph_nilP9hb_font_tPvjPjS1_, symObjAddr: 0x28, symBinAddr: 0x29024, symSize: 0xC }
  - { offsetInCU: 0x11B0B, offset: 0x22EFA3, size: 0x8, addend: 0x0, symName: __ZL34hb_font_get_nominal_glyphs_defaultP9hb_font_tPvjPKjjPjjS1_, symObjAddr: 0x34, symBinAddr: 0x29030, symSize: 0x104 }
  - { offsetInCU: 0x11D04, offset: 0x22F19C, size: 0x8, addend: 0x0, symName: __ZL31hb_font_get_variation_glyph_nilP9hb_font_tPvjjPjS1_, symObjAddr: 0x138, symBinAddr: 0x29134, symSize: 0xC }
  - { offsetInCU: 0x11D6D, offset: 0x22F205, size: 0x8, addend: 0x0, symName: __ZL31hb_font_get_glyph_h_advance_nilP9hb_font_tPvjS1_, symObjAddr: 0x144, symBinAddr: 0x29140, symSize: 0x8 }
  - { offsetInCU: 0x11DC0, offset: 0x22F258, size: 0x8, addend: 0x0, symName: __ZL31hb_font_get_glyph_v_advance_nilP9hb_font_tPvjS1_, symObjAddr: 0x14C, symBinAddr: 0x29148, symSize: 0x8 }
  - { offsetInCU: 0x11F12, offset: 0x22F3AA, size: 0x8, addend: 0x0, symName: __ZL36hb_font_get_glyph_h_advances_defaultP9hb_font_tPvjPKjjPijS1_, symObjAddr: 0x154, symBinAddr: 0x29150, symSize: 0x120 }
  - { offsetInCU: 0x12222, offset: 0x22F6BA, size: 0x8, addend: 0x0, symName: __ZL36hb_font_get_glyph_v_advances_defaultP9hb_font_tPvjPKjjPijS1_, symObjAddr: 0x274, symBinAddr: 0x29270, symSize: 0x120 }
  - { offsetInCU: 0x12470, offset: 0x22F908, size: 0x8, addend: 0x0, symName: __ZL30hb_font_get_glyph_h_origin_nilP9hb_font_tPvjPiS2_S1_, symObjAddr: 0x394, symBinAddr: 0x29390, symSize: 0x10 }
  - { offsetInCU: 0x124E2, offset: 0x22F97A, size: 0x8, addend: 0x0, symName: __ZL30hb_font_get_glyph_v_origin_nilP9hb_font_tPvjPiS2_S1_, symObjAddr: 0x3A4, symBinAddr: 0x293A0, symSize: 0x10 }
  - { offsetInCU: 0x12554, offset: 0x22F9EC, size: 0x8, addend: 0x0, symName: __ZL31hb_font_get_glyph_h_kerning_nilP9hb_font_tPvjjS1_, symObjAddr: 0x3B4, symBinAddr: 0x293B0, symSize: 0x8 }
  - { offsetInCU: 0x125B5, offset: 0x22FA4D, size: 0x8, addend: 0x0, symName: __ZL31hb_font_get_glyph_v_kerning_nilP9hb_font_tPvjjS1_, symObjAddr: 0x3BC, symBinAddr: 0x293B8, symSize: 0x8 }
  - { offsetInCU: 0x12616, offset: 0x22FAAE, size: 0x8, addend: 0x0, symName: __ZL29hb_font_get_glyph_extents_nilP9hb_font_tPvjP18hb_glyph_extents_tS1_, symObjAddr: 0x3C4, symBinAddr: 0x293C0, symSize: 0xC }
  - { offsetInCU: 0x1267C, offset: 0x22FB14, size: 0x8, addend: 0x0, symName: __ZL29hb_font_get_glyph_extents_nilP9hb_font_tPvjP18hb_glyph_extents_tS1_, symObjAddr: 0x3C4, symBinAddr: 0x293C0, symSize: 0xC }
  - { offsetInCU: 0x126A6, offset: 0x22FB3E, size: 0x8, addend: 0x0, symName: __ZL35hb_font_get_glyph_contour_point_nilP9hb_font_tPvjjPiS2_S1_, symObjAddr: 0x3D0, symBinAddr: 0x293CC, symSize: 0x10 }
  - { offsetInCU: 0x12725, offset: 0x22FBBD, size: 0x8, addend: 0x0, symName: __ZL26hb_font_get_glyph_name_nilP9hb_font_tPvjPcjS1_, symObjAddr: 0x3E0, symBinAddr: 0x293DC, symSize: 0x10 }
  - { offsetInCU: 0x12797, offset: 0x22FC2F, size: 0x8, addend: 0x0, symName: __ZL31hb_font_get_glyph_from_name_nilP9hb_font_tPvPKciPjS1_, symObjAddr: 0x3F0, symBinAddr: 0x293EC, symSize: 0xC }
  - { offsetInCU: 0x12807, offset: 0x22FC9F, size: 0x8, addend: 0x0, symName: __ZL27hb_font_get_glyph_shape_nilP9hb_font_tPvjP15hb_draw_funcs_tS1_S1_, symObjAddr: 0x3FC, symBinAddr: 0x293F8, symSize: 0x4 }
  - { offsetInCU: 0x12A03, offset: 0x22FE9B, size: 0x8, addend: 0x0, symName: _hb_font_funcs_create, symObjAddr: 0x400, symBinAddr: 0x293FC, symSize: 0x78 }
  - { offsetInCU: 0x12BF2, offset: 0x23008A, size: 0x8, addend: 0x0, symName: _hb_font_funcs_get_empty, symObjAddr: 0x478, symBinAddr: 0x29474, symSize: 0xC }
  - { offsetInCU: 0x12C7C, offset: 0x230114, size: 0x8, addend: 0x0, symName: _hb_font_funcs_reference, symObjAddr: 0x484, symBinAddr: 0x29480, symSize: 0x24 }
  - { offsetInCU: 0x12C9C, offset: 0x230134, size: 0x8, addend: 0x0, symName: _hb_font_funcs_reference, symObjAddr: 0x484, symBinAddr: 0x29480, symSize: 0x24 }
  - { offsetInCU: 0x12CBA, offset: 0x230152, size: 0x8, addend: 0x0, symName: _hb_font_funcs_reference, symObjAddr: 0x484, symBinAddr: 0x29480, symSize: 0x24 }
  - { offsetInCU: 0x12EC1, offset: 0x230359, size: 0x8, addend: 0x0, symName: _hb_font_funcs_destroy, symObjAddr: 0x4A8, symBinAddr: 0x294A4, symSize: 0x320 }
  - { offsetInCU: 0x134F0, offset: 0x230988, size: 0x8, addend: 0x0, symName: _hb_font_funcs_set_user_data, symObjAddr: 0x7C8, symBinAddr: 0x297C4, symSize: 0xC8 }
  - { offsetInCU: 0x13809, offset: 0x230CA1, size: 0x8, addend: 0x0, symName: _hb_font_funcs_get_user_data, symObjAddr: 0x890, symBinAddr: 0x2988C, symSize: 0x24 }
  - { offsetInCU: 0x13848, offset: 0x230CE0, size: 0x8, addend: 0x0, symName: _hb_font_funcs_get_user_data, symObjAddr: 0x890, symBinAddr: 0x2988C, symSize: 0x24 }
  - { offsetInCU: 0x1395C, offset: 0x230DF4, size: 0x8, addend: 0x0, symName: _hb_font_funcs_make_immutable, symObjAddr: 0x8B4, symBinAddr: 0x298B0, symSize: 0x10 }
  - { offsetInCU: 0x13986, offset: 0x230E1E, size: 0x8, addend: 0x0, symName: _hb_font_funcs_make_immutable, symObjAddr: 0x8B4, symBinAddr: 0x298B0, symSize: 0x10 }
  - { offsetInCU: 0x139A3, offset: 0x230E3B, size: 0x8, addend: 0x0, symName: _hb_font_funcs_make_immutable, symObjAddr: 0x8B4, symBinAddr: 0x298B0, symSize: 0x10 }
  - { offsetInCU: 0x139C2, offset: 0x230E5A, size: 0x8, addend: 0x0, symName: _hb_font_funcs_make_immutable, symObjAddr: 0x8B4, symBinAddr: 0x298B0, symSize: 0x10 }
  - { offsetInCU: 0x13A3B, offset: 0x230ED3, size: 0x8, addend: 0x0, symName: _hb_font_funcs_is_immutable, symObjAddr: 0x8C4, symBinAddr: 0x298C0, symSize: 0x10 }
  - { offsetInCU: 0x13A6B, offset: 0x230F03, size: 0x8, addend: 0x0, symName: _hb_font_funcs_is_immutable, symObjAddr: 0x8C4, symBinAddr: 0x298C0, symSize: 0x10 }
  - { offsetInCU: 0x13A88, offset: 0x230F20, size: 0x8, addend: 0x0, symName: _hb_font_funcs_is_immutable, symObjAddr: 0x8C4, symBinAddr: 0x298C0, symSize: 0x10 }
  - { offsetInCU: 0x13AA7, offset: 0x230F3F, size: 0x8, addend: 0x0, symName: _hb_font_funcs_is_immutable, symObjAddr: 0x8C4, symBinAddr: 0x298C0, symSize: 0x10 }
  - { offsetInCU: 0x13B13, offset: 0x230FAB, size: 0x8, addend: 0x0, symName: _hb_font_funcs_set_font_h_extents_func, symObjAddr: 0x8D4, symBinAddr: 0x298D0, symSize: 0xEC }
  - { offsetInCU: 0x13C40, offset: 0x2310D8, size: 0x8, addend: 0x0, symName: __ZL25_hb_font_funcs_set_middleP15hb_font_funcs_tPvPFvS1_E, symObjAddr: 0x9C0, symBinAddr: 0x299BC, symSize: 0x90 }
  - { offsetInCU: 0x13CDA, offset: 0x231172, size: 0x8, addend: 0x0, symName: __ZL34hb_font_get_font_h_extents_defaultP9hb_font_tPvP17hb_font_extents_tS1_, symObjAddr: 0xA50, symBinAddr: 0x29A4C, symSize: 0xA0 }
  - { offsetInCU: 0x13DE9, offset: 0x231281, size: 0x8, addend: 0x0, symName: _hb_font_funcs_set_font_v_extents_func, symObjAddr: 0xAF0, symBinAddr: 0x29AEC, symSize: 0xEC }
  - { offsetInCU: 0x13F38, offset: 0x2313D0, size: 0x8, addend: 0x0, symName: __ZL34hb_font_get_font_v_extents_defaultP9hb_font_tPvP17hb_font_extents_tS1_, symObjAddr: 0xBDC, symBinAddr: 0x29BD8, symSize: 0xA0 }
  - { offsetInCU: 0x14047, offset: 0x2314DF, size: 0x8, addend: 0x0, symName: _hb_font_funcs_set_nominal_glyph_func, symObjAddr: 0xC7C, symBinAddr: 0x29C78, symSize: 0xEC }
  - { offsetInCU: 0x141A2, offset: 0x23163A, size: 0x8, addend: 0x0, symName: __ZL33hb_font_get_nominal_glyph_defaultP9hb_font_tPvjPjS1_, symObjAddr: 0xD68, symBinAddr: 0x29D64, symSize: 0x98 }
  - { offsetInCU: 0x14305, offset: 0x23179D, size: 0x8, addend: 0x0, symName: _hb_font_funcs_set_nominal_glyphs_func, symObjAddr: 0xE00, symBinAddr: 0x29DFC, symSize: 0xEC }
  - { offsetInCU: 0x14432, offset: 0x2318CA, size: 0x8, addend: 0x0, symName: _hb_font_funcs_set_variation_glyph_func, symObjAddr: 0xEEC, symBinAddr: 0x29EE8, symSize: 0xEC }
  - { offsetInCU: 0x145A4, offset: 0x231A3C, size: 0x8, addend: 0x0, symName: __ZL35hb_font_get_variation_glyph_defaultP9hb_font_tPvjjPjS1_, symObjAddr: 0xFD8, symBinAddr: 0x29FD4, symSize: 0x28 }
  - { offsetInCU: 0x14662, offset: 0x231AFA, size: 0x8, addend: 0x0, symName: _hb_font_funcs_set_glyph_h_advance_func, symObjAddr: 0x1000, symBinAddr: 0x29FFC, symSize: 0xEC }
  - { offsetInCU: 0x147BD, offset: 0x231C55, size: 0x8, addend: 0x0, symName: __ZL35hb_font_get_glyph_h_advance_defaultP9hb_font_tPvjS1_, symObjAddr: 0x10EC, symBinAddr: 0x2A0E8, symSize: 0xC4 }
  - { offsetInCU: 0x14943, offset: 0x231DDB, size: 0x8, addend: 0x0, symName: _hb_font_funcs_set_glyph_v_advance_func, symObjAddr: 0x11B0, symBinAddr: 0x2A1AC, symSize: 0xEC }
  - { offsetInCU: 0x14A9E, offset: 0x231F36, size: 0x8, addend: 0x0, symName: __ZL35hb_font_get_glyph_v_advance_defaultP9hb_font_tPvjS1_, symObjAddr: 0x129C, symBinAddr: 0x2A298, symSize: 0xC4 }
  - { offsetInCU: 0x14C24, offset: 0x2320BC, size: 0x8, addend: 0x0, symName: _hb_font_funcs_set_glyph_h_advances_func, symObjAddr: 0x1360, symBinAddr: 0x2A35C, symSize: 0xEC }
  - { offsetInCU: 0x14D51, offset: 0x2321E9, size: 0x8, addend: 0x0, symName: _hb_font_funcs_set_glyph_v_advances_func, symObjAddr: 0x144C, symBinAddr: 0x2A448, symSize: 0xEC }
  - { offsetInCU: 0x14E7E, offset: 0x232316, size: 0x8, addend: 0x0, symName: _hb_font_funcs_set_glyph_h_origin_func, symObjAddr: 0x1538, symBinAddr: 0x2A534, symSize: 0xEC }
  - { offsetInCU: 0x14FE8, offset: 0x232480, size: 0x8, addend: 0x0, symName: __ZL34hb_font_get_glyph_h_origin_defaultP9hb_font_tPvjPiS2_S1_, symObjAddr: 0x1624, symBinAddr: 0x2A620, symSize: 0x7C }
  - { offsetInCU: 0x150E7, offset: 0x23257F, size: 0x8, addend: 0x0, symName: __ZN9hb_font_t21parent_scale_positionEPiS0_, symObjAddr: 0x3E20, symBinAddr: 0x2CD14, symSize: 0x60 }
  - { offsetInCU: 0x151A8, offset: 0x232640, size: 0x8, addend: 0x0, symName: _hb_font_funcs_set_glyph_v_origin_func, symObjAddr: 0x16A0, symBinAddr: 0x2A69C, symSize: 0xEC }
  - { offsetInCU: 0x15312, offset: 0x2327AA, size: 0x8, addend: 0x0, symName: __ZL34hb_font_get_glyph_v_origin_defaultP9hb_font_tPvjPiS2_S1_, symObjAddr: 0x178C, symBinAddr: 0x2A788, symSize: 0x7C }
  - { offsetInCU: 0x15411, offset: 0x2328A9, size: 0x8, addend: 0x0, symName: _hb_font_funcs_set_glyph_h_kerning_func, symObjAddr: 0x1808, symBinAddr: 0x2A804, symSize: 0xEC }
  - { offsetInCU: 0x1556E, offset: 0x232A06, size: 0x8, addend: 0x0, symName: __ZL35hb_font_get_glyph_h_kerning_defaultP9hb_font_tPvjjS1_, symObjAddr: 0x18F4, symBinAddr: 0x2A8F0, symSize: 0x64 }
  - { offsetInCU: 0x15629, offset: 0x232AC1, size: 0x8, addend: 0x0, symName: _hb_font_funcs_set_glyph_v_kerning_func, symObjAddr: 0x1958, symBinAddr: 0x2A954, symSize: 0xEC }
  - { offsetInCU: 0x15786, offset: 0x232C1E, size: 0x8, addend: 0x0, symName: __ZL35hb_font_get_glyph_v_kerning_defaultP9hb_font_tPvjjS1_, symObjAddr: 0x1A44, symBinAddr: 0x2AA40, symSize: 0x64 }
  - { offsetInCU: 0x15841, offset: 0x232CD9, size: 0x8, addend: 0x0, symName: _hb_font_funcs_set_glyph_extents_func, symObjAddr: 0x1AA8, symBinAddr: 0x2AAA4, symSize: 0xEC }
  - { offsetInCU: 0x1599E, offset: 0x232E36, size: 0x8, addend: 0x0, symName: __ZL33hb_font_get_glyph_extents_defaultP9hb_font_tPvjP18hb_glyph_extents_tS1_, symObjAddr: 0x1B94, symBinAddr: 0x2AB90, symSize: 0x80 }
  - { offsetInCU: 0x15ACE, offset: 0x232F66, size: 0x8, addend: 0x0, symName: __ZN9hb_font_t21parent_scale_distanceEPiS0_, symObjAddr: 0x3E80, symBinAddr: 0x2CD74, symSize: 0x60 }
  - { offsetInCU: 0x15B4F, offset: 0x232FE7, size: 0x8, addend: 0x0, symName: _hb_font_funcs_set_glyph_contour_point_func, symObjAddr: 0x1C14, symBinAddr: 0x2AC10, symSize: 0xEC }
  - { offsetInCU: 0x15CC6, offset: 0x23315E, size: 0x8, addend: 0x0, symName: __ZL39hb_font_get_glyph_contour_point_defaultP9hb_font_tPvjjPiS2_S1_, symObjAddr: 0x1D00, symBinAddr: 0x2ACFC, symSize: 0x7C }
  - { offsetInCU: 0x15DD6, offset: 0x23326E, size: 0x8, addend: 0x0, symName: _hb_font_funcs_set_glyph_name_func, symObjAddr: 0x1D7C, symBinAddr: 0x2AD78, symSize: 0xEC }
  - { offsetInCU: 0x15F40, offset: 0x2333D8, size: 0x8, addend: 0x0, symName: __ZL30hb_font_get_glyph_name_defaultP9hb_font_tPvjPcjS1_, symObjAddr: 0x1E68, symBinAddr: 0x2AE64, symSize: 0x2C }
  - { offsetInCU: 0x15FFE, offset: 0x233496, size: 0x8, addend: 0x0, symName: _hb_font_funcs_set_glyph_from_name_func, symObjAddr: 0x1E94, symBinAddr: 0x2AE90, symSize: 0xEC }
  - { offsetInCU: 0x1612B, offset: 0x2335C3, size: 0x8, addend: 0x0, symName: __ZL35hb_font_get_glyph_from_name_defaultP9hb_font_tPvPKciPjS1_, symObjAddr: 0x1F80, symBinAddr: 0x2AF7C, symSize: 0x14 }
  - { offsetInCU: 0x161D0, offset: 0x233668, size: 0x8, addend: 0x0, symName: __ZN9hb_font_t19get_glyph_from_nameEPKciPj, symObjAddr: 0x24F4, symBinAddr: 0x2B4C8, symSize: 0x70 }
  - { offsetInCU: 0x1624C, offset: 0x2336E4, size: 0x8, addend: 0x0, symName: _hb_font_funcs_set_glyph_shape_func, symObjAddr: 0x1F94, symBinAddr: 0x2AF90, symSize: 0xEC }
  - { offsetInCU: 0x163B6, offset: 0x23384E, size: 0x8, addend: 0x0, symName: __ZL31hb_font_get_glyph_shape_defaultP9hb_font_tPvjP15hb_draw_funcs_tS1_S1_, symObjAddr: 0x2080, symBinAddr: 0x2B07C, symSize: 0xB8 }
  - { offsetInCU: 0x16483, offset: 0x23391B, size: 0x8, addend: 0x0, symName: __ZN9hb_font_t8has_funcEj, symObjAddr: 0x2160, symBinAddr: 0x2B134, symSize: 0x4C }
  - { offsetInCU: 0x164D3, offset: 0x23396B, size: 0x8, addend: 0x0, symName: _hb_font_get_h_extents, symObjAddr: 0x21AC, symBinAddr: 0x2B180, symSize: 0x30 }
  - { offsetInCU: 0x16581, offset: 0x233A19, size: 0x8, addend: 0x0, symName: _hb_font_get_v_extents, symObjAddr: 0x21DC, symBinAddr: 0x2B1B0, symSize: 0x30 }
  - { offsetInCU: 0x1662F, offset: 0x233AC7, size: 0x8, addend: 0x0, symName: _hb_font_get_glyph, symObjAddr: 0x220C, symBinAddr: 0x2B1E0, symSize: 0x54 }
  - { offsetInCU: 0x16719, offset: 0x233BB1, size: 0x8, addend: 0x0, symName: _hb_font_get_nominal_glyph, symObjAddr: 0x2260, symBinAddr: 0x2B234, symSize: 0x2C }
  - { offsetInCU: 0x167BB, offset: 0x233C53, size: 0x8, addend: 0x0, symName: _hb_font_get_nominal_glyphs, symObjAddr: 0x228C, symBinAddr: 0x2B260, symSize: 0x34 }
  - { offsetInCU: 0x168A1, offset: 0x233D39, size: 0x8, addend: 0x0, symName: _hb_font_get_variation_glyph, symObjAddr: 0x22C0, symBinAddr: 0x2B294, symSize: 0x30 }
  - { offsetInCU: 0x1695C, offset: 0x233DF4, size: 0x8, addend: 0x0, symName: _hb_font_get_glyph_h_advance, symObjAddr: 0x22F0, symBinAddr: 0x2B2C4, symSize: 0x24 }
  - { offsetInCU: 0x169DE, offset: 0x233E76, size: 0x8, addend: 0x0, symName: _hb_font_get_glyph_v_advance, symObjAddr: 0x2314, symBinAddr: 0x2B2E8, symSize: 0x24 }
  - { offsetInCU: 0x16A60, offset: 0x233EF8, size: 0x8, addend: 0x0, symName: _hb_font_get_glyph_h_advances, symObjAddr: 0x2338, symBinAddr: 0x2B30C, symSize: 0x34 }
  - { offsetInCU: 0x16B42, offset: 0x233FDA, size: 0x8, addend: 0x0, symName: _hb_font_get_glyph_v_advances, symObjAddr: 0x236C, symBinAddr: 0x2B340, symSize: 0x34 }
  - { offsetInCU: 0x16C24, offset: 0x2340BC, size: 0x8, addend: 0x0, symName: _hb_font_get_glyph_h_origin, symObjAddr: 0x23A0, symBinAddr: 0x2B374, symSize: 0x34 }
  - { offsetInCU: 0x16CD8, offset: 0x234170, size: 0x8, addend: 0x0, symName: _hb_font_get_glyph_v_origin, symObjAddr: 0x23D4, symBinAddr: 0x2B3A8, symSize: 0x34 }
  - { offsetInCU: 0x16D8C, offset: 0x234224, size: 0x8, addend: 0x0, symName: _hb_font_get_glyph_h_kerning, symObjAddr: 0x2408, symBinAddr: 0x2B3DC, symSize: 0x28 }
  - { offsetInCU: 0x16E27, offset: 0x2342BF, size: 0x8, addend: 0x0, symName: _hb_font_get_glyph_v_kerning, symObjAddr: 0x2430, symBinAddr: 0x2B404, symSize: 0x28 }
  - { offsetInCU: 0x16EC2, offset: 0x23435A, size: 0x8, addend: 0x0, symName: _hb_font_get_glyph_extents, symObjAddr: 0x2458, symBinAddr: 0x2B42C, symSize: 0x2C }
  - { offsetInCU: 0x16F8A, offset: 0x234422, size: 0x8, addend: 0x0, symName: _hb_font_get_glyph_contour_point, symObjAddr: 0x2484, symBinAddr: 0x2B458, symSize: 0x38 }
  - { offsetInCU: 0x17057, offset: 0x2344EF, size: 0x8, addend: 0x0, symName: _hb_font_get_glyph_name, symObjAddr: 0x24BC, symBinAddr: 0x2B490, symSize: 0x34 }
  - { offsetInCU: 0x1710B, offset: 0x2345A3, size: 0x8, addend: 0x0, symName: _hb_font_get_glyph_from_name, symObjAddr: 0x24F0, symBinAddr: 0x2B4C4, symSize: 0x4 }
  - { offsetInCU: 0x17166, offset: 0x2345FE, size: 0x8, addend: 0x0, symName: _hb_font_get_glyph_from_name, symObjAddr: 0x24F0, symBinAddr: 0x2B4C4, symSize: 0x4 }
  - { offsetInCU: 0x17192, offset: 0x23462A, size: 0x8, addend: 0x0, symName: _hb_font_get_glyph_shape, symObjAddr: 0x2564, symBinAddr: 0x2B538, symSize: 0x2C }
  - { offsetInCU: 0x17242, offset: 0x2346DA, size: 0x8, addend: 0x0, symName: _hb_font_get_extents_for_direction, symObjAddr: 0x2590, symBinAddr: 0x2B564, symSize: 0x4 }
  - { offsetInCU: 0x1728A, offset: 0x234722, size: 0x8, addend: 0x0, symName: _hb_font_get_extents_for_direction, symObjAddr: 0x2590, symBinAddr: 0x2B564, symSize: 0x4 }
  - { offsetInCU: 0x172AE, offset: 0x234746, size: 0x8, addend: 0x0, symName: __ZN9hb_font_t25get_extents_for_directionE14hb_direction_tP17hb_font_extents_t, symObjAddr: 0x2594, symBinAddr: 0x2B568, symSize: 0x18 }
  - { offsetInCU: 0x1737D, offset: 0x234815, size: 0x8, addend: 0x0, symName: __ZN9hb_font_t27get_v_extents_with_fallbackEP17hb_font_extents_t, symObjAddr: 0x40C4, symBinAddr: 0x2CF3C, symSize: 0x74 }
  - { offsetInCU: 0x17423, offset: 0x2348BB, size: 0x8, addend: 0x0, symName: _hb_font_get_glyph_advance_for_direction, symObjAddr: 0x25AC, symBinAddr: 0x2B580, symSize: 0x4 }
  - { offsetInCU: 0x17489, offset: 0x234921, size: 0x8, addend: 0x0, symName: _hb_font_get_glyph_advance_for_direction, symObjAddr: 0x25AC, symBinAddr: 0x2B580, symSize: 0x4 }
  - { offsetInCU: 0x174BD, offset: 0x234955, size: 0x8, addend: 0x0, symName: __ZN9hb_font_t31get_glyph_advance_for_directionEj14hb_direction_tPiS1_, symObjAddr: 0x25B0, symBinAddr: 0x2B584, symSize: 0x84 }
  - { offsetInCU: 0x1758E, offset: 0x234A26, size: 0x8, addend: 0x0, symName: _hb_font_get_glyph_advances_for_direction, symObjAddr: 0x2634, symBinAddr: 0x2B608, symSize: 0x4 }
  - { offsetInCU: 0x17612, offset: 0x234AAA, size: 0x8, addend: 0x0, symName: _hb_font_get_glyph_advances_for_direction, symObjAddr: 0x2634, symBinAddr: 0x2B608, symSize: 0x4 }
  - { offsetInCU: 0x17656, offset: 0x234AEE, size: 0x8, addend: 0x0, symName: __ZN9hb_font_t32get_glyph_advances_for_directionE14hb_direction_tjPKjjPij, symObjAddr: 0x2638, symBinAddr: 0x2B60C, symSize: 0x3C }
  - { offsetInCU: 0x17790, offset: 0x234C28, size: 0x8, addend: 0x0, symName: _hb_font_get_glyph_origin_for_direction, symObjAddr: 0x2674, symBinAddr: 0x2B648, symSize: 0x4 }
  - { offsetInCU: 0x177F6, offset: 0x234C8E, size: 0x8, addend: 0x0, symName: _hb_font_get_glyph_origin_for_direction, symObjAddr: 0x2674, symBinAddr: 0x2B648, symSize: 0x4 }
  - { offsetInCU: 0x17AEF, offset: 0x234F87, size: 0x8, addend: 0x0, symName: _hb_font_add_glyph_origin_for_direction, symObjAddr: 0x2694, symBinAddr: 0x2B64C, symSize: 0x54 }
  - { offsetInCU: 0x17C4E, offset: 0x2350E6, size: 0x8, addend: 0x0, symName: _hb_font_subtract_glyph_origin_for_direction, symObjAddr: 0x26E8, symBinAddr: 0x2B6A0, symSize: 0x54 }
  - { offsetInCU: 0x17D49, offset: 0x2351E1, size: 0x8, addend: 0x0, symName: _hb_font_get_glyph_kerning_for_direction, symObjAddr: 0x273C, symBinAddr: 0x2B6F4, symSize: 0x4 }
  - { offsetInCU: 0x17DBE, offset: 0x235256, size: 0x8, addend: 0x0, symName: _hb_font_get_glyph_kerning_for_direction, symObjAddr: 0x273C, symBinAddr: 0x2B6F4, symSize: 0x4 }
  - { offsetInCU: 0x17DFA, offset: 0x235292, size: 0x8, addend: 0x0, symName: __ZN9hb_font_t31get_glyph_kerning_for_directionEjj14hb_direction_tPiS1_, symObjAddr: 0x2740, symBinAddr: 0x2B6F8, symSize: 0x90 }
  - { offsetInCU: 0x17EEC, offset: 0x235384, size: 0x8, addend: 0x0, symName: _hb_font_get_glyph_extents_for_origin, symObjAddr: 0x27D0, symBinAddr: 0x2B788, symSize: 0x4 }
  - { offsetInCU: 0x17F47, offset: 0x2353DF, size: 0x8, addend: 0x0, symName: _hb_font_get_glyph_extents_for_origin, symObjAddr: 0x27D0, symBinAddr: 0x2B788, symSize: 0x4 }
  - { offsetInCU: 0x17F73, offset: 0x23540B, size: 0x8, addend: 0x0, symName: __ZN9hb_font_t28get_glyph_extents_for_originEj14hb_direction_tP18hb_glyph_extents_t, symObjAddr: 0x27D4, symBinAddr: 0x2B78C, symSize: 0xAC }
  - { offsetInCU: 0x180DB, offset: 0x235573, size: 0x8, addend: 0x0, symName: _hb_font_get_glyph_contour_point_for_origin, symObjAddr: 0x2880, symBinAddr: 0x2B838, symSize: 0x4 }
  - { offsetInCU: 0x18154, offset: 0x2355EC, size: 0x8, addend: 0x0, symName: _hb_font_get_glyph_contour_point_for_origin, symObjAddr: 0x2880, symBinAddr: 0x2B838, symSize: 0x4 }
  - { offsetInCU: 0x1828E, offset: 0x235726, size: 0x8, addend: 0x0, symName: _hb_font_glyph_to_string, symObjAddr: 0x2948, symBinAddr: 0x2B83C, symSize: 0x4 }
  - { offsetInCU: 0x182E5, offset: 0x23577D, size: 0x8, addend: 0x0, symName: _hb_font_glyph_to_string, symObjAddr: 0x2948, symBinAddr: 0x2B83C, symSize: 0x4 }
  - { offsetInCU: 0x18311, offset: 0x2357A9, size: 0x8, addend: 0x0, symName: __ZN9hb_font_t15glyph_to_stringEjPcj, symObjAddr: 0x294C, symBinAddr: 0x2B840, symSize: 0x90 }
  - { offsetInCU: 0x183C4, offset: 0x23585C, size: 0x8, addend: 0x0, symName: _hb_font_glyph_from_string, symObjAddr: 0x29DC, symBinAddr: 0x2B8D0, symSize: 0x4 }
  - { offsetInCU: 0x1841F, offset: 0x2358B7, size: 0x8, addend: 0x0, symName: _hb_font_glyph_from_string, symObjAddr: 0x29DC, symBinAddr: 0x2B8D0, symSize: 0x4 }
  - { offsetInCU: 0x1844B, offset: 0x2358E3, size: 0x8, addend: 0x0, symName: __ZN9hb_font_t17glyph_from_stringEPKciPj, symObjAddr: 0x29E0, symBinAddr: 0x2B8D4, symSize: 0x14C }
  - { offsetInCU: 0x18748, offset: 0x235BE0, size: 0x8, addend: 0x0, symName: _hb_font_create, symObjAddr: 0x2B2C, symBinAddr: 0x2BA20, symSize: 0x4C }
  - { offsetInCU: 0x187C1, offset: 0x235C59, size: 0x8, addend: 0x0, symName: __ZL15_hb_font_createP9hb_face_t, symObjAddr: 0x2B78, symBinAddr: 0x2BA6C, symSize: 0xC4 }
  - { offsetInCU: 0x18A9A, offset: 0x235F32, size: 0x8, addend: 0x0, symName: _hb_font_set_var_named_instance, symObjAddr: 0x2C3C, symBinAddr: 0x2BB30, symSize: 0xA4 }
  - { offsetInCU: 0x18D01, offset: 0x236199, size: 0x8, addend: 0x0, symName: _hb_font_set_var_coords_design, symObjAddr: 0x3B34, symBinAddr: 0x2CA28, symSize: 0xEC }
  - { offsetInCU: 0x18ECB, offset: 0x236363, size: 0x8, addend: 0x0, symName: _hb_font_create_sub_font, symObjAddr: 0x2CE0, symBinAddr: 0x2BBD4, symSize: 0x114 }
  - { offsetInCU: 0x191AB, offset: 0x236643, size: 0x8, addend: 0x0, symName: __ZL25_hb_font_adopt_var_coordsP9hb_font_tPiPfj, symObjAddr: 0x2E24, symBinAddr: 0x2BD18, symSize: 0x4C }
  - { offsetInCU: 0x19221, offset: 0x2366B9, size: 0x8, addend: 0x0, symName: __ZN9hb_font_t13mults_changedEv, symObjAddr: 0x2E70, symBinAddr: 0x2BD64, symSize: 0xC8 }
  - { offsetInCU: 0x193A5, offset: 0x23683D, size: 0x8, addend: 0x0, symName: _hb_font_get_empty, symObjAddr: 0x2DF4, symBinAddr: 0x2BCE8, symSize: 0xC }
  - { offsetInCU: 0x193C0, offset: 0x236858, size: 0x8, addend: 0x0, symName: _hb_font_reference, symObjAddr: 0x2E00, symBinAddr: 0x2BCF4, symSize: 0x24 }
  - { offsetInCU: 0x193E0, offset: 0x236878, size: 0x8, addend: 0x0, symName: _hb_font_reference, symObjAddr: 0x2E00, symBinAddr: 0x2BCF4, symSize: 0x24 }
  - { offsetInCU: 0x193FE, offset: 0x236896, size: 0x8, addend: 0x0, symName: _hb_font_reference, symObjAddr: 0x2E00, symBinAddr: 0x2BCF4, symSize: 0x24 }
  - { offsetInCU: 0x19628, offset: 0x236AC0, size: 0x8, addend: 0x0, symName: _hb_font_destroy, symObjAddr: 0x2F38, symBinAddr: 0x2BE2C, symSize: 0xD0 }
  - { offsetInCU: 0x19A63, offset: 0x236EFB, size: 0x8, addend: 0x0, symName: _hb_font_set_user_data, symObjAddr: 0x3008, symBinAddr: 0x2BEFC, symSize: 0xD8 }
  - { offsetInCU: 0x19DB0, offset: 0x237248, size: 0x8, addend: 0x0, symName: _hb_font_get_user_data, symObjAddr: 0x30E0, symBinAddr: 0x2BFD4, symSize: 0x24 }
  - { offsetInCU: 0x19DEF, offset: 0x237287, size: 0x8, addend: 0x0, symName: _hb_font_get_user_data, symObjAddr: 0x30E0, symBinAddr: 0x2BFD4, symSize: 0x24 }
  - { offsetInCU: 0x19EDB, offset: 0x237373, size: 0x8, addend: 0x0, symName: _hb_font_make_immutable, symObjAddr: 0x3104, symBinAddr: 0x2BFF8, symSize: 0x34 }
  - { offsetInCU: 0x19FCA, offset: 0x237462, size: 0x8, addend: 0x0, symName: _hb_font_is_immutable, symObjAddr: 0x3138, symBinAddr: 0x2C02C, symSize: 0x10 }
  - { offsetInCU: 0x19FFA, offset: 0x237492, size: 0x8, addend: 0x0, symName: _hb_font_is_immutable, symObjAddr: 0x3138, symBinAddr: 0x2C02C, symSize: 0x10 }
  - { offsetInCU: 0x1A017, offset: 0x2374AF, size: 0x8, addend: 0x0, symName: _hb_font_is_immutable, symObjAddr: 0x3138, symBinAddr: 0x2C02C, symSize: 0x10 }
  - { offsetInCU: 0x1A036, offset: 0x2374CE, size: 0x8, addend: 0x0, symName: _hb_font_is_immutable, symObjAddr: 0x3138, symBinAddr: 0x2C02C, symSize: 0x10 }
  - { offsetInCU: 0x1A056, offset: 0x2374EE, size: 0x8, addend: 0x0, symName: _hb_font_get_serial, symObjAddr: 0x3148, symBinAddr: 0x2C03C, symSize: 0x8 }
  - { offsetInCU: 0x1A083, offset: 0x23751B, size: 0x8, addend: 0x0, symName: _hb_font_changed, symObjAddr: 0x3150, symBinAddr: 0x2C044, symSize: 0x1C }
  - { offsetInCU: 0x1A0AD, offset: 0x237545, size: 0x8, addend: 0x0, symName: _hb_font_changed, symObjAddr: 0x3150, symBinAddr: 0x2C044, symSize: 0x1C }
  - { offsetInCU: 0x1A0CA, offset: 0x237562, size: 0x8, addend: 0x0, symName: _hb_font_changed, symObjAddr: 0x3150, symBinAddr: 0x2C044, symSize: 0x1C }
  - { offsetInCU: 0x1A0E9, offset: 0x237581, size: 0x8, addend: 0x0, symName: _hb_font_changed, symObjAddr: 0x3150, symBinAddr: 0x2C044, symSize: 0x1C }
  - { offsetInCU: 0x1A117, offset: 0x2375AF, size: 0x8, addend: 0x0, symName: _hb_font_set_parent, symObjAddr: 0x316C, symBinAddr: 0x2C060, symSize: 0x5C }
  - { offsetInCU: 0x1A165, offset: 0x2375FD, size: 0x8, addend: 0x0, symName: _hb_font_set_parent, symObjAddr: 0x316C, symBinAddr: 0x2C060, symSize: 0x5C }
  - { offsetInCU: 0x1A182, offset: 0x23761A, size: 0x8, addend: 0x0, symName: _hb_font_set_parent, symObjAddr: 0x316C, symBinAddr: 0x2C060, symSize: 0x5C }
  - { offsetInCU: 0x1A1A1, offset: 0x237639, size: 0x8, addend: 0x0, symName: _hb_font_set_parent, symObjAddr: 0x316C, symBinAddr: 0x2C060, symSize: 0x5C }
  - { offsetInCU: 0x1A32B, offset: 0x2377C3, size: 0x8, addend: 0x0, symName: _hb_font_get_parent, symObjAddr: 0x31C8, symBinAddr: 0x2C0BC, symSize: 0x8 }
  - { offsetInCU: 0x1A358, offset: 0x2377F0, size: 0x8, addend: 0x0, symName: _hb_font_set_face, symObjAddr: 0x31D0, symBinAddr: 0x2C0C4, symSize: 0x8C }
  - { offsetInCU: 0x1A468, offset: 0x237900, size: 0x8, addend: 0x0, symName: _hb_font_get_face, symObjAddr: 0x325C, symBinAddr: 0x2C150, symSize: 0x8 }
  - { offsetInCU: 0x1A4B1, offset: 0x237949, size: 0x8, addend: 0x0, symName: _hb_font_set_funcs, symObjAddr: 0x3264, symBinAddr: 0x2C158, symSize: 0xB8 }
  - { offsetInCU: 0x1A6F6, offset: 0x237B8E, size: 0x8, addend: 0x0, symName: _hb_font_set_funcs_data, symObjAddr: 0x331C, symBinAddr: 0x2C210, symSize: 0x70 }
  - { offsetInCU: 0x1A7C0, offset: 0x237C58, size: 0x8, addend: 0x0, symName: _hb_font_set_scale, symObjAddr: 0x338C, symBinAddr: 0x2C280, symSize: 0x38 }
  - { offsetInCU: 0x1A808, offset: 0x237CA0, size: 0x8, addend: 0x0, symName: _hb_font_set_scale, symObjAddr: 0x338C, symBinAddr: 0x2C280, symSize: 0x38 }
  - { offsetInCU: 0x1A825, offset: 0x237CBD, size: 0x8, addend: 0x0, symName: _hb_font_set_scale, symObjAddr: 0x338C, symBinAddr: 0x2C280, symSize: 0x38 }
  - { offsetInCU: 0x1A844, offset: 0x237CDC, size: 0x8, addend: 0x0, symName: _hb_font_set_scale, symObjAddr: 0x338C, symBinAddr: 0x2C280, symSize: 0x38 }
  - { offsetInCU: 0x1A872, offset: 0x237D0A, size: 0x8, addend: 0x0, symName: _hb_font_get_scale, symObjAddr: 0x33C4, symBinAddr: 0x2C2B8, symSize: 0x1C }
  - { offsetInCU: 0x1A8B7, offset: 0x237D4F, size: 0x8, addend: 0x0, symName: _hb_font_set_ppem, symObjAddr: 0x33E0, symBinAddr: 0x2C2D4, symSize: 0x34 }
  - { offsetInCU: 0x1A8FF, offset: 0x237D97, size: 0x8, addend: 0x0, symName: _hb_font_set_ppem, symObjAddr: 0x33E0, symBinAddr: 0x2C2D4, symSize: 0x34 }
  - { offsetInCU: 0x1A91C, offset: 0x237DB4, size: 0x8, addend: 0x0, symName: _hb_font_set_ppem, symObjAddr: 0x33E0, symBinAddr: 0x2C2D4, symSize: 0x34 }
  - { offsetInCU: 0x1A93B, offset: 0x237DD3, size: 0x8, addend: 0x0, symName: _hb_font_set_ppem, symObjAddr: 0x33E0, symBinAddr: 0x2C2D4, symSize: 0x34 }
  - { offsetInCU: 0x1A95B, offset: 0x237DF3, size: 0x8, addend: 0x0, symName: _hb_font_get_ppem, symObjAddr: 0x3414, symBinAddr: 0x2C308, symSize: 0x1C }
  - { offsetInCU: 0x1A9A0, offset: 0x237E38, size: 0x8, addend: 0x0, symName: _hb_font_set_ptem, symObjAddr: 0x3430, symBinAddr: 0x2C324, symSize: 0x2C }
  - { offsetInCU: 0x1A9DA, offset: 0x237E72, size: 0x8, addend: 0x0, symName: _hb_font_set_ptem, symObjAddr: 0x3430, symBinAddr: 0x2C324, symSize: 0x2C }
  - { offsetInCU: 0x1A9F7, offset: 0x237E8F, size: 0x8, addend: 0x0, symName: _hb_font_set_ptem, symObjAddr: 0x3430, symBinAddr: 0x2C324, symSize: 0x2C }
  - { offsetInCU: 0x1AA16, offset: 0x237EAE, size: 0x8, addend: 0x0, symName: _hb_font_set_ptem, symObjAddr: 0x3430, symBinAddr: 0x2C324, symSize: 0x2C }
  - { offsetInCU: 0x1AA36, offset: 0x237ECE, size: 0x8, addend: 0x0, symName: _hb_font_get_ptem, symObjAddr: 0x345C, symBinAddr: 0x2C350, symSize: 0x8 }
  - { offsetInCU: 0x1AA61, offset: 0x237EF9, size: 0x8, addend: 0x0, symName: _hb_font_set_synthetic_slant, symObjAddr: 0x3464, symBinAddr: 0x2C358, symSize: 0x2C }
  - { offsetInCU: 0x1AA9B, offset: 0x237F33, size: 0x8, addend: 0x0, symName: _hb_font_set_synthetic_slant, symObjAddr: 0x3464, symBinAddr: 0x2C358, symSize: 0x2C }
  - { offsetInCU: 0x1AAB8, offset: 0x237F50, size: 0x8, addend: 0x0, symName: _hb_font_set_synthetic_slant, symObjAddr: 0x3464, symBinAddr: 0x2C358, symSize: 0x2C }
  - { offsetInCU: 0x1AAD7, offset: 0x237F6F, size: 0x8, addend: 0x0, symName: _hb_font_set_synthetic_slant, symObjAddr: 0x3464, symBinAddr: 0x2C358, symSize: 0x2C }
  - { offsetInCU: 0x1AB05, offset: 0x237F9D, size: 0x8, addend: 0x0, symName: _hb_font_get_synthetic_slant, symObjAddr: 0x3490, symBinAddr: 0x2C384, symSize: 0x8 }
  - { offsetInCU: 0x1AE14, offset: 0x2382AC, size: 0x8, addend: 0x0, symName: _hb_font_set_variations, symObjAddr: 0x3498, symBinAddr: 0x2C38C, symSize: 0x280 }
  - { offsetInCU: 0x1B4A1, offset: 0x238939, size: 0x8, addend: 0x0, symName: __ZNK16hb_lazy_loader_tIN2OT4fvarE22hb_table_lazy_loader_tIS1_Lj18ELb1EE9hb_face_tLj18E9hb_blob_tE10get_storedEv, symObjAddr: 0x4DA4, symBinAddr: 0x2D8A8, symSize: 0x74 }
  - { offsetInCU: 0x1B634, offset: 0x238ACC, size: 0x8, addend: 0x0, symName: _hb_font_set_var_coords_normalized, symObjAddr: 0x3718, symBinAddr: 0x2C60C, symSize: 0x1D0 }
  - { offsetInCU: 0x1BADE, offset: 0x238F76, size: 0x8, addend: 0x0, symName: __ZNK2OT10AxisRecord20normalize_axis_valueEf, symObjAddr: 0x4380, symBinAddr: 0x2CFB0, symSize: 0x8C }
  - { offsetInCU: 0x1BBFC, offset: 0x239094, size: 0x8, addend: 0x0, symName: __ZNK16hb_lazy_loader_tIN2OT4avarE22hb_table_lazy_loader_tIS1_Lj19ELb1EE9hb_face_tLj19E9hb_blob_tE10get_storedEv, symObjAddr: 0x5240, symBinAddr: 0x2DD44, symSize: 0x74 }
  - { offsetInCU: 0x1BD8F, offset: 0x239227, size: 0x8, addend: 0x0, symName: __ZNK2OT4avar10map_coordsEPij, symObjAddr: 0x38E8, symBinAddr: 0x2C7DC, symSize: 0x24C }
  - { offsetInCU: 0x1C4F0, offset: 0x239988, size: 0x8, addend: 0x0, symName: __ZNK2OT4avar12unmap_coordsEPij, symObjAddr: 0x3C20, symBinAddr: 0x2CB14, symSize: 0x78 }
  - { offsetInCU: 0x1C6AE, offset: 0x239B46, size: 0x8, addend: 0x0, symName: __ZNK2OT10AxisRecord22unnormalize_axis_valueEi, symObjAddr: 0x4C6C, symBinAddr: 0x2D824, symSize: 0x84 }
  - { offsetInCU: 0x1CF88, offset: 0x23A420, size: 0x8, addend: 0x0, symName: __ZNK2OT11SegmentMaps3mapEijj, symObjAddr: 0x4468, symBinAddr: 0x2D098, symSize: 0x1D8 }
  - { offsetInCU: 0x1D00D, offset: 0x23A4A5, size: 0x8, addend: 0x0, symName: __ZNK2OT11SegmentMaps3mapEijj, symObjAddr: 0x4468, symBinAddr: 0x2D098, symSize: 0x1D8 }
  - { offsetInCU: 0x1D02A, offset: 0x23A4C2, size: 0x8, addend: 0x0, symName: __ZNK2OT11SegmentMaps3mapEijj, symObjAddr: 0x4468, symBinAddr: 0x2D098, symSize: 0x1D8 }
  - { offsetInCU: 0x1D349, offset: 0x23A7E1, size: 0x8, addend: 0x0, symName: __ZN11hb_vector_tIiLb0EE5allocEj, symObjAddr: 0x46B8, symBinAddr: 0x2D270, symSize: 0x88 }
  - { offsetInCU: 0x1D3F6, offset: 0x23A88E, size: 0x8, addend: 0x0, symName: __ZNK2OT16DeltaSetIndexMap3mapEj, symObjAddr: 0x4740, symBinAddr: 0x2D2F8, symSize: 0x20 }
  - { offsetInCU: 0x1D42D, offset: 0x23A8C5, size: 0x8, addend: 0x0, symName: __ZNK2OT16DeltaSetIndexMap3mapEj, symObjAddr: 0x4740, symBinAddr: 0x2D2F8, symSize: 0x20 }
  - { offsetInCU: 0x1D44A, offset: 0x23A8E2, size: 0x8, addend: 0x0, symName: __ZNK2OT16DeltaSetIndexMap3mapEj, symObjAddr: 0x4740, symBinAddr: 0x2D2F8, symSize: 0x20 }
  - { offsetInCU: 0x1D483, offset: 0x23A91B, size: 0x8, addend: 0x0, symName: __ZNK2OT14VariationStore9get_deltaEjjPKijPf, symObjAddr: 0x4898, symBinAddr: 0x2D450, symSize: 0x64 }
  - { offsetInCU: 0x1D500, offset: 0x23A998, size: 0x8, addend: 0x0, symName: __ZNK2OT14VariationStore9get_deltaEjjPKijPf, symObjAddr: 0x4898, symBinAddr: 0x2D450, symSize: 0x64 }
  - { offsetInCU: 0x1D51F, offset: 0x23A9B7, size: 0x8, addend: 0x0, symName: __ZNK2OT14VariationStore9get_deltaEjjPKijPf, symObjAddr: 0x4898, symBinAddr: 0x2D450, symSize: 0x64 }
  - { offsetInCU: 0x1D704, offset: 0x23AB9C, size: 0x8, addend: 0x0, symName: __ZN11hb_vector_tIiLb0EE4pushIRiiLPv0EEEPiOT_, symObjAddr: 0x4760, symBinAddr: 0x2D318, symSize: 0x60 }
  - { offsetInCU: 0x1D7F7, offset: 0x23AC8F, size: 0x8, addend: 0x0, symName: _hb_font_get_var_coords_normalized, symObjAddr: 0x3C98, symBinAddr: 0x2CB8C, symSize: 0x14 }
  - { offsetInCU: 0x1D833, offset: 0x23ACCB, size: 0x8, addend: 0x0, symName: _hb_font_get_var_coords_design, symObjAddr: 0x3CAC, symBinAddr: 0x2CBA0, symSize: 0x14 }
  - { offsetInCU: 0x1D8E1, offset: 0x23AD79, size: 0x8, addend: 0x0, symName: _hb_font_funcs_set_glyph_func, symObjAddr: 0x3CC0, symBinAddr: 0x2CBB4, symSize: 0xF0 }
  - { offsetInCU: 0x1DA76, offset: 0x23AF0E, size: 0x8, addend: 0x0, symName: __ZL36hb_font_get_nominal_glyph_trampolineP9hb_font_tPvjPjS1_, symObjAddr: 0x3DB0, symBinAddr: 0x2CCA4, symSize: 0x18 }
  - { offsetInCU: 0x1DB29, offset: 0x23AFC1, size: 0x8, addend: 0x0, symName: __ZL18trampoline_destroyPv, symObjAddr: 0x3DC8, symBinAddr: 0x2CCBC, symSize: 0x4C }
  - { offsetInCU: 0x1DB73, offset: 0x23B00B, size: 0x8, addend: 0x0, symName: __ZL38hb_font_get_variation_glyph_trampolineP9hb_font_tPvjjPjS1_, symObjAddr: 0x3E14, symBinAddr: 0x2CD08, symSize: 0xC }
  - { offsetInCU: 0x1DCC4, offset: 0x23B15C, size: 0x8, addend: 0x0, symName: __ZL23hb_draw_move_to_defaultP15hb_draw_funcs_tPvP15hb_draw_state_tffS1_, symObjAddr: 0x3EE0, symBinAddr: 0x2CDD4, symSize: 0x38 }
  - { offsetInCU: 0x1DE09, offset: 0x23B2A1, size: 0x8, addend: 0x0, symName: __ZL23hb_draw_line_to_defaultP15hb_draw_funcs_tPvP15hb_draw_state_tffS1_, symObjAddr: 0x3F18, symBinAddr: 0x2CE0C, symSize: 0x4C }
  - { offsetInCU: 0x1DF70, offset: 0x23B408, size: 0x8, addend: 0x0, symName: __ZL28hb_draw_quadratic_to_defaultP15hb_draw_funcs_tPvP15hb_draw_state_tffffS1_, symObjAddr: 0x3F64, symBinAddr: 0x2CE58, symSize: 0x5C }
  - { offsetInCU: 0x1E125, offset: 0x23B5BD, size: 0x8, addend: 0x0, symName: __ZL24hb_draw_cubic_to_defaultP15hb_draw_funcs_tPvP15hb_draw_state_tffffffS1_, symObjAddr: 0x3FC0, symBinAddr: 0x2CEB4, symSize: 0x6C }
  - { offsetInCU: 0x1E2C8, offset: 0x23B760, size: 0x8, addend: 0x0, symName: __ZL26hb_draw_close_path_defaultP15hb_draw_funcs_tPvP15hb_draw_state_tS1_, symObjAddr: 0x402C, symBinAddr: 0x2CF20, symSize: 0x1C }
  - { offsetInCU: 0x1E4F1, offset: 0x23B989, size: 0x8, addend: 0x0, symName: __ZNK2OT10AxisRecord15get_coordinatesERfS1_S1_, symObjAddr: 0x440C, symBinAddr: 0x2D03C, symSize: 0x5C }
  - { offsetInCU: 0x1E542, offset: 0x23B9DA, size: 0x8, addend: 0x0, symName: __ZNK2OT10AxisRecord15get_coordinatesERfS1_S1_, symObjAddr: 0x440C, symBinAddr: 0x2D03C, symSize: 0x5C }
  - { offsetInCU: 0x1E561, offset: 0x23B9F9, size: 0x8, addend: 0x0, symName: __ZNK2OT10AxisRecord15get_coordinatesERfS1_S1_, symObjAddr: 0x440C, symBinAddr: 0x2D03C, symSize: 0x5C }
  - { offsetInCU: 0x1E76E, offset: 0x23BC06, size: 0x8, addend: 0x0, symName: __ZNK2OT24DeltaSetIndexMapFormat01INS_7IntTypeItLj2EEEE3mapEj, symObjAddr: 0x47C0, symBinAddr: 0x2D378, symSize: 0x6C }
  - { offsetInCU: 0x1E7B7, offset: 0x23BC4F, size: 0x8, addend: 0x0, symName: __ZNK2OT24DeltaSetIndexMapFormat01INS_7IntTypeItLj2EEEE3mapEj, symObjAddr: 0x47C0, symBinAddr: 0x2D378, symSize: 0x6C }
  - { offsetInCU: 0x1E7D6, offset: 0x23BC6E, size: 0x8, addend: 0x0, symName: __ZNK2OT24DeltaSetIndexMapFormat01INS_7IntTypeItLj2EEEE3mapEj, symObjAddr: 0x47C0, symBinAddr: 0x2D378, symSize: 0x6C }
  - { offsetInCU: 0x1E912, offset: 0x23BDAA, size: 0x8, addend: 0x0, symName: __ZNK2OT24DeltaSetIndexMapFormat01INS_7IntTypeIjLj4EEEE3mapEj, symObjAddr: 0x482C, symBinAddr: 0x2D3E4, symSize: 0x6C }
  - { offsetInCU: 0x1E95B, offset: 0x23BDF3, size: 0x8, addend: 0x0, symName: __ZNK2OT24DeltaSetIndexMapFormat01INS_7IntTypeIjLj4EEEE3mapEj, symObjAddr: 0x482C, symBinAddr: 0x2D3E4, symSize: 0x6C }
  - { offsetInCU: 0x1E97A, offset: 0x23BE12, size: 0x8, addend: 0x0, symName: __ZNK2OT24DeltaSetIndexMapFormat01INS_7IntTypeIjLj4EEEE3mapEj, symObjAddr: 0x482C, symBinAddr: 0x2D3E4, symSize: 0x6C }
  - { offsetInCU: 0x1EB70, offset: 0x23C008, size: 0x8, addend: 0x0, symName: __ZNK2OT7VarData9get_deltaEjPKijRKNS_13VarRegionListEPf, symObjAddr: 0x48FC, symBinAddr: 0x2D4B4, symSize: 0x1D0 }
  - { offsetInCU: 0x1F1C5, offset: 0x23C65D, size: 0x8, addend: 0x0, symName: __ZNK2OT13VarRegionList8evaluateEjPKijPf, symObjAddr: 0x4ACC, symBinAddr: 0x2D684, symSize: 0xF8 }
  - { offsetInCU: 0x1F351, offset: 0x23C7E9, size: 0x8, addend: 0x0, symName: __ZNK2OT13VarRegionAxis8evaluateEi, symObjAddr: 0x4BC4, symBinAddr: 0x2D77C, symSize: 0xA8 }
  - { offsetInCU: 0x1F3BB, offset: 0x23C853, size: 0x8, addend: 0x0, symName: __ZNK2OT13VarRegionAxis8evaluateEi, symObjAddr: 0x4BC4, symBinAddr: 0x2D77C, symSize: 0xA8 }
  - { offsetInCU: 0x1F5FF, offset: 0x23CA97, size: 0x8, addend: 0x0, symName: __ZNK17hb_data_wrapper_tI9hb_face_tLj18EE11call_createI9hb_blob_t22hb_table_lazy_loader_tIN2OT4fvarELj18ELb1EEEEPT_v, symObjAddr: 0x4E18, symBinAddr: 0x2D91C, symSize: 0x50 }
  - { offsetInCU: 0x1F716, offset: 0x23CBAE, size: 0x8, addend: 0x0, symName: __ZN16hb_lazy_loader_tIN2OT4fvarE22hb_table_lazy_loader_tIS1_Lj18ELb1EE9hb_face_tLj18E9hb_blob_tE10do_destroyEPS5_, symObjAddr: 0x4E68, symBinAddr: 0x2D96C, symSize: 0x3C }
  - { offsetInCU: 0x1F838, offset: 0x23CCD0, size: 0x8, addend: 0x0, symName: __ZN21hb_sanitize_context_t15reference_tableIN2OT4fvarEEEP9hb_blob_tPK9hb_face_tj, symObjAddr: 0x4EA4, symBinAddr: 0x2D9A8, symSize: 0x5C }
  - { offsetInCU: 0x1F947, offset: 0x23CDDF, size: 0x8, addend: 0x0, symName: __ZN21hb_sanitize_context_t13sanitize_blobIN2OT4fvarEEEP9hb_blob_tS4_, symObjAddr: 0x4F00, symBinAddr: 0x2DA04, symSize: 0x168 }
  - { offsetInCU: 0x1FC25, offset: 0x23D0BD, size: 0x8, addend: 0x0, symName: __ZNK2OT4fvar8sanitizeEP21hb_sanitize_context_t, symObjAddr: 0x5068, symBinAddr: 0x2DB6C, symSize: 0x180 }
  - { offsetInCU: 0x20388, offset: 0x23D820, size: 0x8, addend: 0x0, symName: __ZNK2OT4fvar12get_instanceEj, symObjAddr: 0x51E8, symBinAddr: 0x2DCEC, symSize: 0x58 }
  - { offsetInCU: 0x203C1, offset: 0x23D859, size: 0x8, addend: 0x0, symName: __ZNK2OT4fvar12get_instanceEj, symObjAddr: 0x51E8, symBinAddr: 0x2DCEC, symSize: 0x58 }
  - { offsetInCU: 0x203E0, offset: 0x23D878, size: 0x8, addend: 0x0, symName: __ZNK2OT4fvar12get_instanceEj, symObjAddr: 0x51E8, symBinAddr: 0x2DCEC, symSize: 0x58 }
  - { offsetInCU: 0x20679, offset: 0x23DB11, size: 0x8, addend: 0x0, symName: __ZNK17hb_data_wrapper_tI9hb_face_tLj19EE11call_createI9hb_blob_t22hb_table_lazy_loader_tIN2OT4avarELj19ELb1EEEEPT_v, symObjAddr: 0x52B4, symBinAddr: 0x2DDB8, symSize: 0x50 }
  - { offsetInCU: 0x20790, offset: 0x23DC28, size: 0x8, addend: 0x0, symName: __ZN16hb_lazy_loader_tIN2OT4avarE22hb_table_lazy_loader_tIS1_Lj19ELb1EE9hb_face_tLj19E9hb_blob_tE10do_destroyEPS5_, symObjAddr: 0x5304, symBinAddr: 0x2DE08, symSize: 0x3C }
  - { offsetInCU: 0x20830, offset: 0x23DCC8, size: 0x8, addend: 0x0, symName: __ZN21hb_sanitize_context_t15reference_tableIN2OT4avarEEEP9hb_blob_tPK9hb_face_tj, symObjAddr: 0x5340, symBinAddr: 0x2DE44, symSize: 0x5C }
  - { offsetInCU: 0x20908, offset: 0x23DDA0, size: 0x8, addend: 0x0, symName: __ZN21hb_sanitize_context_t13sanitize_blobIN2OT4avarEEEP9hb_blob_tS4_, symObjAddr: 0x539C, symBinAddr: 0x2DEA0, symSize: 0x168 }
  - { offsetInCU: 0x20B1D, offset: 0x23DFB5, size: 0x8, addend: 0x0, symName: __ZNK2OT4avar8sanitizeEP21hb_sanitize_context_t, symObjAddr: 0x5504, symBinAddr: 0x2E008, symSize: 0x100 }
  - { offsetInCU: 0x20EB5, offset: 0x23E34D, size: 0x8, addend: 0x0, symName: __ZNK2OT7ArrayOfINS_12AxisValueMapENS_7IntTypeItLj2EEEE16sanitize_shallowEP21hb_sanitize_context_t, symObjAddr: 0x5654, symBinAddr: 0x2E158, symSize: 0x94 }
  - { offsetInCU: 0x20EFB, offset: 0x23E393, size: 0x8, addend: 0x0, symName: __ZNK2OT7ArrayOfINS_12AxisValueMapENS_7IntTypeItLj2EEEE16sanitize_shallowEP21hb_sanitize_context_t, symObjAddr: 0x5654, symBinAddr: 0x2E158, symSize: 0x94 }
  - { offsetInCU: 0x20F20, offset: 0x23E3B8, size: 0x8, addend: 0x0, symName: __ZNK2OT7ArrayOfINS_12AxisValueMapENS_7IntTypeItLj2EEEE16sanitize_shallowEP21hb_sanitize_context_t, symObjAddr: 0x5654, symBinAddr: 0x2E158, symSize: 0x94 }
  - { offsetInCU: 0x20F46, offset: 0x23E3DE, size: 0x8, addend: 0x0, symName: __ZNK2OT7ArrayOfINS_12AxisValueMapENS_7IntTypeItLj2EEEE16sanitize_shallowEP21hb_sanitize_context_t, symObjAddr: 0x5654, symBinAddr: 0x2E158, symSize: 0x94 }
  - { offsetInCU: 0x21085, offset: 0x23E51D, size: 0x8, addend: 0x0, symName: __ZNK2OT10avarV2Tail8sanitizeEP21hb_sanitize_context_tPKv, symObjAddr: 0x5604, symBinAddr: 0x2E108, symSize: 0x50 }
  - { offsetInCU: 0x21123, offset: 0x23E5BB, size: 0x8, addend: 0x0, symName: __ZNK2OT8OffsetToINS_16DeltaSetIndexMapENS_7IntTypeIjLj4EEELb1EE8sanitizeIJEEEbP21hb_sanitize_context_tPKvDpOT_, symObjAddr: 0x56E8, symBinAddr: 0x2E1EC, symSize: 0xA0 }
  - { offsetInCU: 0x21845, offset: 0x23ECDD, size: 0x8, addend: 0x0, symName: __ZNK2OT16DeltaSetIndexMap8sanitizeEP21hb_sanitize_context_t, symObjAddr: 0x5828, symBinAddr: 0x2E28C, symSize: 0x5C }
  - { offsetInCU: 0x21888, offset: 0x23ED20, size: 0x8, addend: 0x0, symName: __ZNK2OT16DeltaSetIndexMap8sanitizeEP21hb_sanitize_context_t, symObjAddr: 0x5828, symBinAddr: 0x2E28C, symSize: 0x5C }
  - { offsetInCU: 0x218AD, offset: 0x23ED45, size: 0x8, addend: 0x0, symName: __ZNK2OT16DeltaSetIndexMap8sanitizeEP21hb_sanitize_context_t, symObjAddr: 0x5828, symBinAddr: 0x2E28C, symSize: 0x5C }
  - { offsetInCU: 0x218D3, offset: 0x23ED6B, size: 0x8, addend: 0x0, symName: __ZNK2OT16DeltaSetIndexMap8sanitizeEP21hb_sanitize_context_t, symObjAddr: 0x5828, symBinAddr: 0x2E28C, symSize: 0x5C }
  - { offsetInCU: 0x21C16, offset: 0x23F0AE, size: 0x8, addend: 0x0, symName: __ZNK2OT24DeltaSetIndexMapFormat01INS_7IntTypeItLj2EEEE8sanitizeEP21hb_sanitize_context_t, symObjAddr: 0x5884, symBinAddr: 0x2E2E8, symSize: 0xA0 }
  - { offsetInCU: 0x21C59, offset: 0x23F0F1, size: 0x8, addend: 0x0, symName: __ZNK2OT24DeltaSetIndexMapFormat01INS_7IntTypeItLj2EEEE8sanitizeEP21hb_sanitize_context_t, symObjAddr: 0x5884, symBinAddr: 0x2E2E8, symSize: 0xA0 }
  - { offsetInCU: 0x21C7F, offset: 0x23F117, size: 0x8, addend: 0x0, symName: __ZNK2OT24DeltaSetIndexMapFormat01INS_7IntTypeItLj2EEEE8sanitizeEP21hb_sanitize_context_t, symObjAddr: 0x5884, symBinAddr: 0x2E2E8, symSize: 0xA0 }
  - { offsetInCU: 0x21D9F, offset: 0x23F237, size: 0x8, addend: 0x0, symName: __ZNK2OT24DeltaSetIndexMapFormat01INS_7IntTypeIjLj4EEEE8sanitizeEP21hb_sanitize_context_t, symObjAddr: 0x5924, symBinAddr: 0x2E388, symSize: 0xA0 }
  - { offsetInCU: 0x21DE2, offset: 0x23F27A, size: 0x8, addend: 0x0, symName: __ZNK2OT24DeltaSetIndexMapFormat01INS_7IntTypeIjLj4EEEE8sanitizeEP21hb_sanitize_context_t, symObjAddr: 0x5924, symBinAddr: 0x2E388, symSize: 0xA0 }
  - { offsetInCU: 0x21E08, offset: 0x23F2A0, size: 0x8, addend: 0x0, symName: __ZNK2OT24DeltaSetIndexMapFormat01INS_7IntTypeIjLj4EEEE8sanitizeEP21hb_sanitize_context_t, symObjAddr: 0x5924, symBinAddr: 0x2E388, symSize: 0xA0 }
  - { offsetInCU: 0x28A, offset: 0x24072D, size: 0x8, addend: 0x0, symName: __ZL11hb_identity, symObjAddr: 0xFAC, symBinAddr: 0x104480, symSize: 0x0 }
  - { offsetInCU: 0x47CF, offset: 0x244C72, size: 0x8, addend: 0x0, symName: _hb_map_create, symObjAddr: 0x0, symBinAddr: 0x2E428, symSize: 0x60 }
  - { offsetInCU: 0x4B5A, offset: 0x244FFD, size: 0x8, addend: 0x0, symName: _hb_map_get_empty, symObjAddr: 0x60, symBinAddr: 0x2E488, symSize: 0xC }
  - { offsetInCU: 0x4BE3, offset: 0x245086, size: 0x8, addend: 0x0, symName: _hb_map_reference, symObjAddr: 0x6C, symBinAddr: 0x2E494, symSize: 0x24 }
  - { offsetInCU: 0x4C0F, offset: 0x2450B2, size: 0x8, addend: 0x0, symName: _hb_map_reference, symObjAddr: 0x6C, symBinAddr: 0x2E494, symSize: 0x24 }
  - { offsetInCU: 0x4C2C, offset: 0x2450CF, size: 0x8, addend: 0x0, symName: _hb_map_reference, symObjAddr: 0x6C, symBinAddr: 0x2E494, symSize: 0x24 }
  - { offsetInCU: 0x4E81, offset: 0x245324, size: 0x8, addend: 0x0, symName: _hb_map_destroy, symObjAddr: 0x90, symBinAddr: 0x2E4B8, symSize: 0x90 }
  - { offsetInCU: 0x52E8, offset: 0x24578B, size: 0x8, addend: 0x0, symName: __ZN12hb_hashmap_tIjjLb1EE4finiEv, symObjAddr: 0x974, symBinAddr: 0x2ECE8, symSize: 0x6C }
  - { offsetInCU: 0x55B9, offset: 0x245A5C, size: 0x8, addend: 0x0, symName: _hb_map_set_user_data, symObjAddr: 0x120, symBinAddr: 0x2E548, symSize: 0xC8 }
  - { offsetInCU: 0x58CB, offset: 0x245D6E, size: 0x8, addend: 0x0, symName: _hb_map_get_user_data, symObjAddr: 0x1E8, symBinAddr: 0x2E610, symSize: 0x24 }
  - { offsetInCU: 0x5907, offset: 0x245DAA, size: 0x8, addend: 0x0, symName: _hb_map_get_user_data, symObjAddr: 0x1E8, symBinAddr: 0x2E610, symSize: 0x24 }
  - { offsetInCU: 0x59CE, offset: 0x245E71, size: 0x8, addend: 0x0, symName: _hb_map_allocation_successful, symObjAddr: 0x20C, symBinAddr: 0x2E634, symSize: 0xC }
  - { offsetInCU: 0x5FD1, offset: 0x246474, size: 0x8, addend: 0x0, symName: _hb_map_copy, symObjAddr: 0x218, symBinAddr: 0x2E640, symSize: 0xF0 }
  - { offsetInCU: 0x64B9, offset: 0x24695C, size: 0x8, addend: 0x0, symName: __ZN12hb_hashmap_tIjjLb1EE6resizeEj, symObjAddr: 0x308, symBinAddr: 0x2E730, symSize: 0x180 }
  - { offsetInCU: 0x667F, offset: 0x246B22, size: 0x8, addend: 0x0, symName: '__ZN16hb_filter_iter_tI10hb_array_tIN12hb_hashmap_tIjjLb1EE6item_tEEMS3_KFbvERK3$_4LPv0EEC1ERKS4_S6_S9_', symObjAddr: 0xD1C, symBinAddr: 0x2F084, symSize: 0x94 }
  - { offsetInCU: 0x69A0, offset: 0x246E43, size: 0x8, addend: 0x0, symName: __ZN12hb_hashmap_tIjjLb1EE13set_with_hashIRKjS3_EEbOT_jOT0_b, symObjAddr: 0xB94, symBinAddr: 0x2EEFC, symSize: 0xFC }
  - { offsetInCU: 0x6AC4, offset: 0x246F67, size: 0x8, addend: 0x0, symName: '__ZNR9hb_iter_tI16hb_filter_iter_tI10hb_array_tIN12hb_hashmap_tIjjLb1EE6item_tEEMS4_KFbvERK3$_4LPv0EERS4_EppEv', symObjAddr: 0xC90, symBinAddr: 0x2EFF8, symSize: 0x78 }
  - { offsetInCU: 0x6CDF, offset: 0x247182, size: 0x8, addend: 0x0, symName: __ZN12hb_hashmap_tIjjLb1EE13set_with_hashIjjEEbOT_jOT0_b, symObjAddr: 0xA00, symBinAddr: 0x2ED68, symSize: 0xFC }
  - { offsetInCU: 0x6E3B, offset: 0x2472DE, size: 0x8, addend: 0x0, symName: _hb_map_set, symObjAddr: 0x488, symBinAddr: 0x2E8B0, symSize: 0x38 }
  - { offsetInCU: 0x6EE7, offset: 0x24738A, size: 0x8, addend: 0x0, symName: __ZN12hb_hashmap_tIjjLb1EE13set_with_hashIRKjRjEEbOT_jOT0_b, symObjAddr: 0xDB0, symBinAddr: 0x2F118, symSize: 0xFC }
  - { offsetInCU: 0x702D, offset: 0x2474D0, size: 0x8, addend: 0x0, symName: _hb_map_get, symObjAddr: 0x4C0, symBinAddr: 0x2E8E8, symSize: 0x40 }
  - { offsetInCU: 0x70A6, offset: 0x247549, size: 0x8, addend: 0x0, symName: __ZNK12hb_hashmap_tIjjLb1EE13get_with_hashERKjj, symObjAddr: 0xEAC, symBinAddr: 0x2F214, symSize: 0x60 }
  - { offsetInCU: 0x7173, offset: 0x247616, size: 0x8, addend: 0x0, symName: _hb_map_del, symObjAddr: 0x500, symBinAddr: 0x2E928, symSize: 0x34 }
  - { offsetInCU: 0x71FE, offset: 0x2476A1, size: 0x8, addend: 0x0, symName: _hb_map_has, symObjAddr: 0x534, symBinAddr: 0x2E95C, symSize: 0x18 }
  - { offsetInCU: 0x7264, offset: 0x247707, size: 0x8, addend: 0x0, symName: __ZNK12hb_hashmap_tIjjLb1EE3hasIjEEbjPPT_, symObjAddr: 0x54C, symBinAddr: 0x2E974, symSize: 0x74 }
  - { offsetInCU: 0x7347, offset: 0x2477EA, size: 0x8, addend: 0x0, symName: __ZNK12hb_hashmap_tIjjLb1EE13item_for_hashERKjj, symObjAddr: 0xAFC, symBinAddr: 0x2EE64, symSize: 0x98 }
  - { offsetInCU: 0x73F9, offset: 0x24789C, size: 0x8, addend: 0x0, symName: _hb_map_clear, symObjAddr: 0x5C0, symBinAddr: 0x2E9E8, symSize: 0x4 }
  - { offsetInCU: 0x7423, offset: 0x2478C6, size: 0x8, addend: 0x0, symName: _hb_map_clear, symObjAddr: 0x5C0, symBinAddr: 0x2E9E8, symSize: 0x4 }
  - { offsetInCU: 0x7436, offset: 0x2478D9, size: 0x8, addend: 0x0, symName: __ZN12hb_hashmap_tIjjLb1EE5clearEv, symObjAddr: 0x5C4, symBinAddr: 0x2E9EC, symSize: 0x74 }
  - { offsetInCU: 0x7510, offset: 0x2479B3, size: 0x8, addend: 0x0, symName: _hb_map_is_empty, symObjAddr: 0x638, symBinAddr: 0x2EA60, symSize: 0x10 }
  - { offsetInCU: 0x753F, offset: 0x2479E2, size: 0x8, addend: 0x0, symName: _hb_map_is_empty, symObjAddr: 0x638, symBinAddr: 0x2EA60, symSize: 0x10 }
  - { offsetInCU: 0x7572, offset: 0x247A15, size: 0x8, addend: 0x0, symName: _hb_map_get_population, symObjAddr: 0x648, symBinAddr: 0x2EA70, symSize: 0xC }
  - { offsetInCU: 0x75A1, offset: 0x247A44, size: 0x8, addend: 0x0, symName: _hb_map_get_population, symObjAddr: 0x648, symBinAddr: 0x2EA70, symSize: 0xC }
  - { offsetInCU: 0x75BE, offset: 0x247A61, size: 0x8, addend: 0x0, symName: _hb_map_is_equal, symObjAddr: 0x654, symBinAddr: 0x2EA7C, symSize: 0x14 }
  - { offsetInCU: 0x761A, offset: 0x247ABD, size: 0x8, addend: 0x0, symName: __ZNK12hb_hashmap_tIjjLb1EE8is_equalERKS0_, symObjAddr: 0x668, symBinAddr: 0x2EA90, symSize: 0x1A8 }
  - { offsetInCU: 0x7E8A, offset: 0x24832D, size: 0x8, addend: 0x0, symName: _hb_map_hash, symObjAddr: 0x810, symBinAddr: 0x2EC38, symSize: 0x4 }
  - { offsetInCU: 0x7EB8, offset: 0x24835B, size: 0x8, addend: 0x0, symName: _hb_map_hash, symObjAddr: 0x810, symBinAddr: 0x2EC38, symSize: 0x4 }
  - { offsetInCU: 0x7ECB, offset: 0x24836E, size: 0x8, addend: 0x0, symName: __ZNK12hb_hashmap_tIjjLb1EE4hashEv, symObjAddr: 0x814, symBinAddr: 0x2EC3C, symSize: 0xAC }
  - { offsetInCU: 0x8477, offset: 0x24891A, size: 0x8, addend: 0x0, symName: __ZNK12hb_hashmap_tIjjLb1EE6item_t7is_realEv, symObjAddr: 0x9EC, symBinAddr: 0x2ED54, symSize: 0x14 }
  - { offsetInCU: 0x8690, offset: 0x248B33, size: 0x8, addend: 0x0, symName: __ZNK12hb_hashmap_tIjjLb1EE6item_t8get_pairEv, symObjAddr: 0xD08, symBinAddr: 0x2F070, symSize: 0x14 }
  - { offsetInCU: 0x26, offset: 0x248C83, size: 0x8, addend: 0x0, symName: __Z12hb_parse_intPPKcS0_Pib, symObjAddr: 0x0, symBinAddr: 0x2F274, symSize: 0x114 }
  - { offsetInCU: 0x5A, offset: 0x248CB7, size: 0x8, addend: 0x0, symName: __ZL25_double_parser_trans_keys, symObjAddr: 0x53D, symBinAddr: 0x104495, symSize: 0x0 }
  - { offsetInCU: 0x95, offset: 0x248CF2, size: 0x8, addend: 0x0, symName: __ZL23_double_parser_indicies, symObjAddr: 0x550, symBinAddr: 0x1044A8, symSize: 0x0 }
  - { offsetInCU: 0xC9, offset: 0x248D26, size: 0x8, addend: 0x0, symName: __ZL28_double_parser_index_offsets, symObjAddr: 0x60F, symBinAddr: 0x104567, symSize: 0x0 }
  - { offsetInCU: 0xF0, offset: 0x248D4D, size: 0x8, addend: 0x0, symName: __ZL24_double_parser_key_spans, symObjAddr: 0x618, symBinAddr: 0x104570, symSize: 0x0 }
  - { offsetInCU: 0x117, offset: 0x248D74, size: 0x8, addend: 0x0, symName: __ZL26_double_parser_trans_targs, symObjAddr: 0x621, symBinAddr: 0x104579, symSize: 0x0 }
  - { offsetInCU: 0x13E, offset: 0x248D9B, size: 0x8, addend: 0x0, symName: __ZL28_double_parser_trans_actions, symObjAddr: 0x62B, symBinAddr: 0x104583, symSize: 0x0 }
  - { offsetInCU: 0x2A4A, offset: 0x24B6A7, size: 0x8, addend: 0x0, symName: __Z12hb_parse_intPPKcS0_Pib, symObjAddr: 0x0, symBinAddr: 0x2F274, symSize: 0x114 }
  - { offsetInCU: 0x2C2C, offset: 0x24B889, size: 0x8, addend: 0x0, symName: __Z13hb_parse_uintPPKcS0_Pjbi, symObjAddr: 0x114, symBinAddr: 0x2F388, symSize: 0x120 }
  - { offsetInCU: 0x2F14, offset: 0x24BB71, size: 0x8, addend: 0x0, symName: __Z15hb_parse_doublePPKcS0_Pdb, symObjAddr: 0x234, symBinAddr: 0x2F4A8, symSize: 0x2FC }
  - { offsetInCU: 0x26, offset: 0x24BDC6, size: 0x8, addend: 0x0, symName: __ZN2OT4cff133lookup_standard_encoding_for_codeEj, symObjAddr: 0x0, symBinAddr: 0x2F7A4, symSize: 0x20 }
  - { offsetInCU: 0x40, offset: 0x24BDE0, size: 0x8, addend: 0x0, symName: __ZL25standard_encoding_to_code, symObjAddr: 0x69AD, symBinAddr: 0x104645, symSize: 0x0 }
  - { offsetInCU: 0x7B, offset: 0x24BE1B, size: 0x8, addend: 0x0, symName: __ZL23expert_encoding_to_code, symObjAddr: 0x6A43, symBinAddr: 0x1046DB, symSize: 0x0 }
  - { offsetInCU: 0xA3, offset: 0x24BE43, size: 0x8, addend: 0x0, symName: __ZL21expert_charset_to_sid, symObjAddr: 0x6BBE, symBinAddr: 0x104856, symSize: 0x0 }
  - { offsetInCU: 0xD7, offset: 0x24BE77, size: 0x8, addend: 0x0, symName: __ZL28expert_subset_charset_to_sid, symObjAddr: 0x6D0A, symBinAddr: 0x1049A2, symSize: 0x0 }
  - { offsetInCU: 0xFE, offset: 0x24BE9E, size: 0x8, addend: 0x0, symName: __ZL25expert_charset_sid_to_gid, symObjAddr: 0x6DB8, symBinAddr: 0x104A50, symSize: 0x0 }
  - { offsetInCU: 0x176, offset: 0x24BF16, size: 0x8, addend: 0x0, symName: __ZL32expert_subset_charset_sid_to_gid, symObjAddr: 0x704C, symBinAddr: 0x104CE4, symSize: 0x0 }
  - { offsetInCU: 0x19D, offset: 0x24BF3D, size: 0x8, addend: 0x0, symName: __ZL24standard_encoding_to_sid, symObjAddr: 0x71A4, symBinAddr: 0x104E3C, symSize: 0x0 }
  - { offsetInCU: 0x1D8BD, offset: 0x26965D, size: 0x8, addend: 0x0, symName: __ZN2OT4cff133lookup_standard_encoding_for_codeEj, symObjAddr: 0x0, symBinAddr: 0x2F7A4, symSize: 0x20 }
  - { offsetInCU: 0x1D8E4, offset: 0x269684, size: 0x8, addend: 0x0, symName: __ZN2OT4cff131lookup_expert_encoding_for_codeEj, symObjAddr: 0x20, symBinAddr: 0x2F7C4, symSize: 0x20 }
  - { offsetInCU: 0x1D90B, offset: 0x2696AB, size: 0x8, addend: 0x0, symName: __ZN2OT4cff129lookup_expert_charset_for_sidEj, symObjAddr: 0x40, symBinAddr: 0x2F7E4, symSize: 0x20 }
  - { offsetInCU: 0x1D932, offset: 0x2696D2, size: 0x8, addend: 0x0, symName: __ZN2OT4cff136lookup_expert_subset_charset_for_sidEj, symObjAddr: 0x60, symBinAddr: 0x2F804, symSize: 0x20 }
  - { offsetInCU: 0x1DB84, offset: 0x269924, size: 0x8, addend: 0x0, symName: __ZN2OT4cff131lookup_expert_charset_for_glyphEj, symObjAddr: 0x80, symBinAddr: 0x2F824, symSize: 0x58 }
  - { offsetInCU: 0x1DC98, offset: 0x269A38, size: 0x8, addend: 0x0, symName: __ZN2OT4cff138lookup_expert_subset_charset_for_glyphEj, symObjAddr: 0xD8, symBinAddr: 0x2F87C, symSize: 0x58 }
  - { offsetInCU: 0x1E071, offset: 0x269E11, size: 0x8, addend: 0x0, symName: __ZNK2OT4cff113accelerator_t11get_extentsEP9hb_font_tjP18hb_glyph_extents_t, symObjAddr: 0x150, symBinAddr: 0x2F8D4, symSize: 0xE8 }
  - { offsetInCU: 0x1E524, offset: 0x26A2C4, size: 0x8, addend: 0x0, symName: __ZL11_get_boundsPKN2OT4cff113accelerator_tEjR8bounds_tb, symObjAddr: 0x238, symBinAddr: 0x2F9BC, symSize: 0x16C }
  - { offsetInCU: 0x1EF09, offset: 0x26ACA9, size: 0x8, addend: 0x0, symName: __ZNK3CFF11FDSelect3_4IN2OT7IntTypeItLj2EEENS2_IhLj1EEEE6get_fdEj, symObjAddr: 0x6130, symBinAddr: 0x35688, symSize: 0xA8 }
  - { offsetInCU: 0x1EF4F, offset: 0x26ACEF, size: 0x8, addend: 0x0, symName: __ZNK3CFF11FDSelect3_4IN2OT7IntTypeItLj2EEENS2_IhLj1EEEE6get_fdEj, symObjAddr: 0x6130, symBinAddr: 0x35688, symSize: 0xA8 }
  - { offsetInCU: 0x1EF7B, offset: 0x26AD1B, size: 0x8, addend: 0x0, symName: __ZNK3CFF11FDSelect3_4IN2OT7IntTypeItLj2EEENS2_IhLj1EEEE6get_fdEj, symObjAddr: 0x6130, symBinAddr: 0x35688, symSize: 0xA8 }
  - { offsetInCU: 0x1EF99, offset: 0x26AD39, size: 0x8, addend: 0x0, symName: __ZNK3CFF11FDSelect3_4IN2OT7IntTypeItLj2EEENS2_IhLj1EEEE6get_fdEj, symObjAddr: 0x6130, symBinAddr: 0x35688, symSize: 0xA8 }
  - { offsetInCU: 0x1F1ED, offset: 0x26AF8D, size: 0x8, addend: 0x0, symName: __ZNK3CFF8CFFIndexIN2OT7IntTypeItLj2EEEEixEj, symObjAddr: 0x64C, symBinAddr: 0x2FDD0, symSize: 0x7C }
  - { offsetInCU: 0x1F3D1, offset: 0x26B171, size: 0x8, addend: 0x0, symName: __ZN3CFF15cs_interp_env_tINS_8number_tENS_5SubrsIN2OT7IntTypeItLj2EEEEEEC2ERK10hb_array_tIKhEPKS6_SE_, symObjAddr: 0x62B8, symBinAddr: 0x35810, symSize: 0x134 }
  - { offsetInCU: 0x1F9D2, offset: 0x26B772, size: 0x8, addend: 0x0, symName: __ZN3CFF16cs_interpreter_tINS_20cff1_cs_interp_env_tE23cff1_cs_opset_extents_t20cff1_extents_param_tE9interpretERS3_, symObjAddr: 0x79C, symBinAddr: 0x2FF20, symSize: 0xD4 }
  - { offsetInCU: 0x1FCBF, offset: 0x26BA5F, size: 0x8, addend: 0x0, symName: __ZNK2OT4cff113accelerator_t8get_pathEP9hb_font_tjR17hb_draw_session_t, symObjAddr: 0x3A4, symBinAddr: 0x2FB28, symSize: 0xC }
  - { offsetInCU: 0x1FD4F, offset: 0x26BAEF, size: 0x8, addend: 0x0, symName: __ZL9_get_pathPKN2OT4cff113accelerator_tEP9hb_font_tjR17hb_draw_session_tbPN3CFF7point_tE, symObjAddr: 0x3B0, symBinAddr: 0x2FB34, symSize: 0x154 }
  - { offsetInCU: 0x20468, offset: 0x26C208, size: 0x8, addend: 0x0, symName: __ZN3CFF16cs_interpreter_tINS_20cff1_cs_interp_env_tE20cff1_cs_opset_path_t17cff1_path_param_tE9interpretERS3_, symObjAddr: 0x35D0, symBinAddr: 0x32D54, symSize: 0xD4 }
  - { offsetInCU: 0x20964, offset: 0x26C704, size: 0x8, addend: 0x0, symName: __ZNK2OT4cff113accelerator_t19get_seac_componentsEjPjS2_, symObjAddr: 0x504, symBinAddr: 0x2FC88, symSize: 0x148 }
  - { offsetInCU: 0x20D37, offset: 0x26CAD7, size: 0x8, addend: 0x0, symName: __ZN3CFF16cs_interpreter_tINS_20cff1_cs_interp_env_tE20cff1_cs_opset_seac_t16get_seac_param_tE9interpretERS3_, symObjAddr: 0x6C8, symBinAddr: 0x2FE4C, symSize: 0xD4 }
  - { offsetInCU: 0x210EA, offset: 0x26CE8A, size: 0x8, addend: 0x0, symName: __ZNK3CFF8CFFIndexIN2OT7IntTypeItLj2EEEE9length_atEj, symObjAddr: 0x61D8, symBinAddr: 0x35730, symSize: 0x68 }
  - { offsetInCU: 0x211CF, offset: 0x26CF6F, size: 0x8, addend: 0x0, symName: __ZNK3CFF8CFFIndexIN2OT7IntTypeItLj2EEEE9offset_atEj, symObjAddr: 0x6240, symBinAddr: 0x35798, symSize: 0x78 }
  - { offsetInCU: 0x21227, offset: 0x26CFC7, size: 0x8, addend: 0x0, symName: __ZNK3CFF8CFFIndexIN2OT7IntTypeItLj2EEEE9offset_atEj, symObjAddr: 0x6240, symBinAddr: 0x35798, symSize: 0x78 }
  - { offsetInCU: 0x21246, offset: 0x26CFE6, size: 0x8, addend: 0x0, symName: __ZNK3CFF8CFFIndexIN2OT7IntTypeItLj2EEEE9offset_atEj, symObjAddr: 0x6240, symBinAddr: 0x35798, symSize: 0x78 }
  - { offsetInCU: 0x21512, offset: 0x26D2B2, size: 0x8, addend: 0x0, symName: __ZN3CFF15cff1_cs_opset_tI20cff1_cs_opset_seac_t16get_seac_param_tNS_17path_procs_null_tINS_20cff1_cs_interp_env_tES2_EEE10process_opEjRS4_RS2_, symObjAddr: 0x63EC, symBinAddr: 0x35944, symSize: 0xA0 }
  - { offsetInCU: 0x21764, offset: 0x26D504, size: 0x8, addend: 0x0, symName: __ZN3CFF15cff1_cs_opset_tI23cff1_cs_opset_extents_t20cff1_extents_param_t25cff1_path_procs_extents_tE10process_opEjRNS_20cff1_cs_interp_env_tERS2_, symObjAddr: 0x870, symBinAddr: 0x2FFF4, symSize: 0xA0 }
  - { offsetInCU: 0x21AD9, offset: 0x26D879, size: 0x8, addend: 0x0, symName: __ZN23cff1_cs_opset_extents_t12process_seacERN3CFF20cff1_cs_interp_env_tER20cff1_extents_param_t, symObjAddr: 0x9AC, symBinAddr: 0x30130, symSize: 0x1CC }
  - { offsetInCU: 0x221EA, offset: 0x26DF8A, size: 0x8, addend: 0x0, symName: __ZN3CFF10cs_opset_tINS_8number_tE23cff1_cs_opset_extents_tNS_20cff1_cs_interp_env_tE20cff1_extents_param_t25cff1_path_procs_extents_tE10process_opEjRS3_RS4_, symObjAddr: 0xB78, symBinAddr: 0x302FC, symSize: 0x458 }
  - { offsetInCU: 0x22A65, offset: 0x26E805, size: 0x8, addend: 0x0, symName: __ZN3CFF15cff1_cs_opset_tI23cff1_cs_opset_extents_t20cff1_extents_param_t25cff1_path_procs_extents_tE11check_widthEjRNS_20cff1_cs_interp_env_tERS2_, symObjAddr: 0x910, symBinAddr: 0x30094, symSize: 0x9C }
  - { offsetInCU: 0x22CF5, offset: 0x26EA95, size: 0x8, addend: 0x0, symName: __ZNK2OT4cff119accelerator_templ_tIN3CFF25cff1_private_dict_opset_tENS2_31cff1_private_dict_values_base_tINS2_10dict_val_tEEEE17std_code_to_glyphEj, symObjAddr: 0xFD0, symBinAddr: 0x30754, symSize: 0x58 }
  - { offsetInCU: 0x22D41, offset: 0x26EAE1, size: 0x8, addend: 0x0, symName: __ZNK2OT4cff119accelerator_templ_tIN3CFF25cff1_private_dict_opset_tENS2_31cff1_private_dict_values_base_tINS2_10dict_val_tEEEE17std_code_to_glyphEj, symObjAddr: 0xFD0, symBinAddr: 0x30754, symSize: 0x58 }
  - { offsetInCU: 0x22D6D, offset: 0x26EB0D, size: 0x8, addend: 0x0, symName: __ZN8bounds_t5mergeERKS_, symObjAddr: 0x1028, symBinAddr: 0x307AC, symSize: 0x8C }
  - { offsetInCU: 0x22DA4, offset: 0x26EB44, size: 0x8, addend: 0x0, symName: __ZN8bounds_t5mergeERKS_, symObjAddr: 0x1028, symBinAddr: 0x307AC, symSize: 0x8C }
  - { offsetInCU: 0x22DC2, offset: 0x26EB62, size: 0x8, addend: 0x0, symName: __ZN8bounds_t5mergeERKS_, symObjAddr: 0x1028, symBinAddr: 0x307AC, symSize: 0x8C }
  - { offsetInCU: 0x22DEA, offset: 0x26EB8A, size: 0x8, addend: 0x0, symName: __ZN8bounds_t5mergeERKS_, symObjAddr: 0x1028, symBinAddr: 0x307AC, symSize: 0x8C }
  - { offsetInCU: 0x22E11, offset: 0x26EBB1, size: 0x8, addend: 0x0, symName: __ZN8bounds_t5mergeERKS_, symObjAddr: 0x1028, symBinAddr: 0x307AC, symSize: 0x8C }
  - { offsetInCU: 0x232DF, offset: 0x26F07F, size: 0x8, addend: 0x0, symName: __ZN3CFF12path_procs_tI25cff1_path_procs_extents_tNS_20cff1_cs_interp_env_tE20cff1_extents_param_tE5hflexERS2_RS3_, symObjAddr: 0x2D2C, symBinAddr: 0x324B0, symSize: 0x100 }
  - { offsetInCU: 0x238E6, offset: 0x26F686, size: 0x8, addend: 0x0, symName: __ZN3CFF10cs_opset_tINS_8number_tE23cff1_cs_opset_extents_tNS_20cff1_cs_interp_env_tE20cff1_extents_param_t25cff1_path_procs_extents_tE16process_hintmaskEjRS3_RS4_, symObjAddr: 0x1360, symBinAddr: 0x30AE4, symSize: 0x64 }
  - { offsetInCU: 0x23AC6, offset: 0x26F866, size: 0x8, addend: 0x0, symName: __ZN3CFF11arg_stack_tINS_8number_tEE22push_fixed_from_substrERNS_14byte_str_ref_tE, symObjAddr: 0x1214, symBinAddr: 0x30998, symSize: 0x9C }
  - { offsetInCU: 0x23B1E, offset: 0x26F8BE, size: 0x8, addend: 0x0, symName: __ZN3CFF11arg_stack_tINS_8number_tEE22push_fixed_from_substrERNS_14byte_str_ref_tE, symObjAddr: 0x1214, symBinAddr: 0x30998, symSize: 0x9C }
  - { offsetInCU: 0x23CD0, offset: 0x26FA70, size: 0x8, addend: 0x0, symName: __ZN3CFF7opset_tINS_8number_tEE10process_opEjRNS_12interp_env_tIS1_EE, symObjAddr: 0x31CC, symBinAddr: 0x32950, symSize: 0x210 }
  - { offsetInCU: 0x240B3, offset: 0x26FE53, size: 0x8, addend: 0x0, symName: __ZN3CFF12path_procs_tI25cff1_path_procs_extents_tNS_20cff1_cs_interp_env_tE20cff1_extents_param_tE7rlinetoERS2_RS3_, symObjAddr: 0x148C, symBinAddr: 0x30C10, symSize: 0x110 }
  - { offsetInCU: 0x24393, offset: 0x270133, size: 0x8, addend: 0x0, symName: __ZN3CFF12path_procs_tI25cff1_path_procs_extents_tNS_20cff1_cs_interp_env_tE20cff1_extents_param_tE7hlinetoERS2_RS3_, symObjAddr: 0x159C, symBinAddr: 0x30D20, symSize: 0x154 }
  - { offsetInCU: 0x247C6, offset: 0x270566, size: 0x8, addend: 0x0, symName: __ZN3CFF12path_procs_tI25cff1_path_procs_extents_tNS_20cff1_cs_interp_env_tE20cff1_extents_param_tE7vlinetoERS2_RS3_, symObjAddr: 0x16F0, symBinAddr: 0x30E74, symSize: 0x154 }
  - { offsetInCU: 0x24BE0, offset: 0x270980, size: 0x8, addend: 0x0, symName: __ZN3CFF12path_procs_tI25cff1_path_procs_extents_tNS_20cff1_cs_interp_env_tE20cff1_extents_param_tE9rrcurvetoERS2_RS3_, symObjAddr: 0x1844, symBinAddr: 0x30FC8, symSize: 0x1E0 }
  - { offsetInCU: 0x25378, offset: 0x271118, size: 0x8, addend: 0x0, symName: __ZN3CFF12path_procs_tI25cff1_path_procs_extents_tNS_20cff1_cs_interp_env_tE20cff1_extents_param_tE7rmovetoERS2_RS3_, symObjAddr: 0x13C4, symBinAddr: 0x30B48, symSize: 0x70 }
  - { offsetInCU: 0x25538, offset: 0x2712D8, size: 0x8, addend: 0x0, symName: __ZN3CFF10cs_opset_tINS_8number_tE23cff1_cs_opset_extents_tNS_20cff1_cs_interp_env_tE20cff1_extents_param_t25cff1_path_procs_extents_tE17process_post_moveEjRS3_RS4_, symObjAddr: 0x1434, symBinAddr: 0x30BB8, symSize: 0x58 }
  - { offsetInCU: 0x25673, offset: 0x271413, size: 0x8, addend: 0x0, symName: __ZN3CFF12path_procs_tI25cff1_path_procs_extents_tNS_20cff1_cs_interp_env_tE20cff1_extents_param_tE10rcurvelineERS2_RS3_, symObjAddr: 0x1A24, symBinAddr: 0x311A8, symSize: 0x260 }
  - { offsetInCU: 0x26074, offset: 0x271E14, size: 0x8, addend: 0x0, symName: __ZN3CFF12path_procs_tI25cff1_path_procs_extents_tNS_20cff1_cs_interp_env_tE20cff1_extents_param_tE10rlinecurveERS2_RS3_, symObjAddr: 0x1C84, symBinAddr: 0x31408, symSize: 0x270 }
  - { offsetInCU: 0x26A25, offset: 0x2727C5, size: 0x8, addend: 0x0, symName: __ZN3CFF12path_procs_tI25cff1_path_procs_extents_tNS_20cff1_cs_interp_env_tE20cff1_extents_param_tE9vvcurvetoERS2_RS3_, symObjAddr: 0x1EF4, symBinAddr: 0x31678, symSize: 0x1B4 }
  - { offsetInCU: 0x2703D, offset: 0x272DDD, size: 0x8, addend: 0x0, symName: __ZN3CFF12path_procs_tI25cff1_path_procs_extents_tNS_20cff1_cs_interp_env_tE20cff1_extents_param_tE9hhcurvetoERS2_RS3_, symObjAddr: 0x20A8, symBinAddr: 0x3182C, symSize: 0x1B4 }
  - { offsetInCU: 0x27644, offset: 0x2733E4, size: 0x8, addend: 0x0, symName: __ZN3CFF15cs_interp_env_tINS_8number_tENS_5SubrsIN2OT7IntTypeItLj2EEEEEE9call_subrERKNS_14biased_subrs_tIS6_EENS_9cs_type_tE, symObjAddr: 0x12B0, symBinAddr: 0x30A34, symSize: 0xB0 }
  - { offsetInCU: 0x2779C, offset: 0x27353C, size: 0x8, addend: 0x0, symName: __ZN3CFF12path_procs_tI25cff1_path_procs_extents_tNS_20cff1_cs_interp_env_tE20cff1_extents_param_tE9vhcurvetoERS2_RS3_, symObjAddr: 0x225C, symBinAddr: 0x319E0, symSize: 0x568 }
  - { offsetInCU: 0x28EFF, offset: 0x274C9F, size: 0x8, addend: 0x0, symName: __ZN3CFF12path_procs_tI25cff1_path_procs_extents_tNS_20cff1_cs_interp_env_tE20cff1_extents_param_tE9hvcurvetoERS2_RS3_, symObjAddr: 0x27C4, symBinAddr: 0x31F48, symSize: 0x568 }
  - { offsetInCU: 0x2A68B, offset: 0x27642B, size: 0x8, addend: 0x0, symName: __ZN3CFF12path_procs_tI25cff1_path_procs_extents_tNS_20cff1_cs_interp_env_tE20cff1_extents_param_tE4flexERS2_RS3_, symObjAddr: 0x2E2C, symBinAddr: 0x325B0, symSize: 0x100 }
  - { offsetInCU: 0x2ADCA, offset: 0x276B6A, size: 0x8, addend: 0x0, symName: __ZN3CFF12path_procs_tI25cff1_path_procs_extents_tNS_20cff1_cs_interp_env_tE20cff1_extents_param_tE6hflex1ERS2_RS3_, symObjAddr: 0x2F2C, symBinAddr: 0x326B0, symSize: 0x104 }
  - { offsetInCU: 0x2B44F, offset: 0x2771EF, size: 0x8, addend: 0x0, symName: __ZN3CFF12path_procs_tI25cff1_path_procs_extents_tNS_20cff1_cs_interp_env_tE20cff1_extents_param_tE5flex1ERS2_RS3_, symObjAddr: 0x3030, symBinAddr: 0x327B4, symSize: 0x19C }
  - { offsetInCU: 0x2BD97, offset: 0x277B37, size: 0x8, addend: 0x0, symName: __ZNK3CFF7Charset9get_glyphEjj, symObjAddr: 0x10B4, symBinAddr: 0x30838, symSize: 0x70 }
  - { offsetInCU: 0x2BEFD, offset: 0x277C9D, size: 0x8, addend: 0x0, symName: __ZNK3CFF10Charset1_2IN2OT7IntTypeItLj2EEEE9get_glyphEjj, symObjAddr: 0x1194, symBinAddr: 0x30918, symSize: 0x80 }
  - { offsetInCU: 0x2C01D, offset: 0x277DBD, size: 0x8, addend: 0x0, symName: __ZNK3CFF10Charset1_2IN2OT7IntTypeIhLj1EEEE9get_glyphEjj, symObjAddr: 0x1124, symBinAddr: 0x308A8, symSize: 0x70 }
  - { offsetInCU: 0x2C204, offset: 0x277FA4, size: 0x8, addend: 0x0, symName: __ZN3CFF15cs_interp_env_tINS_8number_tENS_5SubrsIN2OT7IntTypeItLj2EEEEEE12pop_subr_numERKNS_14biased_subrs_tIS6_EERj, symObjAddr: 0x33DC, symBinAddr: 0x32B60, symSize: 0x7C }
  - { offsetInCU: 0x2C365, offset: 0x278105, size: 0x8, addend: 0x0, symName: __ZNK3CFF14biased_subrs_tINS_5SubrsIN2OT7IntTypeItLj2EEEEEEixEj, symObjAddr: 0x3458, symBinAddr: 0x32BDC, symSize: 0x38 }
  - { offsetInCU: 0x2C47C, offset: 0x27821C, size: 0x8, addend: 0x0, symName: __ZN25cff1_path_procs_extents_t4lineERN3CFF20cff1_cs_interp_env_tER20cff1_extents_param_tRKNS0_7point_tE, symObjAddr: 0x3490, symBinAddr: 0x32C14, symSize: 0x60 }
  - { offsetInCU: 0x2C56C, offset: 0x27830C, size: 0x8, addend: 0x0, symName: __ZN25cff1_path_procs_extents_t5curveERN3CFF20cff1_cs_interp_env_tER20cff1_extents_param_tRKNS0_7point_tES7_S7_, symObjAddr: 0x3544, symBinAddr: 0x32CC8, symSize: 0x8C }
  - { offsetInCU: 0x2C7E6, offset: 0x278586, size: 0x8, addend: 0x0, symName: __ZN8bounds_t6updateERKN3CFF7point_tE, symObjAddr: 0x34F0, symBinAddr: 0x32C74, symSize: 0x54 }
  - { offsetInCU: 0x2C81D, offset: 0x2785BD, size: 0x8, addend: 0x0, symName: __ZN8bounds_t6updateERKN3CFF7point_tE, symObjAddr: 0x34F0, symBinAddr: 0x32C74, symSize: 0x54 }
  - { offsetInCU: 0x2C843, offset: 0x2785E3, size: 0x8, addend: 0x0, symName: __ZN8bounds_t6updateERKN3CFF7point_tE, symObjAddr: 0x34F0, symBinAddr: 0x32C74, symSize: 0x54 }
  - { offsetInCU: 0x2C986, offset: 0x278726, size: 0x8, addend: 0x0, symName: __ZN3CFF15cff1_cs_opset_tI20cff1_cs_opset_path_t17cff1_path_param_t22cff1_path_procs_path_tE10process_opEjRNS_20cff1_cs_interp_env_tERS2_, symObjAddr: 0x36A4, symBinAddr: 0x32E28, symSize: 0xA0 }
  - { offsetInCU: 0x2CC62, offset: 0x278A02, size: 0x8, addend: 0x0, symName: __ZN20cff1_cs_opset_path_t12process_seacERN3CFF20cff1_cs_interp_env_tER17cff1_path_param_t, symObjAddr: 0x37E0, symBinAddr: 0x32F64, symSize: 0x188 }
  - { offsetInCU: 0x2D009, offset: 0x278DA9, size: 0x8, addend: 0x0, symName: __ZN3CFF10cs_opset_tINS_8number_tE20cff1_cs_opset_path_tNS_20cff1_cs_interp_env_tE17cff1_path_param_t22cff1_path_procs_path_tE10process_opEjRS3_RS4_, symObjAddr: 0x3968, symBinAddr: 0x330EC, symSize: 0x3D0 }
  - { offsetInCU: 0x2D688, offset: 0x279428, size: 0x8, addend: 0x0, symName: __ZN3CFF15cff1_cs_opset_tI20cff1_cs_opset_path_t17cff1_path_param_t22cff1_path_procs_path_tE11check_widthEjRNS_20cff1_cs_interp_env_tERS2_, symObjAddr: 0x3744, symBinAddr: 0x32EC8, symSize: 0x9C }
  - { offsetInCU: 0x2D7AF, offset: 0x27954F, size: 0x8, addend: 0x0, symName: __ZN3CFF12path_procs_tI22cff1_path_procs_path_tNS_20cff1_cs_interp_env_tE17cff1_path_param_tE5hflexERS2_RS3_, symObjAddr: 0x58AC, symBinAddr: 0x35030, symSize: 0x10C }
  - { offsetInCU: 0x2DE87, offset: 0x279C27, size: 0x8, addend: 0x0, symName: __ZN3CFF10cs_opset_tINS_8number_tE20cff1_cs_opset_path_tNS_20cff1_cs_interp_env_tE17cff1_path_param_t22cff1_path_procs_path_tE16process_hintmaskEjRS3_RS4_, symObjAddr: 0x3D38, symBinAddr: 0x334BC, symSize: 0x64 }
  - { offsetInCU: 0x2E067, offset: 0x279E07, size: 0x8, addend: 0x0, symName: __ZN3CFF12path_procs_tI22cff1_path_procs_path_tNS_20cff1_cs_interp_env_tE17cff1_path_param_tE7vmovetoERS2_RS3_, symObjAddr: 0x3F3C, symBinAddr: 0x336C0, symSize: 0x90 }
  - { offsetInCU: 0x2E228, offset: 0x279FC8, size: 0x8, addend: 0x0, symName: __ZN3CFF12path_procs_tI22cff1_path_procs_path_tNS_20cff1_cs_interp_env_tE17cff1_path_param_tE7rlinetoERS2_RS3_, symObjAddr: 0x3FCC, symBinAddr: 0x33750, symSize: 0x114 }
  - { offsetInCU: 0x2E557, offset: 0x27A2F7, size: 0x8, addend: 0x0, symName: __ZN3CFF12path_procs_tI22cff1_path_procs_path_tNS_20cff1_cs_interp_env_tE17cff1_path_param_tE7hlinetoERS2_RS3_, symObjAddr: 0x40E0, symBinAddr: 0x33864, symSize: 0x160 }
  - { offsetInCU: 0x2EA77, offset: 0x27A817, size: 0x8, addend: 0x0, symName: __ZN3CFF12path_procs_tI22cff1_path_procs_path_tNS_20cff1_cs_interp_env_tE17cff1_path_param_tE7vlinetoERS2_RS3_, symObjAddr: 0x4240, symBinAddr: 0x339C4, symSize: 0x160 }
  - { offsetInCU: 0x2EF7E, offset: 0x27AD1E, size: 0x8, addend: 0x0, symName: __ZN3CFF12path_procs_tI22cff1_path_procs_path_tNS_20cff1_cs_interp_env_tE17cff1_path_param_tE9rrcurvetoERS2_RS3_, symObjAddr: 0x43A0, symBinAddr: 0x33B24, symSize: 0x1E4 }
  - { offsetInCU: 0x2F779, offset: 0x27B519, size: 0x8, addend: 0x0, symName: __ZN3CFF12path_procs_tI22cff1_path_procs_path_tNS_20cff1_cs_interp_env_tE17cff1_path_param_tE7rmovetoERS2_RS3_, symObjAddr: 0x3D9C, symBinAddr: 0x33520, symSize: 0xB8 }
  - { offsetInCU: 0x2FA43, offset: 0x27B7E3, size: 0x8, addend: 0x0, symName: __ZN3CFF12path_procs_tI22cff1_path_procs_path_tNS_20cff1_cs_interp_env_tE17cff1_path_param_tE7hmovetoERS2_RS3_, symObjAddr: 0x3EAC, symBinAddr: 0x33630, symSize: 0x90 }
  - { offsetInCU: 0x2FC1F, offset: 0x27B9BF, size: 0x8, addend: 0x0, symName: __ZN3CFF10cs_opset_tINS_8number_tE20cff1_cs_opset_path_tNS_20cff1_cs_interp_env_tE17cff1_path_param_t22cff1_path_procs_path_tE17process_post_moveEjRS3_RS4_, symObjAddr: 0x3E54, symBinAddr: 0x335D8, symSize: 0x58 }
  - { offsetInCU: 0x2FD5A, offset: 0x27BAFA, size: 0x8, addend: 0x0, symName: __ZN3CFF12path_procs_tI22cff1_path_procs_path_tNS_20cff1_cs_interp_env_tE17cff1_path_param_tE10rcurvelineERS2_RS3_, symObjAddr: 0x4584, symBinAddr: 0x33D08, symSize: 0x268 }
  - { offsetInCU: 0x307ED, offset: 0x27C58D, size: 0x8, addend: 0x0, symName: __ZN3CFF12path_procs_tI22cff1_path_procs_path_tNS_20cff1_cs_interp_env_tE17cff1_path_param_tE10rlinecurveERS2_RS3_, symObjAddr: 0x47EC, symBinAddr: 0x33F70, symSize: 0x278 }
  - { offsetInCU: 0x31208, offset: 0x27CFA8, size: 0x8, addend: 0x0, symName: __ZN3CFF12path_procs_tI22cff1_path_procs_path_tNS_20cff1_cs_interp_env_tE17cff1_path_param_tE9vvcurvetoERS2_RS3_, symObjAddr: 0x4A64, symBinAddr: 0x341E8, symSize: 0x1B4 }
  - { offsetInCU: 0x31883, offset: 0x27D623, size: 0x8, addend: 0x0, symName: __ZN3CFF12path_procs_tI22cff1_path_procs_path_tNS_20cff1_cs_interp_env_tE17cff1_path_param_tE9hhcurvetoERS2_RS3_, symObjAddr: 0x4C18, symBinAddr: 0x3439C, symSize: 0x1B4 }
  - { offsetInCU: 0x31EED, offset: 0x27DC8D, size: 0x8, addend: 0x0, symName: __ZN3CFF12path_procs_tI22cff1_path_procs_path_tNS_20cff1_cs_interp_env_tE17cff1_path_param_tE9vhcurvetoERS2_RS3_, symObjAddr: 0x4DCC, symBinAddr: 0x34550, symSize: 0x570 }
  - { offsetInCU: 0x33846, offset: 0x27F5E6, size: 0x8, addend: 0x0, symName: __ZN3CFF12path_procs_tI22cff1_path_procs_path_tNS_20cff1_cs_interp_env_tE17cff1_path_param_tE9hvcurvetoERS2_RS3_, symObjAddr: 0x533C, symBinAddr: 0x34AC0, symSize: 0x570 }
  - { offsetInCU: 0x351C8, offset: 0x280F68, size: 0x8, addend: 0x0, symName: __ZN3CFF12path_procs_tI22cff1_path_procs_path_tNS_20cff1_cs_interp_env_tE17cff1_path_param_tE4flexERS2_RS3_, symObjAddr: 0x59B8, symBinAddr: 0x3513C, symSize: 0x10C }
  - { offsetInCU: 0x359D8, offset: 0x281778, size: 0x8, addend: 0x0, symName: __ZN3CFF12path_procs_tI22cff1_path_procs_path_tNS_20cff1_cs_interp_env_tE17cff1_path_param_tE6hflex1ERS2_RS3_, symObjAddr: 0x5AC4, symBinAddr: 0x35248, symSize: 0x110 }
  - { offsetInCU: 0x3612E, offset: 0x281ECE, size: 0x8, addend: 0x0, symName: __ZN3CFF12path_procs_tI22cff1_path_procs_path_tNS_20cff1_cs_interp_env_tE17cff1_path_param_tE5flex1ERS2_RS3_, symObjAddr: 0x5BD4, symBinAddr: 0x35358, symSize: 0x1A8 }
  - { offsetInCU: 0x36B69, offset: 0x282909, size: 0x8, addend: 0x0, symName: __ZN17cff1_path_param_t7move_toERKN3CFF7point_tE, symObjAddr: 0x5D7C, symBinAddr: 0x35500, symSize: 0x38 }
  - { offsetInCU: 0x36D39, offset: 0x282AD9, size: 0x8, addend: 0x0, symName: __ZN17cff1_path_param_t7line_toERKN3CFF7point_tE, symObjAddr: 0x5EB0, symBinAddr: 0x35598, symSize: 0x50 }
  - { offsetInCU: 0x36F57, offset: 0x282CF7, size: 0x8, addend: 0x0, symName: __ZN17cff1_path_param_t8cubic_toERKN3CFF7point_tES3_S3_, symObjAddr: 0x5FD8, symBinAddr: 0x355E8, symSize: 0x70 }
  - { offsetInCU: 0x373D5, offset: 0x283175, size: 0x8, addend: 0x0, symName: __ZN17hb_draw_session_t7move_toEff, symObjAddr: 0x5DB4, symBinAddr: 0x35538, symSize: 0x60 }
  - { offsetInCU: 0x376C5, offset: 0x283465, size: 0x8, addend: 0x0, symName: __ZN17hb_draw_session_t8cubic_toEffffff, symObjAddr: 0x6048, symBinAddr: 0x35658, symSize: 0x30 }
  - { offsetInCU: 0x37D8D, offset: 0x283B2D, size: 0x8, addend: 0x0, symName: __ZN20cff1_cs_opset_seac_t12process_seacERN3CFF20cff1_cs_interp_env_tER16get_seac_param_t, symObjAddr: 0x6528, symBinAddr: 0x35A80, symSize: 0x90 }
  - { offsetInCU: 0x37F13, offset: 0x283CB3, size: 0x8, addend: 0x0, symName: __ZN3CFF10cs_opset_tINS_8number_tE20cff1_cs_opset_seac_tNS_20cff1_cs_interp_env_tE16get_seac_param_tNS_17path_procs_null_tIS3_S4_EEE10process_opEjRS3_RS4_, symObjAddr: 0x65B8, symBinAddr: 0x35B10, symSize: 0x2CC }
  - { offsetInCU: 0x383A5, offset: 0x284145, size: 0x8, addend: 0x0, symName: __ZN3CFF15cff1_cs_opset_tI20cff1_cs_opset_seac_t16get_seac_param_tNS_17path_procs_null_tINS_20cff1_cs_interp_env_tES2_EEE11check_widthEjRS4_RS2_, symObjAddr: 0x648C, symBinAddr: 0x359E4, symSize: 0x9C }
  - { offsetInCU: 0x384CC, offset: 0x28426C, size: 0x8, addend: 0x0, symName: __ZN3CFF10cs_opset_tINS_8number_tE20cff1_cs_opset_seac_tNS_20cff1_cs_interp_env_tE16get_seac_param_tNS_17path_procs_null_tIS3_S4_EEE16process_hintmaskEjRS3_RS4_, symObjAddr: 0x6884, symBinAddr: 0x35DDC, symSize: 0x64 }
  - { offsetInCU: 0x386AC, offset: 0x28444C, size: 0x8, addend: 0x0, symName: __ZN3CFF10cs_opset_tINS_8number_tE20cff1_cs_opset_seac_tNS_20cff1_cs_interp_env_tE16get_seac_param_tNS_17path_procs_null_tIS3_S4_EEE17process_post_moveEjRS3_RS4_, symObjAddr: 0x68E8, symBinAddr: 0x35E40, symSize: 0x58 }
  - { offsetInCU: 0x26, offset: 0x2845F6, size: 0x8, addend: 0x0, symName: __ZNK2OT4cff213accelerator_t11get_extentsEP9hb_font_tjP18hb_glyph_extents_t, symObjAddr: 0x0, symBinAddr: 0x35E98, symSize: 0x1B0 }
  - { offsetInCU: 0x17355, offset: 0x29B925, size: 0x8, addend: 0x0, symName: __ZNK2OT4cff213accelerator_t11get_extentsEP9hb_font_tjP18hb_glyph_extents_t, symObjAddr: 0x0, symBinAddr: 0x35E98, symSize: 0x1B0 }
  - { offsetInCU: 0x17AFC, offset: 0x29C0CC, size: 0x8, addend: 0x0, symName: __ZNK3CFF12CFF2FDSelect6get_fdEj, symObjAddr: 0x1B0, symBinAddr: 0x36048, symSize: 0x4C }
  - { offsetInCU: 0x17BE0, offset: 0x29C1B0, size: 0x8, addend: 0x0, symName: __ZNK3CFF8CFFIndexIN2OT7IntTypeIjLj4EEEEixEj, symObjAddr: 0x1FC, symBinAddr: 0x36094, symSize: 0x7C }
  - { offsetInCU: 0x17DC4, offset: 0x29C394, size: 0x8, addend: 0x0, symName: __ZN3CFF20cff2_cs_interp_env_tINS_8number_tEEC2IKN2OT4cff213accelerator_tEEERK10hb_array_tIKhERT_jPKij, symObjAddr: 0x73C, symBinAddr: 0x3652C, symSize: 0xD8 }
  - { offsetInCU: 0x17F8B, offset: 0x29C55B, size: 0x8, addend: 0x0, symName: __ZN3CFF16cs_interpreter_tINS_20cff2_cs_interp_env_tINS_8number_tEEE23cff2_cs_opset_extents_t20cff2_extents_param_tE9interpretERS5_, symObjAddr: 0x278, symBinAddr: 0x36110, symSize: 0x98 }
  - { offsetInCU: 0x18173, offset: 0x29C743, size: 0x8, addend: 0x0, symName: __ZNK3CFF11FDSelect3_4IN2OT7IntTypeIjLj4EEENS2_ItLj2EEEE6get_fdEj, symObjAddr: 0x544, symBinAddr: 0x36334, symSize: 0xE8 }
  - { offsetInCU: 0x1871C, offset: 0x29CCEC, size: 0x8, addend: 0x0, symName: __ZNK3CFF8CFFIndexIN2OT7IntTypeIjLj4EEEE9length_atEj, symObjAddr: 0x65C, symBinAddr: 0x3644C, symSize: 0x68 }
  - { offsetInCU: 0x18801, offset: 0x29CDD1, size: 0x8, addend: 0x0, symName: __ZNK3CFF8CFFIndexIN2OT7IntTypeIjLj4EEEE9offset_atEj, symObjAddr: 0x6C4, symBinAddr: 0x364B4, symSize: 0x78 }
  - { offsetInCU: 0x18858, offset: 0x29CE28, size: 0x8, addend: 0x0, symName: __ZNK3CFF8CFFIndexIN2OT7IntTypeIjLj4EEEE9offset_atEj, symObjAddr: 0x6C4, symBinAddr: 0x364B4, symSize: 0x78 }
  - { offsetInCU: 0x18877, offset: 0x29CE47, size: 0x8, addend: 0x0, symName: __ZNK3CFF8CFFIndexIN2OT7IntTypeIjLj4EEEE9offset_atEj, symObjAddr: 0x6C4, symBinAddr: 0x364B4, symSize: 0x78 }
  - { offsetInCU: 0x18A8C, offset: 0x29D05C, size: 0x8, addend: 0x0, symName: __ZN3CFF20cff2_cs_interp_env_tINS_8number_tEE8fetch_opEv, symObjAddr: 0x9A0, symBinAddr: 0x36790, symSize: 0x64 }
  - { offsetInCU: 0x18AB5, offset: 0x29D085, size: 0x8, addend: 0x0, symName: __ZN3CFF20cff2_cs_interp_env_tINS_8number_tEE8fetch_opEv, symObjAddr: 0x9A0, symBinAddr: 0x36790, symSize: 0x64 }
  - { offsetInCU: 0x18AD9, offset: 0x29D0A9, size: 0x8, addend: 0x0, symName: __ZN3CFF20cff2_cs_interp_env_tINS_8number_tEE8fetch_opEv, symObjAddr: 0x9A0, symBinAddr: 0x36790, symSize: 0x64 }
  - { offsetInCU: 0x18C3E, offset: 0x29D20E, size: 0x8, addend: 0x0, symName: __ZN3CFF15cff2_cs_opset_tI23cff2_cs_opset_extents_t20cff2_extents_param_tNS_8number_tE25cff2_path_procs_extents_tE10process_opEjRNS_20cff2_cs_interp_env_tIS3_EERS2_, symObjAddr: 0x930, symBinAddr: 0x36720, symSize: 0x70 }
  - { offsetInCU: 0x18F24, offset: 0x29D4F4, size: 0x8, addend: 0x0, symName: __ZNK2OT4cff213accelerator_t8get_pathEP9hb_font_tjR17hb_draw_session_t, symObjAddr: 0x310, symBinAddr: 0x361A8, symSize: 0xF4 }
  - { offsetInCU: 0x19328, offset: 0x29D8F8, size: 0x8, addend: 0x0, symName: __ZN3CFF16cs_interpreter_tINS_20cff2_cs_interp_env_tINS_8number_tEEE20cff2_cs_opset_path_t17cff2_path_param_tE9interpretERS5_, symObjAddr: 0x404, symBinAddr: 0x3629C, symSize: 0x98 }
  - { offsetInCU: 0x194B7, offset: 0x29DA87, size: 0x8, addend: 0x0, symName: __ZN3CFF15cff2_cs_opset_tI20cff2_cs_opset_path_t17cff2_path_param_tNS_8number_tE22cff2_path_procs_path_tE10process_opEjRNS_20cff2_cs_interp_env_tIS3_EERS2_, symObjAddr: 0x37D0, symBinAddr: 0x39174, symSize: 0x70 }
  - { offsetInCU: 0x19930, offset: 0x29DF00, size: 0x8, addend: 0x0, symName: __ZN3CFF11FDSelect3_4IN2OT7IntTypeIjLj4EEENS2_ItLj2EEEE10_cmp_rangeEPKvS7_, symObjAddr: 0x62C, symBinAddr: 0x3641C, symSize: 0x30 }
  - { offsetInCU: 0x19AD5, offset: 0x29E0A5, size: 0x8, addend: 0x0, symName: __ZN3CFF15cs_interp_env_tINS_8number_tENS_5SubrsIN2OT7IntTypeIjLj4EEEEEEC2ERK10hb_array_tIKhEPKS6_SE_, symObjAddr: 0x814, symBinAddr: 0x36604, symSize: 0xDC }
  - { offsetInCU: 0x1A306, offset: 0x29E8D6, size: 0x8, addend: 0x0, symName: __ZN3CFF14biased_subrs_tINS_5SubrsIN2OT7IntTypeIjLj4EEEEEE4initEPKS5_, symObjAddr: 0x8F0, symBinAddr: 0x366E0, symSize: 0x40 }
  - { offsetInCU: 0x1A43C, offset: 0x29EA0C, size: 0x8, addend: 0x0, symName: __ZN3CFF20cff2_cs_interp_env_tINS_8number_tEE15process_vsindexEv, symObjAddr: 0x3744, symBinAddr: 0x390E8, symSize: 0x8C }
  - { offsetInCU: 0x1A5C6, offset: 0x29EB96, size: 0x8, addend: 0x0, symName: __ZN3CFF10cs_opset_tINS_8number_tE23cff2_cs_opset_extents_tNS_20cff2_cs_interp_env_tIS1_EE20cff2_extents_param_t25cff2_path_procs_extents_tE10process_opEjRS4_RS5_, symObjAddr: 0xA04, symBinAddr: 0x367F4, symSize: 0x34C }
  - { offsetInCU: 0x1AC5B, offset: 0x29F22B, size: 0x8, addend: 0x0, symName: __ZN3CFF15cff2_cs_opset_tI23cff2_cs_opset_extents_t20cff2_extents_param_tNS_8number_tE25cff2_path_procs_extents_tE13process_blendERNS_20cff2_cs_interp_env_tIS3_EERS2_, symObjAddr: 0xD50, symBinAddr: 0x36B40, symSize: 0x1AC }
  - { offsetInCU: 0x1B33E, offset: 0x29F90E, size: 0x8, addend: 0x0, symName: __ZN3CFF12path_procs_tI25cff2_path_procs_extents_tNS_20cff2_cs_interp_env_tINS_8number_tEEE20cff2_extents_param_tE5hflexERS4_RS5_, symObjAddr: 0x2A0C, symBinAddr: 0x38760, symSize: 0x100 }
  - { offsetInCU: 0x1B945, offset: 0x29FF15, size: 0x8, addend: 0x0, symName: __ZN3CFF10cs_opset_tINS_8number_tE23cff2_cs_opset_extents_tNS_20cff2_cs_interp_env_tIS1_EE20cff2_extents_param_t25cff2_path_procs_extents_tE16process_hintmaskEjRS4_RS5_, symObjAddr: 0x1048, symBinAddr: 0x36D9C, symSize: 0x60 }
  - { offsetInCU: 0x1BE60, offset: 0x2A0430, size: 0x8, addend: 0x0, symName: __ZN3CFF12path_procs_tI25cff2_path_procs_extents_tNS_20cff2_cs_interp_env_tINS_8number_tEEE20cff2_extents_param_tE7rlinetoERS4_RS5_, symObjAddr: 0x116C, symBinAddr: 0x36EC0, symSize: 0x110 }
  - { offsetInCU: 0x1C13E, offset: 0x2A070E, size: 0x8, addend: 0x0, symName: __ZN3CFF12path_procs_tI25cff2_path_procs_extents_tNS_20cff2_cs_interp_env_tINS_8number_tEEE20cff2_extents_param_tE7hlinetoERS4_RS5_, symObjAddr: 0x127C, symBinAddr: 0x36FD0, symSize: 0x154 }
  - { offsetInCU: 0x1C56E, offset: 0x2A0B3E, size: 0x8, addend: 0x0, symName: __ZN3CFF12path_procs_tI25cff2_path_procs_extents_tNS_20cff2_cs_interp_env_tINS_8number_tEEE20cff2_extents_param_tE7vlinetoERS4_RS5_, symObjAddr: 0x13D0, symBinAddr: 0x37124, symSize: 0x154 }
  - { offsetInCU: 0x1C985, offset: 0x2A0F55, size: 0x8, addend: 0x0, symName: __ZN3CFF12path_procs_tI25cff2_path_procs_extents_tNS_20cff2_cs_interp_env_tINS_8number_tEEE20cff2_extents_param_tE9rrcurvetoERS4_RS5_, symObjAddr: 0x1524, symBinAddr: 0x37278, symSize: 0x1E0 }
  - { offsetInCU: 0x1D117, offset: 0x2A16E7, size: 0x8, addend: 0x0, symName: __ZN3CFF12path_procs_tI25cff2_path_procs_extents_tNS_20cff2_cs_interp_env_tINS_8number_tEEE20cff2_extents_param_tE7rmovetoERS4_RS5_, symObjAddr: 0x10A8, symBinAddr: 0x36DFC, symSize: 0x70 }
  - { offsetInCU: 0x1D2D3, offset: 0x2A18A3, size: 0x8, addend: 0x0, symName: __ZN3CFF10cs_opset_tINS_8number_tE23cff2_cs_opset_extents_tNS_20cff2_cs_interp_env_tIS1_EE20cff2_extents_param_t25cff2_path_procs_extents_tE17process_post_moveEjRS4_RS5_, symObjAddr: 0x1118, symBinAddr: 0x36E6C, symSize: 0x54 }
  - { offsetInCU: 0x1D3D2, offset: 0x2A19A2, size: 0x8, addend: 0x0, symName: __ZN3CFF12path_procs_tI25cff2_path_procs_extents_tNS_20cff2_cs_interp_env_tINS_8number_tEEE20cff2_extents_param_tE10rcurvelineERS4_RS5_, symObjAddr: 0x1704, symBinAddr: 0x37458, symSize: 0x260 }
  - { offsetInCU: 0x1DDCB, offset: 0x2A239B, size: 0x8, addend: 0x0, symName: __ZN3CFF12path_procs_tI25cff2_path_procs_extents_tNS_20cff2_cs_interp_env_tINS_8number_tEEE20cff2_extents_param_tE10rlinecurveERS4_RS5_, symObjAddr: 0x1964, symBinAddr: 0x376B8, symSize: 0x270 }
  - { offsetInCU: 0x1E774, offset: 0x2A2D44, size: 0x8, addend: 0x0, symName: __ZN3CFF12path_procs_tI25cff2_path_procs_extents_tNS_20cff2_cs_interp_env_tINS_8number_tEEE20cff2_extents_param_tE9vvcurvetoERS4_RS5_, symObjAddr: 0x1BD4, symBinAddr: 0x37928, symSize: 0x1B4 }
  - { offsetInCU: 0x1ED88, offset: 0x2A3358, size: 0x8, addend: 0x0, symName: __ZN3CFF12path_procs_tI25cff2_path_procs_extents_tNS_20cff2_cs_interp_env_tINS_8number_tEEE20cff2_extents_param_tE9hhcurvetoERS4_RS5_, symObjAddr: 0x1D88, symBinAddr: 0x37ADC, symSize: 0x1B4 }
  - { offsetInCU: 0x1F38B, offset: 0x2A395B, size: 0x8, addend: 0x0, symName: __ZN3CFF15cs_interp_env_tINS_8number_tENS_5SubrsIN2OT7IntTypeIjLj4EEEEEE9call_subrERKNS_14biased_subrs_tIS6_EENS_9cs_type_tE, symObjAddr: 0xF98, symBinAddr: 0x36CEC, symSize: 0xB0 }
  - { offsetInCU: 0x1F4E3, offset: 0x2A3AB3, size: 0x8, addend: 0x0, symName: __ZN3CFF12path_procs_tI25cff2_path_procs_extents_tNS_20cff2_cs_interp_env_tINS_8number_tEEE20cff2_extents_param_tE9vhcurvetoERS4_RS5_, symObjAddr: 0x1F3C, symBinAddr: 0x37C90, symSize: 0x568 }
  - { offsetInCU: 0x20C34, offset: 0x2A5204, size: 0x8, addend: 0x0, symName: __ZN3CFF12path_procs_tI25cff2_path_procs_extents_tNS_20cff2_cs_interp_env_tINS_8number_tEEE20cff2_extents_param_tE9hvcurvetoERS4_RS5_, symObjAddr: 0x24A4, symBinAddr: 0x381F8, symSize: 0x568 }
  - { offsetInCU: 0x223AE, offset: 0x2A697E, size: 0x8, addend: 0x0, symName: __ZN3CFF12path_procs_tI25cff2_path_procs_extents_tNS_20cff2_cs_interp_env_tINS_8number_tEEE20cff2_extents_param_tE4flexERS4_RS5_, symObjAddr: 0x2B0C, symBinAddr: 0x38860, symSize: 0x100 }
  - { offsetInCU: 0x22AED, offset: 0x2A70BD, size: 0x8, addend: 0x0, symName: __ZN3CFF12path_procs_tI25cff2_path_procs_extents_tNS_20cff2_cs_interp_env_tINS_8number_tEEE20cff2_extents_param_tE6hflex1ERS4_RS5_, symObjAddr: 0x2C0C, symBinAddr: 0x38960, symSize: 0x104 }
  - { offsetInCU: 0x23172, offset: 0x2A7742, size: 0x8, addend: 0x0, symName: __ZN3CFF12path_procs_tI25cff2_path_procs_extents_tNS_20cff2_cs_interp_env_tINS_8number_tEEE20cff2_extents_param_tE5flex1ERS4_RS5_, symObjAddr: 0x2D10, symBinAddr: 0x38A64, symSize: 0x19C }
  - { offsetInCU: 0x23C73, offset: 0x2A8243, size: 0x8, addend: 0x0, symName: __ZN3CFF20cff2_cs_interp_env_tINS_8number_tEE13process_blendEv, symObjAddr: 0x32AC, symBinAddr: 0x38DF0, symSize: 0xEC }
  - { offsetInCU: 0x23ECB, offset: 0x2A849B, size: 0x8, addend: 0x0, symName: __ZN3CFF15cs_interp_env_tINS_8number_tENS_5SubrsIN2OT7IntTypeIjLj4EEEEEE12pop_subr_numERKNS_14biased_subrs_tIS6_EERj, symObjAddr: 0x30BC, symBinAddr: 0x38C00, symSize: 0x7C }
  - { offsetInCU: 0x2402C, offset: 0x2A85FC, size: 0x8, addend: 0x0, symName: __ZNK3CFF14biased_subrs_tINS_5SubrsIN2OT7IntTypeIjLj4EEEEEEixEj, symObjAddr: 0x3138, symBinAddr: 0x38C7C, symSize: 0x38 }
  - { offsetInCU: 0x24193, offset: 0x2A8763, size: 0x8, addend: 0x0, symName: __ZN25cff2_path_procs_extents_t4lineERN3CFF20cff2_cs_interp_env_tINS0_8number_tEEER20cff2_extents_param_tRKNS0_7point_tE, symObjAddr: 0x3170, symBinAddr: 0x38CB4, symSize: 0x60 }
  - { offsetInCU: 0x24284, offset: 0x2A8854, size: 0x8, addend: 0x0, symName: __ZN25cff2_path_procs_extents_t5curveERN3CFF20cff2_cs_interp_env_tINS0_8number_tEEER20cff2_extents_param_tRKNS0_7point_tES9_S9_, symObjAddr: 0x3224, symBinAddr: 0x38D68, symSize: 0x88 }
  - { offsetInCU: 0x244CC, offset: 0x2A8A9C, size: 0x8, addend: 0x0, symName: __ZN20cff2_extents_param_t13update_boundsERKN3CFF7point_tE, symObjAddr: 0x31D0, symBinAddr: 0x38D14, symSize: 0x54 }
  - { offsetInCU: 0x24501, offset: 0x2A8AD1, size: 0x8, addend: 0x0, symName: __ZN20cff2_extents_param_t13update_boundsERKN3CFF7point_tE, symObjAddr: 0x31D0, symBinAddr: 0x38D14, symSize: 0x54 }
  - { offsetInCU: 0x24528, offset: 0x2A8AF8, size: 0x8, addend: 0x0, symName: __ZN20cff2_extents_param_t13update_boundsERKN3CFF7point_tE, symObjAddr: 0x31D0, symBinAddr: 0x38D14, symSize: 0x54 }
  - { offsetInCU: 0x247B0, offset: 0x2A8D80, size: 0x8, addend: 0x0, symName: __ZNK2OT14VariationStore22get_region_index_countEj, symObjAddr: 0x3398, symBinAddr: 0x38EDC, symSize: 0x48 }
  - { offsetInCU: 0x247E8, offset: 0x2A8DB8, size: 0x8, addend: 0x0, symName: __ZNK2OT14VariationStore22get_region_index_countEj, symObjAddr: 0x3398, symBinAddr: 0x38EDC, symSize: 0x48 }
  - { offsetInCU: 0x24818, offset: 0x2A8DE8, size: 0x8, addend: 0x0, symName: __ZNK2OT14VariationStore22get_region_index_countEj, symObjAddr: 0x3398, symBinAddr: 0x38EDC, symSize: 0x48 }
  - { offsetInCU: 0x24838, offset: 0x2A8E08, size: 0x8, addend: 0x0, symName: __ZNK2OT14VariationStore22get_region_index_countEj, symObjAddr: 0x3398, symBinAddr: 0x38EDC, symSize: 0x48 }
  - { offsetInCU: 0x249A0, offset: 0x2A8F70, size: 0x8, addend: 0x0, symName: __ZN11hb_vector_tIfLb0EE5allocEj, symObjAddr: 0x3444, symBinAddr: 0x38F88, symSize: 0x88 }
  - { offsetInCU: 0x24A4D, offset: 0x2A901D, size: 0x8, addend: 0x0, symName: __ZNK2OT14VariationStore18get_region_scalarsEjPKijPfj, symObjAddr: 0x33E0, symBinAddr: 0x38F24, symSize: 0x64 }
  - { offsetInCU: 0x24D93, offset: 0x2A9363, size: 0x8, addend: 0x0, symName: __ZNK2OT7VarData18get_region_scalarsEPKijRKNS_13VarRegionListEPfj, symObjAddr: 0x34CC, symBinAddr: 0x39010, symSize: 0xD8 }
  - { offsetInCU: 0x251D1, offset: 0x2A97A1, size: 0x8, addend: 0x0, symName: __ZN3CFF10cs_opset_tINS_8number_tE20cff2_cs_opset_path_tNS_20cff2_cs_interp_env_tIS1_EE17cff2_path_param_t22cff2_path_procs_path_tE10process_opEjRS4_RS5_, symObjAddr: 0x3840, symBinAddr: 0x391E4, symSize: 0x2BC }
  - { offsetInCU: 0x25604, offset: 0x2A9BD4, size: 0x8, addend: 0x0, symName: __ZN3CFF15cff2_cs_opset_tI20cff2_cs_opset_path_t17cff2_path_param_tNS_8number_tE22cff2_path_procs_path_tE13process_blendERNS_20cff2_cs_interp_env_tIS3_EERS2_, symObjAddr: 0x3AFC, symBinAddr: 0x394A0, symSize: 0x1AC }
  - { offsetInCU: 0x25A1C, offset: 0x2A9FEC, size: 0x8, addend: 0x0, symName: __ZN3CFF12path_procs_tI22cff2_path_procs_path_tNS_20cff2_cs_interp_env_tINS_8number_tEEE17cff2_path_param_tE5hflexERS4_RS5_, symObjAddr: 0x5810, symBinAddr: 0x3B1B4, symSize: 0x10C }
  - { offsetInCU: 0x260F2, offset: 0x2AA6C2, size: 0x8, addend: 0x0, symName: __ZN3CFF10cs_opset_tINS_8number_tE20cff2_cs_opset_path_tNS_20cff2_cs_interp_env_tIS1_EE17cff2_path_param_t22cff2_path_procs_path_tE16process_hintmaskEjRS4_RS5_, symObjAddr: 0x3CA8, symBinAddr: 0x3964C, symSize: 0x60 }
  - { offsetInCU: 0x26296, offset: 0x2AA866, size: 0x8, addend: 0x0, symName: __ZN3CFF12path_procs_tI22cff2_path_procs_path_tNS_20cff2_cs_interp_env_tINS_8number_tEEE17cff2_path_param_tE7vmovetoERS4_RS5_, symObjAddr: 0x3EA0, symBinAddr: 0x39844, symSize: 0x90 }
  - { offsetInCU: 0x264A4, offset: 0x2AAA74, size: 0x8, addend: 0x0, symName: __ZN3CFF12path_procs_tI22cff2_path_procs_path_tNS_20cff2_cs_interp_env_tINS_8number_tEEE17cff2_path_param_tE7rlinetoERS4_RS5_, symObjAddr: 0x3F30, symBinAddr: 0x398D4, symSize: 0x114 }
  - { offsetInCU: 0x267D0, offset: 0x2AADA0, size: 0x8, addend: 0x0, symName: __ZN3CFF12path_procs_tI22cff2_path_procs_path_tNS_20cff2_cs_interp_env_tINS_8number_tEEE17cff2_path_param_tE7hlinetoERS4_RS5_, symObjAddr: 0x4044, symBinAddr: 0x399E8, symSize: 0x160 }
  - { offsetInCU: 0x26CEA, offset: 0x2AB2BA, size: 0x8, addend: 0x0, symName: __ZN3CFF12path_procs_tI22cff2_path_procs_path_tNS_20cff2_cs_interp_env_tINS_8number_tEEE17cff2_path_param_tE7vlinetoERS4_RS5_, symObjAddr: 0x41A4, symBinAddr: 0x39B48, symSize: 0x160 }
  - { offsetInCU: 0x271EB, offset: 0x2AB7BB, size: 0x8, addend: 0x0, symName: __ZN3CFF12path_procs_tI22cff2_path_procs_path_tNS_20cff2_cs_interp_env_tINS_8number_tEEE17cff2_path_param_tE9rrcurvetoERS4_RS5_, symObjAddr: 0x4304, symBinAddr: 0x39CA8, symSize: 0x1E4 }
  - { offsetInCU: 0x279DF, offset: 0x2ABFAF, size: 0x8, addend: 0x0, symName: __ZN3CFF12path_procs_tI22cff2_path_procs_path_tNS_20cff2_cs_interp_env_tINS_8number_tEEE17cff2_path_param_tE7rmovetoERS4_RS5_, symObjAddr: 0x3D08, symBinAddr: 0x396AC, symSize: 0xB4 }
  - { offsetInCU: 0x27CA9, offset: 0x2AC279, size: 0x8, addend: 0x0, symName: __ZN3CFF12path_procs_tI22cff2_path_procs_path_tNS_20cff2_cs_interp_env_tINS_8number_tEEE17cff2_path_param_tE7hmovetoERS4_RS5_, symObjAddr: 0x3E10, symBinAddr: 0x397B4, symSize: 0x90 }
  - { offsetInCU: 0x27EB7, offset: 0x2AC487, size: 0x8, addend: 0x0, symName: __ZN3CFF10cs_opset_tINS_8number_tE20cff2_cs_opset_path_tNS_20cff2_cs_interp_env_tIS1_EE17cff2_path_param_t22cff2_path_procs_path_tE17process_post_moveEjRS4_RS5_, symObjAddr: 0x3DBC, symBinAddr: 0x39760, symSize: 0x54 }
  - { offsetInCU: 0x27FB6, offset: 0x2AC586, size: 0x8, addend: 0x0, symName: __ZN3CFF12path_procs_tI22cff2_path_procs_path_tNS_20cff2_cs_interp_env_tINS_8number_tEEE17cff2_path_param_tE10rcurvelineERS4_RS5_, symObjAddr: 0x44E8, symBinAddr: 0x39E8C, symSize: 0x268 }
  - { offsetInCU: 0x28A3F, offset: 0x2AD00F, size: 0x8, addend: 0x0, symName: __ZN3CFF12path_procs_tI22cff2_path_procs_path_tNS_20cff2_cs_interp_env_tINS_8number_tEEE17cff2_path_param_tE10rlinecurveERS4_RS5_, symObjAddr: 0x4750, symBinAddr: 0x3A0F4, symSize: 0x278 }
  - { offsetInCU: 0x29450, offset: 0x2ADA20, size: 0x8, addend: 0x0, symName: __ZN3CFF12path_procs_tI22cff2_path_procs_path_tNS_20cff2_cs_interp_env_tINS_8number_tEEE17cff2_path_param_tE9vvcurvetoERS4_RS5_, symObjAddr: 0x49C8, symBinAddr: 0x3A36C, symSize: 0x1B4 }
  - { offsetInCU: 0x29AC6, offset: 0x2AE096, size: 0x8, addend: 0x0, symName: __ZN3CFF12path_procs_tI22cff2_path_procs_path_tNS_20cff2_cs_interp_env_tINS_8number_tEEE17cff2_path_param_tE9hhcurvetoERS4_RS5_, symObjAddr: 0x4B7C, symBinAddr: 0x3A520, symSize: 0x1B4 }
  - { offsetInCU: 0x2A12B, offset: 0x2AE6FB, size: 0x8, addend: 0x0, symName: __ZN3CFF12path_procs_tI22cff2_path_procs_path_tNS_20cff2_cs_interp_env_tINS_8number_tEEE17cff2_path_param_tE9vhcurvetoERS4_RS5_, symObjAddr: 0x4D30, symBinAddr: 0x3A6D4, symSize: 0x570 }
  - { offsetInCU: 0x2BA6D, offset: 0x2B003D, size: 0x8, addend: 0x0, symName: __ZN3CFF12path_procs_tI22cff2_path_procs_path_tNS_20cff2_cs_interp_env_tINS_8number_tEEE17cff2_path_param_tE9hvcurvetoERS4_RS5_, symObjAddr: 0x52A0, symBinAddr: 0x3AC44, symSize: 0x570 }
  - { offsetInCU: 0x2D3D8, offset: 0x2B19A8, size: 0x8, addend: 0x0, symName: __ZN3CFF12path_procs_tI22cff2_path_procs_path_tNS_20cff2_cs_interp_env_tINS_8number_tEEE17cff2_path_param_tE4flexERS4_RS5_, symObjAddr: 0x591C, symBinAddr: 0x3B2C0, symSize: 0x10C }
  - { offsetInCU: 0x2DBE6, offset: 0x2B21B6, size: 0x8, addend: 0x0, symName: __ZN3CFF12path_procs_tI22cff2_path_procs_path_tNS_20cff2_cs_interp_env_tINS_8number_tEEE17cff2_path_param_tE6hflex1ERS4_RS5_, symObjAddr: 0x5A28, symBinAddr: 0x3B3CC, symSize: 0x110 }
  - { offsetInCU: 0x2E33A, offset: 0x2B290A, size: 0x8, addend: 0x0, symName: __ZN3CFF12path_procs_tI22cff2_path_procs_path_tNS_20cff2_cs_interp_env_tINS_8number_tEEE17cff2_path_param_tE5flex1ERS4_RS5_, symObjAddr: 0x5B38, symBinAddr: 0x3B4DC, symSize: 0x1A8 }
  - { offsetInCU: 0x2EF1A, offset: 0x2B34EA, size: 0x8, addend: 0x0, symName: __ZN17cff2_path_param_t7line_toERKN3CFF7point_tE, symObjAddr: 0x5DDC, symBinAddr: 0x3B684, symSize: 0x3C }
  - { offsetInCU: 0x2F087, offset: 0x2B3657, size: 0x8, addend: 0x0, symName: __ZN17cff2_path_param_t8cubic_toERKN3CFF7point_tES3_S3_, symObjAddr: 0x5EF0, symBinAddr: 0x3B6C0, symSize: 0x4C }
  - { offsetInCU: 0x280EE, offset: 0x2DBEDD, size: 0x8, addend: 0x0, symName: _hb_ot_color_has_palettes, symObjAddr: 0x0, symBinAddr: 0x3B70C, symSize: 0x40 }
  - { offsetInCU: 0x28237, offset: 0x2DC026, size: 0x8, addend: 0x0, symName: __ZNK16hb_lazy_loader_tIN2OT4CPALE22hb_table_lazy_loader_tIS1_Lj35ELb1EE9hb_face_tLj35E9hb_blob_tE10get_storedEv, symObjAddr: 0x112C, symBinAddr: 0x3C838, symSize: 0x78 }
  - { offsetInCU: 0x283E0, offset: 0x2DC1CF, size: 0x8, addend: 0x0, symName: _hb_ot_color_palette_get_count, symObjAddr: 0x40, symBinAddr: 0x3B74C, symSize: 0x38 }
  - { offsetInCU: 0x28519, offset: 0x2DC308, size: 0x8, addend: 0x0, symName: _hb_ot_color_palette_get_name_id, symObjAddr: 0x78, symBinAddr: 0x3B784, symSize: 0x40 }
  - { offsetInCU: 0x28629, offset: 0x2DC418, size: 0x8, addend: 0x0, symName: __ZNK2OT4CPAL19get_palette_name_idEj, symObjAddr: 0xB8, symBinAddr: 0x3B7C4, symSize: 0x44 }
  - { offsetInCU: 0x2881D, offset: 0x2DC60C, size: 0x8, addend: 0x0, symName: __ZNK2OT10CPALV1Tail19get_palette_name_idEPKvjj, symObjAddr: 0x908, symBinAddr: 0x3C014, symSize: 0x64 }
  - { offsetInCU: 0x28870, offset: 0x2DC65F, size: 0x8, addend: 0x0, symName: __ZNK2OT10CPALV1Tail19get_palette_name_idEPKvjj, symObjAddr: 0x908, symBinAddr: 0x3C014, symSize: 0x64 }
  - { offsetInCU: 0x2888F, offset: 0x2DC67E, size: 0x8, addend: 0x0, symName: __ZNK2OT10CPALV1Tail19get_palette_name_idEPKvjj, symObjAddr: 0x908, symBinAddr: 0x3C014, symSize: 0x64 }
  - { offsetInCU: 0x289B1, offset: 0x2DC7A0, size: 0x8, addend: 0x0, symName: _hb_ot_color_palette_color_get_name_id, symObjAddr: 0xFC, symBinAddr: 0x3B808, symSize: 0x40 }
  - { offsetInCU: 0x28AC1, offset: 0x2DC8B0, size: 0x8, addend: 0x0, symName: __ZNK2OT4CPAL17get_color_name_idEj, symObjAddr: 0x13C, symBinAddr: 0x3B848, symSize: 0x44 }
  - { offsetInCU: 0x28C3A, offset: 0x2DCA29, size: 0x8, addend: 0x0, symName: __ZNK2OT10CPALV1Tail17get_color_name_idEPKvjj, symObjAddr: 0x96C, symBinAddr: 0x3C078, symSize: 0x64 }
  - { offsetInCU: 0x28C8D, offset: 0x2DCA7C, size: 0x8, addend: 0x0, symName: __ZNK2OT10CPALV1Tail17get_color_name_idEPKvjj, symObjAddr: 0x96C, symBinAddr: 0x3C078, symSize: 0x64 }
  - { offsetInCU: 0x28CAC, offset: 0x2DCA9B, size: 0x8, addend: 0x0, symName: __ZNK2OT10CPALV1Tail17get_color_name_idEPKvjj, symObjAddr: 0x96C, symBinAddr: 0x3C078, symSize: 0x64 }
  - { offsetInCU: 0x28DCE, offset: 0x2DCBBD, size: 0x8, addend: 0x0, symName: _hb_ot_color_palette_get_flags, symObjAddr: 0x180, symBinAddr: 0x3B88C, symSize: 0x40 }
  - { offsetInCU: 0x28EDE, offset: 0x2DCCCD, size: 0x8, addend: 0x0, symName: __ZNK2OT4CPAL17get_palette_flagsEj, symObjAddr: 0x1C0, symBinAddr: 0x3B8CC, symSize: 0x44 }
  - { offsetInCU: 0x2903A, offset: 0x2DCE29, size: 0x8, addend: 0x0, symName: __ZNK2OT10CPALV1Tail17get_palette_flagsEPKvjj, symObjAddr: 0x9D0, symBinAddr: 0x3C0DC, symSize: 0x64 }
  - { offsetInCU: 0x2908D, offset: 0x2DCE7C, size: 0x8, addend: 0x0, symName: __ZNK2OT10CPALV1Tail17get_palette_flagsEPKvjj, symObjAddr: 0x9D0, symBinAddr: 0x3C0DC, symSize: 0x64 }
  - { offsetInCU: 0x290AA, offset: 0x2DCE99, size: 0x8, addend: 0x0, symName: __ZNK2OT10CPALV1Tail17get_palette_flagsEPKvjj, symObjAddr: 0x9D0, symBinAddr: 0x3C0DC, symSize: 0x64 }
  - { offsetInCU: 0x291CA, offset: 0x2DCFB9, size: 0x8, addend: 0x0, symName: _hb_ot_color_palette_get_colors, symObjAddr: 0x204, symBinAddr: 0x3B910, symSize: 0x60 }
  - { offsetInCU: 0x2931F, offset: 0x2DD10E, size: 0x8, addend: 0x0, symName: __ZNK2OT4CPAL18get_palette_colorsEjjPjS1_, symObjAddr: 0x264, symBinAddr: 0x3B970, symSize: 0xEC }
  - { offsetInCU: 0x293B2, offset: 0x2DD1A1, size: 0x8, addend: 0x0, symName: __ZNK2OT4CPAL18get_palette_colorsEjjPjS1_, symObjAddr: 0x264, symBinAddr: 0x3B970, symSize: 0xEC }
  - { offsetInCU: 0x293D1, offset: 0x2DD1C0, size: 0x8, addend: 0x0, symName: __ZNK2OT4CPAL18get_palette_colorsEjjPjS1_, symObjAddr: 0x264, symBinAddr: 0x3B970, symSize: 0xEC }
  - { offsetInCU: 0x29CD0, offset: 0x2DDABF, size: 0x8, addend: 0x0, symName: _hb_ot_color_has_layers, symObjAddr: 0x350, symBinAddr: 0x3BA5C, symSize: 0x40 }
  - { offsetInCU: 0x29E1A, offset: 0x2DDC09, size: 0x8, addend: 0x0, symName: __ZNK16hb_lazy_loader_tIN2OT4COLRE22hb_table_lazy_loader_tIS1_Lj34ELb1EE9hb_face_tLj34E9hb_blob_tE10get_storedEv, symObjAddr: 0x1734, symBinAddr: 0x3CD9C, symSize: 0x78 }
  - { offsetInCU: 0x29FAD, offset: 0x2DDD9C, size: 0x8, addend: 0x0, symName: _hb_ot_color_glyph_get_layers, symObjAddr: 0x390, symBinAddr: 0x3BA9C, symSize: 0x60 }
  - { offsetInCU: 0x2A102, offset: 0x2DDEF1, size: 0x8, addend: 0x0, symName: __ZNK2OT4COLR16get_glyph_layersEjjPjP19hb_ot_color_layer_t, symObjAddr: 0x3F0, symBinAddr: 0x3BAFC, symSize: 0x154 }
  - { offsetInCU: 0x2A19C, offset: 0x2DDF8B, size: 0x8, addend: 0x0, symName: __ZNK2OT4COLR16get_glyph_layersEjjPjP19hb_ot_color_layer_t, symObjAddr: 0x3F0, symBinAddr: 0x3BAFC, symSize: 0x154 }
  - { offsetInCU: 0x2A1BC, offset: 0x2DDFAB, size: 0x8, addend: 0x0, symName: __ZNK2OT4COLR16get_glyph_layersEjjPjP19hb_ot_color_layer_t, symObjAddr: 0x3F0, symBinAddr: 0x3BAFC, symSize: 0x154 }
  - { offsetInCU: 0x2AD7E, offset: 0x2DEB6D, size: 0x8, addend: 0x0, symName: _hb_ot_color_has_svg, symObjAddr: 0x544, symBinAddr: 0x3BC50, symSize: 0x4C }
  - { offsetInCU: 0x2AF3C, offset: 0x2DED2B, size: 0x8, addend: 0x0, symName: __ZNK16hb_lazy_loader_tIN2OT17SVG_accelerator_tE21hb_face_lazy_loader_tIS1_Lj38EE9hb_face_tLj38ES1_E10get_storedEv, symObjAddr: 0x3BE4, symBinAddr: 0x3EA34, symSize: 0x7C }
  - { offsetInCU: 0x2B0A0, offset: 0x2DEE8F, size: 0x8, addend: 0x0, symName: _hb_ot_color_glyph_reference_svg, symObjAddr: 0x590, symBinAddr: 0x3BC9C, symSize: 0x28 }
  - { offsetInCU: 0x2B13E, offset: 0x2DEF2D, size: 0x8, addend: 0x0, symName: __ZNK2OT3SVG13accelerator_t24reference_blob_for_glyphEj, symObjAddr: 0x5B8, symBinAddr: 0x3BCC4, symSize: 0x68 }
  - { offsetInCU: 0x2B3B7, offset: 0x2DF1A6, size: 0x8, addend: 0x0, symName: __ZNK2OT3SVG15get_glyph_entryEj, symObjAddr: 0xA34, symBinAddr: 0x3C140, symSize: 0x40 }
  - { offsetInCU: 0x2B4AF, offset: 0x2DF29E, size: 0x8, addend: 0x0, symName: __ZNK2OT21SVGDocumentIndexEntry14reference_blobEP9hb_blob_tj, symObjAddr: 0xA74, symBinAddr: 0x3C180, symSize: 0x1C }
  - { offsetInCU: 0x2B6C4, offset: 0x2DF4B3, size: 0x8, addend: 0x0, symName: _hb_ot_color_has_png, symObjAddr: 0x620, symBinAddr: 0x3BD2C, symSize: 0x7C }
  - { offsetInCU: 0x2B939, offset: 0x2DF728, size: 0x8, addend: 0x0, symName: __ZNK16hb_lazy_loader_tIN2OT18CBDT_accelerator_tE21hb_face_lazy_loader_tIS1_Lj36EE9hb_face_tLj36ES1_E10get_storedEv, symObjAddr: 0x3FFC, symBinAddr: 0x3EE40, symSize: 0x7C }
  - { offsetInCU: 0x2BA9C, offset: 0x2DF88B, size: 0x8, addend: 0x0, symName: __ZNK16hb_lazy_loader_tIN2OT18sbix_accelerator_tE21hb_face_lazy_loader_tIS1_Lj37EE9hb_face_tLj37ES1_E10get_storedEv, symObjAddr: 0x4C2C, symBinAddr: 0x3FA70, symSize: 0x7C }
  - { offsetInCU: 0x2BC68, offset: 0x2DFA57, size: 0x8, addend: 0x0, symName: _hb_ot_color_glyph_reference_png, symObjAddr: 0x69C, symBinAddr: 0x3BDA8, symSize: 0xFC }
  - { offsetInCU: 0x2C085, offset: 0x2DFE74, size: 0x8, addend: 0x0, symName: __ZNK2OT4sbix13accelerator_t13choose_strikeEP9hb_font_t, symObjAddr: 0xB64, symBinAddr: 0x3C270, symSize: 0x140 }
  - { offsetInCU: 0x2C4BA, offset: 0x2E02A9, size: 0x8, addend: 0x0, symName: __ZNK2OT10SBIXStrike14get_glyph_blobEjP9hb_blob_tjPiS3_jPj, symObjAddr: 0xCA4, symBinAddr: 0x3C3B0, symSize: 0x16C }
  - { offsetInCU: 0x2C5B5, offset: 0x2E03A4, size: 0x8, addend: 0x0, symName: __ZNK2OT10SBIXStrike14get_glyph_blobEjP9hb_blob_tjPiS3_jPj, symObjAddr: 0xCA4, symBinAddr: 0x3C3B0, symSize: 0x16C }
  - { offsetInCU: 0x2C5D2, offset: 0x2E03C1, size: 0x8, addend: 0x0, symName: __ZNK2OT10SBIXStrike14get_glyph_blobEjP9hb_blob_tjPiS3_jPj, symObjAddr: 0xCA4, symBinAddr: 0x3C3B0, symSize: 0x16C }
  - { offsetInCU: 0x2CCF7, offset: 0x2E0AE6, size: 0x8, addend: 0x0, symName: __ZNK2OT4CBDT13accelerator_t13reference_pngEP9hb_font_tj, symObjAddr: 0x798, symBinAddr: 0x3BEA4, symSize: 0x170 }
  - { offsetInCU: 0x2D46B, offset: 0x2E125A, size: 0x8, addend: 0x0, symName: __ZNK2OT4CBLC13choose_strikeEP9hb_font_t, symObjAddr: 0xE50, symBinAddr: 0x3C55C, symSize: 0x11C }
  - { offsetInCU: 0x2D4E7, offset: 0x2E12D6, size: 0x8, addend: 0x0, symName: __ZNK2OT4CBLC13choose_strikeEP9hb_font_t, symObjAddr: 0xE50, symBinAddr: 0x3C55C, symSize: 0x11C }
  - { offsetInCU: 0x2D507, offset: 0x2E12F6, size: 0x8, addend: 0x0, symName: __ZNK2OT4CBLC13choose_strikeEP9hb_font_t, symObjAddr: 0xE50, symBinAddr: 0x3C55C, symSize: 0x11C }
  - { offsetInCU: 0x2D9FF, offset: 0x2E17EE, size: 0x8, addend: 0x0, symName: __ZNK2OT15BitmapSizeTable10find_tableEjPKvPS2_, symObjAddr: 0xF6C, symBinAddr: 0x3C678, symSize: 0x2C }
  - { offsetInCU: 0x2DA57, offset: 0x2E1846, size: 0x8, addend: 0x0, symName: __ZNK2OT15BitmapSizeTable10find_tableEjPKvPS2_, symObjAddr: 0xF6C, symBinAddr: 0x3C678, symSize: 0x2C }
  - { offsetInCU: 0x2DA75, offset: 0x2E1864, size: 0x8, addend: 0x0, symName: __ZNK2OT15BitmapSizeTable10find_tableEjPKvPS2_, symObjAddr: 0xF6C, symBinAddr: 0x3C678, symSize: 0x2C }
  - { offsetInCU: 0x2DA9B, offset: 0x2E188A, size: 0x8, addend: 0x0, symName: __ZNK2OT15BitmapSizeTable10find_tableEjPKvPS2_, symObjAddr: 0xF6C, symBinAddr: 0x3C678, symSize: 0x2C }
  - { offsetInCU: 0x2DAB9, offset: 0x2E18A8, size: 0x8, addend: 0x0, symName: __ZNK2OT15BitmapSizeTable10find_tableEjPKvPS2_, symObjAddr: 0xF6C, symBinAddr: 0x3C678, symSize: 0x2C }
  - { offsetInCU: 0x2DC01, offset: 0x2E19F0, size: 0x8, addend: 0x0, symName: __ZNK2OT19IndexSubtableRecord14get_image_dataEjPKvPjS3_S3_, symObjAddr: 0xF98, symBinAddr: 0x3C6A4, symSize: 0x58 }
  - { offsetInCU: 0x2DC7D, offset: 0x2E1A6C, size: 0x8, addend: 0x0, symName: __ZNK2OT19IndexSubtableRecord14get_image_dataEjPKvPjS3_S3_, symObjAddr: 0xF98, symBinAddr: 0x3C6A4, symSize: 0x58 }
  - { offsetInCU: 0x2DC9B, offset: 0x2E1A8A, size: 0x8, addend: 0x0, symName: __ZNK2OT19IndexSubtableRecord14get_image_dataEjPKvPjS3_S3_, symObjAddr: 0xF98, symBinAddr: 0x3C6A4, symSize: 0x58 }
  - { offsetInCU: 0x2DF0C, offset: 0x2E1CFB, size: 0x8, addend: 0x0, symName: __ZNK2OT13SortedArrayOfINS_21SVGDocumentIndexEntryENS_7IntTypeItLj2EEEE7bsearchIjEERKS1_RKT_S7_, symObjAddr: 0xA90, symBinAddr: 0x3C19C, symSize: 0x54 }
  - { offsetInCU: 0x2E11C, offset: 0x2E1F0B, size: 0x8, addend: 0x0, symName: __ZNK17hb_sorted_array_tIKN2OT21SVGDocumentIndexEntryEE12bsearch_implIjJEEEbRKT_PjDpT0_, symObjAddr: 0xAE4, symBinAddr: 0x3C1F0, symSize: 0x80 }
  - { offsetInCU: 0x2E428, offset: 0x2E2217, size: 0x8, addend: 0x0, symName: __ZNK2OT4sbix10get_strikeEj, symObjAddr: 0xE10, symBinAddr: 0x3C51C, symSize: 0x40 }
  - { offsetInCU: 0x2E45F, offset: 0x2E224E, size: 0x8, addend: 0x0, symName: __ZNK2OT4sbix10get_strikeEj, symObjAddr: 0xE10, symBinAddr: 0x3C51C, symSize: 0x40 }
  - { offsetInCU: 0x2E48E, offset: 0x2E227D, size: 0x8, addend: 0x0, symName: __ZNK2OT4sbix10get_strikeEj, symObjAddr: 0xE10, symBinAddr: 0x3C51C, symSize: 0x40 }
  - { offsetInCU: 0x2E4AE, offset: 0x2E229D, size: 0x8, addend: 0x0, symName: __ZNK2OT4sbix10get_strikeEj, symObjAddr: 0xE10, symBinAddr: 0x3C51C, symSize: 0x40 }
  - { offsetInCU: 0x2E7BF, offset: 0x2E25AE, size: 0x8, addend: 0x0, symName: __ZNK2OT18IndexSubtableArray10find_tableEjj, symObjAddr: 0xFF0, symBinAddr: 0x3C6FC, symSize: 0x3C }
  - { offsetInCU: 0x2EA0B, offset: 0x2E27FA, size: 0x8, addend: 0x0, symName: __ZNK2OT13IndexSubtable14get_image_dataEjPjS1_S1_, symObjAddr: 0x102C, symBinAddr: 0x3C738, symSize: 0x34 }
  - { offsetInCU: 0x2EA70, offset: 0x2E285F, size: 0x8, addend: 0x0, symName: __ZNK2OT13IndexSubtable14get_image_dataEjPjS1_S1_, symObjAddr: 0x102C, symBinAddr: 0x3C738, symSize: 0x34 }
  - { offsetInCU: 0x2EA90, offset: 0x2E287F, size: 0x8, addend: 0x0, symName: __ZNK2OT13IndexSubtable14get_image_dataEjPjS1_S1_, symObjAddr: 0x102C, symBinAddr: 0x3C738, symSize: 0x34 }
  - { offsetInCU: 0x2EB4A, offset: 0x2E2939, size: 0x8, addend: 0x0, symName: __ZNK2OT23IndexSubtableFormat1Or3INS_7IntTypeIjLj4EEEE14get_image_dataEjPjS4_, symObjAddr: 0x1060, symBinAddr: 0x3C76C, symSize: 0x64 }
  - { offsetInCU: 0x2EF00, offset: 0x2E2CEF, size: 0x8, addend: 0x0, symName: __ZNK2OT23IndexSubtableFormat1Or3INS_7IntTypeItLj2EEEE14get_image_dataEjPjS4_, symObjAddr: 0x10C4, symBinAddr: 0x3C7D0, symSize: 0x68 }
  - { offsetInCU: 0x2F42A, offset: 0x2E3219, size: 0x8, addend: 0x0, symName: __ZNK17hb_data_wrapper_tI9hb_face_tLj35EE11call_createI9hb_blob_t22hb_table_lazy_loader_tIN2OT4CPALELj35ELb1EEEEPT_v, symObjAddr: 0x11A4, symBinAddr: 0x3C8B0, symSize: 0x54 }
  - { offsetInCU: 0x2F542, offset: 0x2E3331, size: 0x8, addend: 0x0, symName: __ZN16hb_lazy_loader_tIN2OT4CPALE22hb_table_lazy_loader_tIS1_Lj35ELb1EE9hb_face_tLj35E9hb_blob_tE10do_destroyEPS5_, symObjAddr: 0x11F8, symBinAddr: 0x3C904, symSize: 0x3C }
  - { offsetInCU: 0x2F663, offset: 0x2E3452, size: 0x8, addend: 0x0, symName: __ZN21hb_sanitize_context_t15reference_tableIN2OT4CPALEEEP9hb_blob_tPK9hb_face_tj, symObjAddr: 0x1234, symBinAddr: 0x3C940, symSize: 0x5C }
  - { offsetInCU: 0x2F772, offset: 0x2E3561, size: 0x8, addend: 0x0, symName: __ZN21hb_sanitize_context_t13sanitize_blobIN2OT4CPALEEEP9hb_blob_tS4_, symObjAddr: 0x1290, symBinAddr: 0x3C99C, symSize: 0x168 }
  - { offsetInCU: 0x2FA50, offset: 0x2E383F, size: 0x8, addend: 0x0, symName: __ZNK2OT4CPAL8sanitizeEP21hb_sanitize_context_t, symObjAddr: 0x13F8, symBinAddr: 0x3CB04, symSize: 0xDC }
  - { offsetInCU: 0x3000D, offset: 0x2E3DFC, size: 0x8, addend: 0x0, symName: __ZNK2OT10CPALV1Tail8sanitizeEP21hb_sanitize_context_tPKvjj, symObjAddr: 0x1578, symBinAddr: 0x3CBE0, symSize: 0x16C }
  - { offsetInCU: 0x30572, offset: 0x2E4361, size: 0x8, addend: 0x0, symName: __ZNK2OT14UnsizedArrayOfINS_5IndexEE8sanitizeIJEEEbP21hb_sanitize_context_tjDpOT_, symObjAddr: 0x16E4, symBinAddr: 0x3CD4C, symSize: 0x50 }
  - { offsetInCU: 0x305C6, offset: 0x2E43B5, size: 0x8, addend: 0x0, symName: __ZNK2OT14UnsizedArrayOfINS_5IndexEE8sanitizeIJEEEbP21hb_sanitize_context_tjDpOT_, symObjAddr: 0x16E4, symBinAddr: 0x3CD4C, symSize: 0x50 }
  - { offsetInCU: 0x305F4, offset: 0x2E43E3, size: 0x8, addend: 0x0, symName: __ZNK2OT14UnsizedArrayOfINS_5IndexEE8sanitizeIJEEEbP21hb_sanitize_context_tjDpOT_, symObjAddr: 0x16E4, symBinAddr: 0x3CD4C, symSize: 0x50 }
  - { offsetInCU: 0x30622, offset: 0x2E4411, size: 0x8, addend: 0x0, symName: __ZNK2OT14UnsizedArrayOfINS_5IndexEE8sanitizeIJEEEbP21hb_sanitize_context_tjDpOT_, symObjAddr: 0x16E4, symBinAddr: 0x3CD4C, symSize: 0x50 }
  - { offsetInCU: 0x307CE, offset: 0x2E45BD, size: 0x8, addend: 0x0, symName: __ZNK17hb_data_wrapper_tI9hb_face_tLj34EE11call_createI9hb_blob_t22hb_table_lazy_loader_tIN2OT4COLRELj34ELb1EEEEPT_v, symObjAddr: 0x17AC, symBinAddr: 0x3CE14, symSize: 0x54 }
  - { offsetInCU: 0x308E6, offset: 0x2E46D5, size: 0x8, addend: 0x0, symName: __ZN16hb_lazy_loader_tIN2OT4COLRE22hb_table_lazy_loader_tIS1_Lj34ELb1EE9hb_face_tLj34E9hb_blob_tE10do_destroyEPS5_, symObjAddr: 0x1800, symBinAddr: 0x3CE68, symSize: 0x3C }
  - { offsetInCU: 0x30985, offset: 0x2E4774, size: 0x8, addend: 0x0, symName: __ZN21hb_sanitize_context_t15reference_tableIN2OT4COLREEEP9hb_blob_tPK9hb_face_tj, symObjAddr: 0x183C, symBinAddr: 0x3CEA4, symSize: 0x5C }
  - { offsetInCU: 0x30A5D, offset: 0x2E484C, size: 0x8, addend: 0x0, symName: __ZN21hb_sanitize_context_t13sanitize_blobIN2OT4COLREEEP9hb_blob_tS4_, symObjAddr: 0x1898, symBinAddr: 0x3CF00, symSize: 0x168 }
  - { offsetInCU: 0x30C72, offset: 0x2E4A61, size: 0x8, addend: 0x0, symName: __ZNK2OT4COLR8sanitizeEP21hb_sanitize_context_t, symObjAddr: 0x1A00, symBinAddr: 0x3D068, symSize: 0x14C }
  - { offsetInCU: 0x311A9, offset: 0x2E4F98, size: 0x8, addend: 0x0, symName: __ZNK2OT14UnsizedArrayOfINS_11LayerRecordEE8sanitizeIJEEEbP21hb_sanitize_context_tjDpOT_, symObjAddr: 0x1B4C, symBinAddr: 0x3D1B4, symSize: 0x54 }
  - { offsetInCU: 0x311FD, offset: 0x2E4FEC, size: 0x8, addend: 0x0, symName: __ZNK2OT14UnsizedArrayOfINS_11LayerRecordEE8sanitizeIJEEEbP21hb_sanitize_context_tjDpOT_, symObjAddr: 0x1B4C, symBinAddr: 0x3D1B4, symSize: 0x54 }
  - { offsetInCU: 0x3122B, offset: 0x2E501A, size: 0x8, addend: 0x0, symName: __ZNK2OT14UnsizedArrayOfINS_11LayerRecordEE8sanitizeIJEEEbP21hb_sanitize_context_tjDpOT_, symObjAddr: 0x1B4C, symBinAddr: 0x3D1B4, symSize: 0x54 }
  - { offsetInCU: 0x31259, offset: 0x2E5048, size: 0x8, addend: 0x0, symName: __ZNK2OT14UnsizedArrayOfINS_11LayerRecordEE8sanitizeIJEEEbP21hb_sanitize_context_tjDpOT_, symObjAddr: 0x1B4C, symBinAddr: 0x3D1B4, symSize: 0x54 }
  - { offsetInCU: 0x312D7, offset: 0x2E50C6, size: 0x8, addend: 0x0, symName: __ZNK2OT8OffsetToINS_13BaseGlyphListENS_7IntTypeIjLj4EEELb1EE8sanitizeIJEEEbP21hb_sanitize_context_tPKvDpOT_, symObjAddr: 0x1BA0, symBinAddr: 0x3D208, symSize: 0xB0 }
  - { offsetInCU: 0x315A1, offset: 0x2E5390, size: 0x8, addend: 0x0, symName: __ZNK2OT8OffsetToINS_9LayerListENS_7IntTypeIjLj4EEELb1EE8sanitizeIJEEEbP21hb_sanitize_context_tPKvDpOT_, symObjAddr: 0x1C50, symBinAddr: 0x3D2B8, symSize: 0xB0 }
  - { offsetInCU: 0x3186B, offset: 0x2E565A, size: 0x8, addend: 0x0, symName: __ZNK2OT8OffsetToINS_8ClipListENS_7IntTypeIjLj4EEELb1EE8sanitizeIJEEEbP21hb_sanitize_context_tPKvDpOT_, symObjAddr: 0x1D00, symBinAddr: 0x3D368, symSize: 0xA0 }
  - { offsetInCU: 0x32149, offset: 0x2E5F38, size: 0x8, addend: 0x0, symName: __ZNK2OT7ArrayOfINS_20BaseGlyphPaintRecordENS_7IntTypeIjLj4EEEE8sanitizeIJPKNS_13BaseGlyphListEEEEbP21hb_sanitize_context_tDpOT_, symObjAddr: 0x1EE0, symBinAddr: 0x3D408, symSize: 0x74 }
  - { offsetInCU: 0x3247E, offset: 0x2E626D, size: 0x8, addend: 0x0, symName: __ZNK2OT7ArrayOfINS_8OffsetToINS_5PaintENS_7IntTypeIjLj4EEELb1EEES4_E8sanitizeIJPKNS_9LayerListEEEEbP21hb_sanitize_context_tDpOT_, symObjAddr: 0x30E4, symBinAddr: 0x3E60C, symSize: 0x74 }
  - { offsetInCU: 0x3277D, offset: 0x2E656C, size: 0x8, addend: 0x0, symName: __ZNK2OT8ClipList8sanitizeEP21hb_sanitize_context_t, symObjAddr: 0x3208, symBinAddr: 0x3E730, symSize: 0x68 }
  - { offsetInCU: 0x32D7A, offset: 0x2E6B69, size: 0x8, addend: 0x0, symName: __ZNK2OT7ArrayOfINS_20BaseGlyphPaintRecordENS_7IntTypeIjLj4EEEE16sanitize_shallowEP21hb_sanitize_context_t, symObjAddr: 0x1F54, symBinAddr: 0x3D47C, symSize: 0x9C }
  - { offsetInCU: 0x32DBF, offset: 0x2E6BAE, size: 0x8, addend: 0x0, symName: __ZNK2OT7ArrayOfINS_20BaseGlyphPaintRecordENS_7IntTypeIjLj4EEEE16sanitize_shallowEP21hb_sanitize_context_t, symObjAddr: 0x1F54, symBinAddr: 0x3D47C, symSize: 0x9C }
  - { offsetInCU: 0x32DE5, offset: 0x2E6BD4, size: 0x8, addend: 0x0, symName: __ZNK2OT7ArrayOfINS_20BaseGlyphPaintRecordENS_7IntTypeIjLj4EEEE16sanitize_shallowEP21hb_sanitize_context_t, symObjAddr: 0x1F54, symBinAddr: 0x3D47C, symSize: 0x9C }
  - { offsetInCU: 0x32E0A, offset: 0x2E6BF9, size: 0x8, addend: 0x0, symName: __ZNK2OT7ArrayOfINS_20BaseGlyphPaintRecordENS_7IntTypeIjLj4EEEE16sanitize_shallowEP21hb_sanitize_context_t, symObjAddr: 0x1F54, symBinAddr: 0x3D47C, symSize: 0x9C }
  - { offsetInCU: 0x32F4E, offset: 0x2E6D3D, size: 0x8, addend: 0x0, symName: __ZNK2OT20BaseGlyphPaintRecord8sanitizeEP21hb_sanitize_context_tPKv, symObjAddr: 0x1FF0, symBinAddr: 0x3D518, symSize: 0x44 }
  - { offsetInCU: 0x32FA2, offset: 0x2E6D91, size: 0x8, addend: 0x0, symName: __ZNK2OT20BaseGlyphPaintRecord8sanitizeEP21hb_sanitize_context_tPKv, symObjAddr: 0x1FF0, symBinAddr: 0x3D518, symSize: 0x44 }
  - { offsetInCU: 0x32FC8, offset: 0x2E6DB7, size: 0x8, addend: 0x0, symName: __ZNK2OT20BaseGlyphPaintRecord8sanitizeEP21hb_sanitize_context_tPKv, symObjAddr: 0x1FF0, symBinAddr: 0x3D518, symSize: 0x44 }
  - { offsetInCU: 0x3311D, offset: 0x2E6F0C, size: 0x8, addend: 0x0, symName: __ZNK2OT8OffsetToINS_5PaintENS_7IntTypeIjLj4EEELb1EE8sanitizeIJEEEbP21hb_sanitize_context_tPKvDpOT_, symObjAddr: 0x2034, symBinAddr: 0x3D55C, symSize: 0xA0 }
  - { offsetInCU: 0x33556, offset: 0x2E7345, size: 0x8, addend: 0x0, symName: __ZNK2OT5Paint8sanitizeIJEEEbP21hb_sanitize_context_tDpOT_, symObjAddr: 0x20D4, symBinAddr: 0x3D5FC, symSize: 0x50 }
  - { offsetInCU: 0x33645, offset: 0x2E7434, size: 0x8, addend: 0x0, symName: __ZNK2OT5Paint8dispatchI21hb_sanitize_context_tJEEENT_8return_tEPS3_DpOT0_, symObjAddr: 0x2124, symBinAddr: 0x3D64C, symSize: 0x138 }
  - { offsetInCU: 0x3368A, offset: 0x2E7479, size: 0x8, addend: 0x0, symName: __ZNK2OT5Paint8dispatchI21hb_sanitize_context_tJEEENT_8return_tEPS3_DpOT0_, symObjAddr: 0x2124, symBinAddr: 0x3D64C, symSize: 0x138 }
  - { offsetInCU: 0x336B8, offset: 0x2E74A7, size: 0x8, addend: 0x0, symName: __ZNK2OT5Paint8dispatchI21hb_sanitize_context_tJEEENT_8return_tEPS3_DpOT0_, symObjAddr: 0x2124, symBinAddr: 0x3D64C, symSize: 0x138 }
  - { offsetInCU: 0x336DD, offset: 0x2E74CC, size: 0x8, addend: 0x0, symName: __ZNK2OT5Paint8dispatchI21hb_sanitize_context_tJEEENT_8return_tEPS3_DpOT0_, symObjAddr: 0x2124, symBinAddr: 0x3D64C, symSize: 0x138 }
  - { offsetInCU: 0x33702, offset: 0x2E74F1, size: 0x8, addend: 0x0, symName: __ZNK2OT5Paint8dispatchI21hb_sanitize_context_tJEEENT_8return_tEPS3_DpOT0_, symObjAddr: 0x2124, symBinAddr: 0x3D64C, symSize: 0x138 }
  - { offsetInCU: 0x354A4, offset: 0x2E9293, size: 0x8, addend: 0x0, symName: __ZNK2OT19PaintLinearGradientINS_10NoVariableEE8sanitizeEP21hb_sanitize_context_t, symObjAddr: 0x225C, symBinAddr: 0x3D784, symSize: 0x4C }
  - { offsetInCU: 0x354E9, offset: 0x2E92D8, size: 0x8, addend: 0x0, symName: __ZNK2OT19PaintLinearGradientINS_10NoVariableEE8sanitizeEP21hb_sanitize_context_t, symObjAddr: 0x225C, symBinAddr: 0x3D784, symSize: 0x4C }
  - { offsetInCU: 0x35511, offset: 0x2E9300, size: 0x8, addend: 0x0, symName: __ZNK2OT19PaintLinearGradientINS_10NoVariableEE8sanitizeEP21hb_sanitize_context_t, symObjAddr: 0x225C, symBinAddr: 0x3D784, symSize: 0x4C }
  - { offsetInCU: 0x35558, offset: 0x2E9347, size: 0x8, addend: 0x0, symName: __ZNK2OT8VariableINS_19PaintLinearGradientIS0_EEE8sanitizeEP21hb_sanitize_context_t, symObjAddr: 0x2438, symBinAddr: 0x3D960, symSize: 0x40 }
  - { offsetInCU: 0x3559B, offset: 0x2E938A, size: 0x8, addend: 0x0, symName: __ZNK2OT8VariableINS_19PaintLinearGradientIS0_EEE8sanitizeEP21hb_sanitize_context_t, symObjAddr: 0x2438, symBinAddr: 0x3D960, symSize: 0x40 }
  - { offsetInCU: 0x355C0, offset: 0x2E93AF, size: 0x8, addend: 0x0, symName: __ZNK2OT8VariableINS_19PaintLinearGradientIS0_EEE8sanitizeEP21hb_sanitize_context_t, symObjAddr: 0x2438, symBinAddr: 0x3D960, symSize: 0x40 }
  - { offsetInCU: 0x35603, offset: 0x2E93F2, size: 0x8, addend: 0x0, symName: __ZNK2OT19PaintRadialGradientINS_10NoVariableEE8sanitizeEP21hb_sanitize_context_t, symObjAddr: 0x2654, symBinAddr: 0x3DB7C, symSize: 0x4C }
  - { offsetInCU: 0x35648, offset: 0x2E9437, size: 0x8, addend: 0x0, symName: __ZNK2OT19PaintRadialGradientINS_10NoVariableEE8sanitizeEP21hb_sanitize_context_t, symObjAddr: 0x2654, symBinAddr: 0x3DB7C, symSize: 0x4C }
  - { offsetInCU: 0x35670, offset: 0x2E945F, size: 0x8, addend: 0x0, symName: __ZNK2OT19PaintRadialGradientINS_10NoVariableEE8sanitizeEP21hb_sanitize_context_t, symObjAddr: 0x2654, symBinAddr: 0x3DB7C, symSize: 0x4C }
  - { offsetInCU: 0x356B7, offset: 0x2E94A6, size: 0x8, addend: 0x0, symName: __ZNK2OT8VariableINS_19PaintRadialGradientIS0_EEE8sanitizeEP21hb_sanitize_context_t, symObjAddr: 0x26A0, symBinAddr: 0x3DBC8, symSize: 0x40 }
  - { offsetInCU: 0x356FA, offset: 0x2E94E9, size: 0x8, addend: 0x0, symName: __ZNK2OT8VariableINS_19PaintRadialGradientIS0_EEE8sanitizeEP21hb_sanitize_context_t, symObjAddr: 0x26A0, symBinAddr: 0x3DBC8, symSize: 0x40 }
  - { offsetInCU: 0x3571F, offset: 0x2E950E, size: 0x8, addend: 0x0, symName: __ZNK2OT8VariableINS_19PaintRadialGradientIS0_EEE8sanitizeEP21hb_sanitize_context_t, symObjAddr: 0x26A0, symBinAddr: 0x3DBC8, symSize: 0x40 }
  - { offsetInCU: 0x35762, offset: 0x2E9551, size: 0x8, addend: 0x0, symName: __ZNK2OT18PaintSweepGradientINS_10NoVariableEE8sanitizeEP21hb_sanitize_context_t, symObjAddr: 0x272C, symBinAddr: 0x3DC54, symSize: 0x48 }
  - { offsetInCU: 0x357A7, offset: 0x2E9596, size: 0x8, addend: 0x0, symName: __ZNK2OT18PaintSweepGradientINS_10NoVariableEE8sanitizeEP21hb_sanitize_context_t, symObjAddr: 0x272C, symBinAddr: 0x3DC54, symSize: 0x48 }
  - { offsetInCU: 0x357CF, offset: 0x2E95BE, size: 0x8, addend: 0x0, symName: __ZNK2OT18PaintSweepGradientINS_10NoVariableEE8sanitizeEP21hb_sanitize_context_t, symObjAddr: 0x272C, symBinAddr: 0x3DC54, symSize: 0x48 }
  - { offsetInCU: 0x35816, offset: 0x2E9605, size: 0x8, addend: 0x0, symName: __ZNK2OT8VariableINS_18PaintSweepGradientIS0_EEE8sanitizeEP21hb_sanitize_context_t, symObjAddr: 0x2774, symBinAddr: 0x3DC9C, symSize: 0x44 }
  - { offsetInCU: 0x35859, offset: 0x2E9648, size: 0x8, addend: 0x0, symName: __ZNK2OT8VariableINS_18PaintSweepGradientIS0_EEE8sanitizeEP21hb_sanitize_context_t, symObjAddr: 0x2774, symBinAddr: 0x3DC9C, symSize: 0x44 }
  - { offsetInCU: 0x3587E, offset: 0x2E966D, size: 0x8, addend: 0x0, symName: __ZNK2OT8VariableINS_18PaintSweepGradientIS0_EEE8sanitizeEP21hb_sanitize_context_t, symObjAddr: 0x2774, symBinAddr: 0x3DC9C, symSize: 0x44 }
  - { offsetInCU: 0x358C1, offset: 0x2E96B0, size: 0x8, addend: 0x0, symName: __ZNK2OT10PaintGlyph8sanitizeEP21hb_sanitize_context_t, symObjAddr: 0x2800, symBinAddr: 0x3DD28, symSize: 0x48 }
  - { offsetInCU: 0x35906, offset: 0x2E96F5, size: 0x8, addend: 0x0, symName: __ZNK2OT10PaintGlyph8sanitizeEP21hb_sanitize_context_t, symObjAddr: 0x2800, symBinAddr: 0x3DD28, symSize: 0x48 }
  - { offsetInCU: 0x3592E, offset: 0x2E971D, size: 0x8, addend: 0x0, symName: __ZNK2OT10PaintGlyph8sanitizeEP21hb_sanitize_context_t, symObjAddr: 0x2800, symBinAddr: 0x3DD28, symSize: 0x48 }
  - { offsetInCU: 0x35974, offset: 0x2E9763, size: 0x8, addend: 0x0, symName: __ZNK2OT14PaintTransformINS_10NoVariableEE8sanitizeEP21hb_sanitize_context_t, symObjAddr: 0x28F8, symBinAddr: 0x3DE20, symSize: 0x84 }
  - { offsetInCU: 0x35A68, offset: 0x2E9857, size: 0x8, addend: 0x0, symName: __ZNK2OT14PaintTransformINS_8VariableEE8sanitizeEP21hb_sanitize_context_t, symObjAddr: 0x2A3C, symBinAddr: 0x3DF64, symSize: 0x84 }
  - { offsetInCU: 0x35B5D, offset: 0x2E994C, size: 0x8, addend: 0x0, symName: __ZNK2OT14PaintTranslate8sanitizeEP21hb_sanitize_context_t, symObjAddr: 0x2B80, symBinAddr: 0x3E0A8, symSize: 0x4C }
  - { offsetInCU: 0x35BA2, offset: 0x2E9991, size: 0x8, addend: 0x0, symName: __ZNK2OT14PaintTranslate8sanitizeEP21hb_sanitize_context_t, symObjAddr: 0x2B80, symBinAddr: 0x3E0A8, symSize: 0x4C }
  - { offsetInCU: 0x35BCA, offset: 0x2E99B9, size: 0x8, addend: 0x0, symName: __ZNK2OT14PaintTranslate8sanitizeEP21hb_sanitize_context_t, symObjAddr: 0x2B80, symBinAddr: 0x3E0A8, symSize: 0x4C }
  - { offsetInCU: 0x35C11, offset: 0x2E9A00, size: 0x8, addend: 0x0, symName: __ZNK2OT8VariableINS_14PaintTranslateEE8sanitizeEP21hb_sanitize_context_t, symObjAddr: 0x2BCC, symBinAddr: 0x3E0F4, symSize: 0x40 }
  - { offsetInCU: 0x35C54, offset: 0x2E9A43, size: 0x8, addend: 0x0, symName: __ZNK2OT8VariableINS_14PaintTranslateEE8sanitizeEP21hb_sanitize_context_t, symObjAddr: 0x2BCC, symBinAddr: 0x3E0F4, symSize: 0x40 }
  - { offsetInCU: 0x35C79, offset: 0x2E9A68, size: 0x8, addend: 0x0, symName: __ZNK2OT8VariableINS_14PaintTranslateEE8sanitizeEP21hb_sanitize_context_t, symObjAddr: 0x2BCC, symBinAddr: 0x3E0F4, symSize: 0x40 }
  - { offsetInCU: 0x35CBC, offset: 0x2E9AAB, size: 0x8, addend: 0x0, symName: __ZNK2OT10PaintScale8sanitizeEP21hb_sanitize_context_t, symObjAddr: 0x2C0C, symBinAddr: 0x3E134, symSize: 0x4C }
  - { offsetInCU: 0x35D01, offset: 0x2E9AF0, size: 0x8, addend: 0x0, symName: __ZNK2OT10PaintScale8sanitizeEP21hb_sanitize_context_t, symObjAddr: 0x2C0C, symBinAddr: 0x3E134, symSize: 0x4C }
  - { offsetInCU: 0x35D29, offset: 0x2E9B18, size: 0x8, addend: 0x0, symName: __ZNK2OT10PaintScale8sanitizeEP21hb_sanitize_context_t, symObjAddr: 0x2C0C, symBinAddr: 0x3E134, symSize: 0x4C }
  - { offsetInCU: 0x35D70, offset: 0x2E9B5F, size: 0x8, addend: 0x0, symName: __ZNK2OT8VariableINS_10PaintScaleEE8sanitizeEP21hb_sanitize_context_t, symObjAddr: 0x2C58, symBinAddr: 0x3E180, symSize: 0x40 }
  - { offsetInCU: 0x35DB3, offset: 0x2E9BA2, size: 0x8, addend: 0x0, symName: __ZNK2OT8VariableINS_10PaintScaleEE8sanitizeEP21hb_sanitize_context_t, symObjAddr: 0x2C58, symBinAddr: 0x3E180, symSize: 0x40 }
  - { offsetInCU: 0x35DD8, offset: 0x2E9BC7, size: 0x8, addend: 0x0, symName: __ZNK2OT8VariableINS_10PaintScaleEE8sanitizeEP21hb_sanitize_context_t, symObjAddr: 0x2C58, symBinAddr: 0x3E180, symSize: 0x40 }
  - { offsetInCU: 0x35E1B, offset: 0x2E9C0A, size: 0x8, addend: 0x0, symName: __ZNK2OT22PaintScaleAroundCenter8sanitizeEP21hb_sanitize_context_t, symObjAddr: 0x2C98, symBinAddr: 0x3E1C0, symSize: 0x48 }
  - { offsetInCU: 0x35E60, offset: 0x2E9C4F, size: 0x8, addend: 0x0, symName: __ZNK2OT22PaintScaleAroundCenter8sanitizeEP21hb_sanitize_context_t, symObjAddr: 0x2C98, symBinAddr: 0x3E1C0, symSize: 0x48 }
  - { offsetInCU: 0x35E88, offset: 0x2E9C77, size: 0x8, addend: 0x0, symName: __ZNK2OT22PaintScaleAroundCenter8sanitizeEP21hb_sanitize_context_t, symObjAddr: 0x2C98, symBinAddr: 0x3E1C0, symSize: 0x48 }
  - { offsetInCU: 0x35ECF, offset: 0x2E9CBE, size: 0x8, addend: 0x0, symName: __ZNK2OT8VariableINS_22PaintScaleAroundCenterEE8sanitizeEP21hb_sanitize_context_t, symObjAddr: 0x2CE0, symBinAddr: 0x3E208, symSize: 0x44 }
  - { offsetInCU: 0x35F12, offset: 0x2E9D01, size: 0x8, addend: 0x0, symName: __ZNK2OT8VariableINS_22PaintScaleAroundCenterEE8sanitizeEP21hb_sanitize_context_t, symObjAddr: 0x2CE0, symBinAddr: 0x3E208, symSize: 0x44 }
  - { offsetInCU: 0x35F37, offset: 0x2E9D26, size: 0x8, addend: 0x0, symName: __ZNK2OT8VariableINS_22PaintScaleAroundCenterEE8sanitizeEP21hb_sanitize_context_t, symObjAddr: 0x2CE0, symBinAddr: 0x3E208, symSize: 0x44 }
  - { offsetInCU: 0x35F7A, offset: 0x2E9D69, size: 0x8, addend: 0x0, symName: __ZNK2OT17PaintScaleUniform8sanitizeEP21hb_sanitize_context_t, symObjAddr: 0x2D24, symBinAddr: 0x3E24C, symSize: 0x48 }
  - { offsetInCU: 0x35FBF, offset: 0x2E9DAE, size: 0x8, addend: 0x0, symName: __ZNK2OT17PaintScaleUniform8sanitizeEP21hb_sanitize_context_t, symObjAddr: 0x2D24, symBinAddr: 0x3E24C, symSize: 0x48 }
  - { offsetInCU: 0x35FE7, offset: 0x2E9DD6, size: 0x8, addend: 0x0, symName: __ZNK2OT17PaintScaleUniform8sanitizeEP21hb_sanitize_context_t, symObjAddr: 0x2D24, symBinAddr: 0x3E24C, symSize: 0x48 }
  - { offsetInCU: 0x3602E, offset: 0x2E9E1D, size: 0x8, addend: 0x0, symName: __ZNK2OT8VariableINS_17PaintScaleUniformEE8sanitizeEP21hb_sanitize_context_t, symObjAddr: 0x2D6C, symBinAddr: 0x3E294, symSize: 0x40 }
  - { offsetInCU: 0x36071, offset: 0x2E9E60, size: 0x8, addend: 0x0, symName: __ZNK2OT8VariableINS_17PaintScaleUniformEE8sanitizeEP21hb_sanitize_context_t, symObjAddr: 0x2D6C, symBinAddr: 0x3E294, symSize: 0x40 }
  - { offsetInCU: 0x36096, offset: 0x2E9E85, size: 0x8, addend: 0x0, symName: __ZNK2OT8VariableINS_17PaintScaleUniformEE8sanitizeEP21hb_sanitize_context_t, symObjAddr: 0x2D6C, symBinAddr: 0x3E294, symSize: 0x40 }
  - { offsetInCU: 0x360D9, offset: 0x2E9EC8, size: 0x8, addend: 0x0, symName: __ZNK2OT29PaintScaleUniformAroundCenter8sanitizeEP21hb_sanitize_context_t, symObjAddr: 0x2DAC, symBinAddr: 0x3E2D4, symSize: 0x48 }
  - { offsetInCU: 0x3611E, offset: 0x2E9F0D, size: 0x8, addend: 0x0, symName: __ZNK2OT29PaintScaleUniformAroundCenter8sanitizeEP21hb_sanitize_context_t, symObjAddr: 0x2DAC, symBinAddr: 0x3E2D4, symSize: 0x48 }
  - { offsetInCU: 0x36146, offset: 0x2E9F35, size: 0x8, addend: 0x0, symName: __ZNK2OT29PaintScaleUniformAroundCenter8sanitizeEP21hb_sanitize_context_t, symObjAddr: 0x2DAC, symBinAddr: 0x3E2D4, symSize: 0x48 }
  - { offsetInCU: 0x3618D, offset: 0x2E9F7C, size: 0x8, addend: 0x0, symName: __ZNK2OT8VariableINS_29PaintScaleUniformAroundCenterEE8sanitizeEP21hb_sanitize_context_t, symObjAddr: 0x2DF4, symBinAddr: 0x3E31C, symSize: 0x40 }
  - { offsetInCU: 0x361D0, offset: 0x2E9FBF, size: 0x8, addend: 0x0, symName: __ZNK2OT8VariableINS_29PaintScaleUniformAroundCenterEE8sanitizeEP21hb_sanitize_context_t, symObjAddr: 0x2DF4, symBinAddr: 0x3E31C, symSize: 0x40 }
  - { offsetInCU: 0x361F5, offset: 0x2E9FE4, size: 0x8, addend: 0x0, symName: __ZNK2OT8VariableINS_29PaintScaleUniformAroundCenterEE8sanitizeEP21hb_sanitize_context_t, symObjAddr: 0x2DF4, symBinAddr: 0x3E31C, symSize: 0x40 }
  - { offsetInCU: 0x36238, offset: 0x2EA027, size: 0x8, addend: 0x0, symName: __ZNK2OT11PaintRotate8sanitizeEP21hb_sanitize_context_t, symObjAddr: 0x2E34, symBinAddr: 0x3E35C, symSize: 0x48 }
  - { offsetInCU: 0x3627D, offset: 0x2EA06C, size: 0x8, addend: 0x0, symName: __ZNK2OT11PaintRotate8sanitizeEP21hb_sanitize_context_t, symObjAddr: 0x2E34, symBinAddr: 0x3E35C, symSize: 0x48 }
  - { offsetInCU: 0x362A5, offset: 0x2EA094, size: 0x8, addend: 0x0, symName: __ZNK2OT11PaintRotate8sanitizeEP21hb_sanitize_context_t, symObjAddr: 0x2E34, symBinAddr: 0x3E35C, symSize: 0x48 }
  - { offsetInCU: 0x362EC, offset: 0x2EA0DB, size: 0x8, addend: 0x0, symName: __ZNK2OT8VariableINS_11PaintRotateEE8sanitizeEP21hb_sanitize_context_t, symObjAddr: 0x2E7C, symBinAddr: 0x3E3A4, symSize: 0x40 }
  - { offsetInCU: 0x3632F, offset: 0x2EA11E, size: 0x8, addend: 0x0, symName: __ZNK2OT8VariableINS_11PaintRotateEE8sanitizeEP21hb_sanitize_context_t, symObjAddr: 0x2E7C, symBinAddr: 0x3E3A4, symSize: 0x40 }
  - { offsetInCU: 0x36354, offset: 0x2EA143, size: 0x8, addend: 0x0, symName: __ZNK2OT8VariableINS_11PaintRotateEE8sanitizeEP21hb_sanitize_context_t, symObjAddr: 0x2E7C, symBinAddr: 0x3E3A4, symSize: 0x40 }
  - { offsetInCU: 0x36397, offset: 0x2EA186, size: 0x8, addend: 0x0, symName: __ZNK2OT23PaintRotateAroundCenter8sanitizeEP21hb_sanitize_context_t, symObjAddr: 0x2EBC, symBinAddr: 0x3E3E4, symSize: 0x48 }
  - { offsetInCU: 0x363DC, offset: 0x2EA1CB, size: 0x8, addend: 0x0, symName: __ZNK2OT23PaintRotateAroundCenter8sanitizeEP21hb_sanitize_context_t, symObjAddr: 0x2EBC, symBinAddr: 0x3E3E4, symSize: 0x48 }
  - { offsetInCU: 0x36404, offset: 0x2EA1F3, size: 0x8, addend: 0x0, symName: __ZNK2OT23PaintRotateAroundCenter8sanitizeEP21hb_sanitize_context_t, symObjAddr: 0x2EBC, symBinAddr: 0x3E3E4, symSize: 0x48 }
  - { offsetInCU: 0x3644B, offset: 0x2EA23A, size: 0x8, addend: 0x0, symName: __ZNK2OT8VariableINS_23PaintRotateAroundCenterEE8sanitizeEP21hb_sanitize_context_t, symObjAddr: 0x2F04, symBinAddr: 0x3E42C, symSize: 0x40 }
  - { offsetInCU: 0x3648E, offset: 0x2EA27D, size: 0x8, addend: 0x0, symName: __ZNK2OT8VariableINS_23PaintRotateAroundCenterEE8sanitizeEP21hb_sanitize_context_t, symObjAddr: 0x2F04, symBinAddr: 0x3E42C, symSize: 0x40 }
  - { offsetInCU: 0x364B3, offset: 0x2EA2A2, size: 0x8, addend: 0x0, symName: __ZNK2OT8VariableINS_23PaintRotateAroundCenterEE8sanitizeEP21hb_sanitize_context_t, symObjAddr: 0x2F04, symBinAddr: 0x3E42C, symSize: 0x40 }
  - { offsetInCU: 0x364F6, offset: 0x2EA2E5, size: 0x8, addend: 0x0, symName: __ZNK2OT9PaintSkew8sanitizeEP21hb_sanitize_context_t, symObjAddr: 0x2F44, symBinAddr: 0x3E46C, symSize: 0x4C }
  - { offsetInCU: 0x3653B, offset: 0x2EA32A, size: 0x8, addend: 0x0, symName: __ZNK2OT9PaintSkew8sanitizeEP21hb_sanitize_context_t, symObjAddr: 0x2F44, symBinAddr: 0x3E46C, symSize: 0x4C }
  - { offsetInCU: 0x36563, offset: 0x2EA352, size: 0x8, addend: 0x0, symName: __ZNK2OT9PaintSkew8sanitizeEP21hb_sanitize_context_t, symObjAddr: 0x2F44, symBinAddr: 0x3E46C, symSize: 0x4C }
  - { offsetInCU: 0x365AA, offset: 0x2EA399, size: 0x8, addend: 0x0, symName: __ZNK2OT8VariableINS_9PaintSkewEE8sanitizeEP21hb_sanitize_context_t, symObjAddr: 0x2F90, symBinAddr: 0x3E4B8, symSize: 0x40 }
  - { offsetInCU: 0x365ED, offset: 0x2EA3DC, size: 0x8, addend: 0x0, symName: __ZNK2OT8VariableINS_9PaintSkewEE8sanitizeEP21hb_sanitize_context_t, symObjAddr: 0x2F90, symBinAddr: 0x3E4B8, symSize: 0x40 }
  - { offsetInCU: 0x36612, offset: 0x2EA401, size: 0x8, addend: 0x0, symName: __ZNK2OT8VariableINS_9PaintSkewEE8sanitizeEP21hb_sanitize_context_t, symObjAddr: 0x2F90, symBinAddr: 0x3E4B8, symSize: 0x40 }
  - { offsetInCU: 0x36655, offset: 0x2EA444, size: 0x8, addend: 0x0, symName: __ZNK2OT21PaintSkewAroundCenter8sanitizeEP21hb_sanitize_context_t, symObjAddr: 0x2FD0, symBinAddr: 0x3E4F8, symSize: 0x48 }
  - { offsetInCU: 0x3669A, offset: 0x2EA489, size: 0x8, addend: 0x0, symName: __ZNK2OT21PaintSkewAroundCenter8sanitizeEP21hb_sanitize_context_t, symObjAddr: 0x2FD0, symBinAddr: 0x3E4F8, symSize: 0x48 }
  - { offsetInCU: 0x366C2, offset: 0x2EA4B1, size: 0x8, addend: 0x0, symName: __ZNK2OT21PaintSkewAroundCenter8sanitizeEP21hb_sanitize_context_t, symObjAddr: 0x2FD0, symBinAddr: 0x3E4F8, symSize: 0x48 }
  - { offsetInCU: 0x36709, offset: 0x2EA4F8, size: 0x8, addend: 0x0, symName: __ZNK2OT8VariableINS_21PaintSkewAroundCenterEE8sanitizeEP21hb_sanitize_context_t, symObjAddr: 0x3018, symBinAddr: 0x3E540, symSize: 0x44 }
  - { offsetInCU: 0x3674C, offset: 0x2EA53B, size: 0x8, addend: 0x0, symName: __ZNK2OT8VariableINS_21PaintSkewAroundCenterEE8sanitizeEP21hb_sanitize_context_t, symObjAddr: 0x3018, symBinAddr: 0x3E540, symSize: 0x44 }
  - { offsetInCU: 0x36771, offset: 0x2EA560, size: 0x8, addend: 0x0, symName: __ZNK2OT8VariableINS_21PaintSkewAroundCenterEE8sanitizeEP21hb_sanitize_context_t, symObjAddr: 0x3018, symBinAddr: 0x3E540, symSize: 0x44 }
  - { offsetInCU: 0x367B3, offset: 0x2EA5A2, size: 0x8, addend: 0x0, symName: __ZNK2OT14PaintComposite8sanitizeEP21hb_sanitize_context_t, symObjAddr: 0x305C, symBinAddr: 0x3E584, symSize: 0x88 }
  - { offsetInCU: 0x368D9, offset: 0x2EA6C8, size: 0x8, addend: 0x0, symName: __ZNK2OT8OffsetToINS_9ColorLineINS_10NoVariableEEENS_7IntTypeIjLj3EEELb1EE8sanitizeIJEEEbP21hb_sanitize_context_tPKvDpOT_, symObjAddr: 0x22A8, symBinAddr: 0x3D7D0, symSize: 0xB0 }
  - { offsetInCU: 0x36D86, offset: 0x2EAB75, size: 0x8, addend: 0x0, symName: __ZNK2OT9ColorLineINS_10NoVariableEE8sanitizeEP21hb_sanitize_context_t, symObjAddr: 0x2358, symBinAddr: 0x3D880, symSize: 0x44 }
  - { offsetInCU: 0x36DCB, offset: 0x2EABBA, size: 0x8, addend: 0x0, symName: __ZNK2OT9ColorLineINS_10NoVariableEE8sanitizeEP21hb_sanitize_context_t, symObjAddr: 0x2358, symBinAddr: 0x3D880, symSize: 0x44 }
  - { offsetInCU: 0x36DF1, offset: 0x2EABE0, size: 0x8, addend: 0x0, symName: __ZNK2OT9ColorLineINS_10NoVariableEE8sanitizeEP21hb_sanitize_context_t, symObjAddr: 0x2358, symBinAddr: 0x3D880, symSize: 0x44 }
  - { offsetInCU: 0x36EC3, offset: 0x2EACB2, size: 0x8, addend: 0x0, symName: __ZNK2OT7ArrayOfINS_10NoVariableINS_9ColorStopEEENS_7IntTypeItLj2EEEE16sanitize_shallowEP21hb_sanitize_context_t, symObjAddr: 0x239C, symBinAddr: 0x3D8C4, symSize: 0x9C }
  - { offsetInCU: 0x36F08, offset: 0x2EACF7, size: 0x8, addend: 0x0, symName: __ZNK2OT7ArrayOfINS_10NoVariableINS_9ColorStopEEENS_7IntTypeItLj2EEEE16sanitize_shallowEP21hb_sanitize_context_t, symObjAddr: 0x239C, symBinAddr: 0x3D8C4, symSize: 0x9C }
  - { offsetInCU: 0x36F2E, offset: 0x2EAD1D, size: 0x8, addend: 0x0, symName: __ZNK2OT7ArrayOfINS_10NoVariableINS_9ColorStopEEENS_7IntTypeItLj2EEEE16sanitize_shallowEP21hb_sanitize_context_t, symObjAddr: 0x239C, symBinAddr: 0x3D8C4, symSize: 0x9C }
  - { offsetInCU: 0x36F53, offset: 0x2EAD42, size: 0x8, addend: 0x0, symName: __ZNK2OT7ArrayOfINS_10NoVariableINS_9ColorStopEEENS_7IntTypeItLj2EEEE16sanitize_shallowEP21hb_sanitize_context_t, symObjAddr: 0x239C, symBinAddr: 0x3D8C4, symSize: 0x9C }
  - { offsetInCU: 0x37187, offset: 0x2EAF76, size: 0x8, addend: 0x0, symName: __ZNK2OT19PaintLinearGradientINS_8VariableEE8sanitizeEP21hb_sanitize_context_t, symObjAddr: 0x2478, symBinAddr: 0x3D9A0, symSize: 0x4C }
  - { offsetInCU: 0x371CC, offset: 0x2EAFBB, size: 0x8, addend: 0x0, symName: __ZNK2OT19PaintLinearGradientINS_8VariableEE8sanitizeEP21hb_sanitize_context_t, symObjAddr: 0x2478, symBinAddr: 0x3D9A0, symSize: 0x4C }
  - { offsetInCU: 0x371F4, offset: 0x2EAFE3, size: 0x8, addend: 0x0, symName: __ZNK2OT19PaintLinearGradientINS_8VariableEE8sanitizeEP21hb_sanitize_context_t, symObjAddr: 0x2478, symBinAddr: 0x3D9A0, symSize: 0x4C }
  - { offsetInCU: 0x3726C, offset: 0x2EB05B, size: 0x8, addend: 0x0, symName: __ZNK2OT8OffsetToINS_9ColorLineINS_8VariableEEENS_7IntTypeIjLj3EEELb1EE8sanitizeIJEEEbP21hb_sanitize_context_tPKvDpOT_, symObjAddr: 0x24C4, symBinAddr: 0x3D9EC, symSize: 0xB0 }
  - { offsetInCU: 0x376AB, offset: 0x2EB49A, size: 0x8, addend: 0x0, symName: __ZNK2OT9ColorLineINS_8VariableEE8sanitizeEP21hb_sanitize_context_t, symObjAddr: 0x2574, symBinAddr: 0x3DA9C, symSize: 0x44 }
  - { offsetInCU: 0x376F0, offset: 0x2EB4DF, size: 0x8, addend: 0x0, symName: __ZNK2OT9ColorLineINS_8VariableEE8sanitizeEP21hb_sanitize_context_t, symObjAddr: 0x2574, symBinAddr: 0x3DA9C, symSize: 0x44 }
  - { offsetInCU: 0x37716, offset: 0x2EB505, size: 0x8, addend: 0x0, symName: __ZNK2OT9ColorLineINS_8VariableEE8sanitizeEP21hb_sanitize_context_t, symObjAddr: 0x2574, symBinAddr: 0x3DA9C, symSize: 0x44 }
  - { offsetInCU: 0x377E8, offset: 0x2EB5D7, size: 0x8, addend: 0x0, symName: __ZNK2OT7ArrayOfINS_8VariableINS_9ColorStopEEENS_7IntTypeItLj2EEEE16sanitize_shallowEP21hb_sanitize_context_t, symObjAddr: 0x25B8, symBinAddr: 0x3DAE0, symSize: 0x9C }
  - { offsetInCU: 0x3782D, offset: 0x2EB61C, size: 0x8, addend: 0x0, symName: __ZNK2OT7ArrayOfINS_8VariableINS_9ColorStopEEENS_7IntTypeItLj2EEEE16sanitize_shallowEP21hb_sanitize_context_t, symObjAddr: 0x25B8, symBinAddr: 0x3DAE0, symSize: 0x9C }
  - { offsetInCU: 0x37853, offset: 0x2EB642, size: 0x8, addend: 0x0, symName: __ZNK2OT7ArrayOfINS_8VariableINS_9ColorStopEEENS_7IntTypeItLj2EEEE16sanitize_shallowEP21hb_sanitize_context_t, symObjAddr: 0x25B8, symBinAddr: 0x3DAE0, symSize: 0x9C }
  - { offsetInCU: 0x37878, offset: 0x2EB667, size: 0x8, addend: 0x0, symName: __ZNK2OT7ArrayOfINS_8VariableINS_9ColorStopEEENS_7IntTypeItLj2EEEE16sanitize_shallowEP21hb_sanitize_context_t, symObjAddr: 0x25B8, symBinAddr: 0x3DAE0, symSize: 0x9C }
  - { offsetInCU: 0x37A83, offset: 0x2EB872, size: 0x8, addend: 0x0, symName: __ZNK2OT19PaintRadialGradientINS_8VariableEE8sanitizeEP21hb_sanitize_context_t, symObjAddr: 0x26E0, symBinAddr: 0x3DC08, symSize: 0x4C }
  - { offsetInCU: 0x37AC8, offset: 0x2EB8B7, size: 0x8, addend: 0x0, symName: __ZNK2OT19PaintRadialGradientINS_8VariableEE8sanitizeEP21hb_sanitize_context_t, symObjAddr: 0x26E0, symBinAddr: 0x3DC08, symSize: 0x4C }
  - { offsetInCU: 0x37AF0, offset: 0x2EB8DF, size: 0x8, addend: 0x0, symName: __ZNK2OT19PaintRadialGradientINS_8VariableEE8sanitizeEP21hb_sanitize_context_t, symObjAddr: 0x26E0, symBinAddr: 0x3DC08, symSize: 0x4C }
  - { offsetInCU: 0x37BCD, offset: 0x2EB9BC, size: 0x8, addend: 0x0, symName: __ZNK2OT18PaintSweepGradientINS_8VariableEE8sanitizeEP21hb_sanitize_context_t, symObjAddr: 0x27B8, symBinAddr: 0x3DCE0, symSize: 0x48 }
  - { offsetInCU: 0x37C12, offset: 0x2EBA01, size: 0x8, addend: 0x0, symName: __ZNK2OT18PaintSweepGradientINS_8VariableEE8sanitizeEP21hb_sanitize_context_t, symObjAddr: 0x27B8, symBinAddr: 0x3DCE0, symSize: 0x48 }
  - { offsetInCU: 0x37C3A, offset: 0x2EBA29, size: 0x8, addend: 0x0, symName: __ZNK2OT18PaintSweepGradientINS_8VariableEE8sanitizeEP21hb_sanitize_context_t, symObjAddr: 0x27B8, symBinAddr: 0x3DCE0, symSize: 0x48 }
  - { offsetInCU: 0x37CE4, offset: 0x2EBAD3, size: 0x8, addend: 0x0, symName: __ZNK2OT8OffsetToINS_5PaintENS_7IntTypeIjLj3EEELb1EE8sanitizeIJEEEbP21hb_sanitize_context_tPKvDpOT_, symObjAddr: 0x2848, symBinAddr: 0x3DD70, symSize: 0xB0 }
  - { offsetInCU: 0x380B5, offset: 0x2EBEA4, size: 0x8, addend: 0x0, symName: __ZNK2OT8OffsetToINS_10NoVariableINS_9Affine2x3EEENS_7IntTypeIjLj3EEELb1EE8sanitizeIJEEEbP21hb_sanitize_context_tPKvDpOT_, symObjAddr: 0x297C, symBinAddr: 0x3DEA4, symSize: 0xC0 }
  - { offsetInCU: 0x38109, offset: 0x2EBEF8, size: 0x8, addend: 0x0, symName: __ZNK2OT8OffsetToINS_10NoVariableINS_9Affine2x3EEENS_7IntTypeIjLj3EEELb1EE8sanitizeIJEEEbP21hb_sanitize_context_tPKvDpOT_, symObjAddr: 0x297C, symBinAddr: 0x3DEA4, symSize: 0xC0 }
  - { offsetInCU: 0x38137, offset: 0x2EBF26, size: 0x8, addend: 0x0, symName: __ZNK2OT8OffsetToINS_10NoVariableINS_9Affine2x3EEENS_7IntTypeIjLj3EEELb1EE8sanitizeIJEEEbP21hb_sanitize_context_tPKvDpOT_, symObjAddr: 0x297C, symBinAddr: 0x3DEA4, symSize: 0xC0 }
  - { offsetInCU: 0x3815D, offset: 0x2EBF4C, size: 0x8, addend: 0x0, symName: __ZNK2OT8OffsetToINS_10NoVariableINS_9Affine2x3EEENS_7IntTypeIjLj3EEELb1EE8sanitizeIJEEEbP21hb_sanitize_context_tPKvDpOT_, symObjAddr: 0x297C, symBinAddr: 0x3DEA4, symSize: 0xC0 }
  - { offsetInCU: 0x3869F, offset: 0x2EC48E, size: 0x8, addend: 0x0, symName: __ZNK2OT8OffsetToINS_8VariableINS_9Affine2x3EEENS_7IntTypeIjLj3EEELb1EE8sanitizeIJEEEbP21hb_sanitize_context_tPKvDpOT_, symObjAddr: 0x2AC0, symBinAddr: 0x3DFE8, symSize: 0xC0 }
  - { offsetInCU: 0x386F3, offset: 0x2EC4E2, size: 0x8, addend: 0x0, symName: __ZNK2OT8OffsetToINS_8VariableINS_9Affine2x3EEENS_7IntTypeIjLj3EEELb1EE8sanitizeIJEEEbP21hb_sanitize_context_tPKvDpOT_, symObjAddr: 0x2AC0, symBinAddr: 0x3DFE8, symSize: 0xC0 }
  - { offsetInCU: 0x38721, offset: 0x2EC510, size: 0x8, addend: 0x0, symName: __ZNK2OT8OffsetToINS_8VariableINS_9Affine2x3EEENS_7IntTypeIjLj3EEELb1EE8sanitizeIJEEEbP21hb_sanitize_context_tPKvDpOT_, symObjAddr: 0x2AC0, symBinAddr: 0x3DFE8, symSize: 0xC0 }
  - { offsetInCU: 0x38747, offset: 0x2EC536, size: 0x8, addend: 0x0, symName: __ZNK2OT8OffsetToINS_8VariableINS_9Affine2x3EEENS_7IntTypeIjLj3EEELb1EE8sanitizeIJEEEbP21hb_sanitize_context_tPKvDpOT_, symObjAddr: 0x2AC0, symBinAddr: 0x3DFE8, symSize: 0xC0 }
  - { offsetInCU: 0x3903D, offset: 0x2ECE2C, size: 0x8, addend: 0x0, symName: __ZNK2OT7ArrayOfINS_8OffsetToINS_5PaintENS_7IntTypeIjLj4EEELb1EEES4_E16sanitize_shallowEP21hb_sanitize_context_t, symObjAddr: 0x3158, symBinAddr: 0x3E680, symSize: 0xB0 }
  - { offsetInCU: 0x39082, offset: 0x2ECE71, size: 0x8, addend: 0x0, symName: __ZNK2OT7ArrayOfINS_8OffsetToINS_5PaintENS_7IntTypeIjLj4EEELb1EEES4_E16sanitize_shallowEP21hb_sanitize_context_t, symObjAddr: 0x3158, symBinAddr: 0x3E680, symSize: 0xB0 }
  - { offsetInCU: 0x390A8, offset: 0x2ECE97, size: 0x8, addend: 0x0, symName: __ZNK2OT7ArrayOfINS_8OffsetToINS_5PaintENS_7IntTypeIjLj4EEELb1EEES4_E16sanitize_shallowEP21hb_sanitize_context_t, symObjAddr: 0x3158, symBinAddr: 0x3E680, symSize: 0xB0 }
  - { offsetInCU: 0x390CD, offset: 0x2ECEBC, size: 0x8, addend: 0x0, symName: __ZNK2OT7ArrayOfINS_8OffsetToINS_5PaintENS_7IntTypeIjLj4EEELb1EEES4_E16sanitize_shallowEP21hb_sanitize_context_t, symObjAddr: 0x3158, symBinAddr: 0x3E680, symSize: 0xB0 }
  - { offsetInCU: 0x392A2, offset: 0x2ED091, size: 0x8, addend: 0x0, symName: __ZNK2OT7ArrayOfINS_10ClipRecordENS_7IntTypeIjLj4EEEE8sanitizeIJPKNS_8ClipListEEEEbP21hb_sanitize_context_tDpOT_, symObjAddr: 0x3270, symBinAddr: 0x3E798, symSize: 0x74 }
  - { offsetInCU: 0x3949B, offset: 0x2ED28A, size: 0x8, addend: 0x0, symName: __ZNK2OT7ArrayOfINS_10ClipRecordENS_7IntTypeIjLj4EEEE16sanitize_shallowEP21hb_sanitize_context_t, symObjAddr: 0x32E4, symBinAddr: 0x3E80C, symSize: 0x9C }
  - { offsetInCU: 0x394E0, offset: 0x2ED2CF, size: 0x8, addend: 0x0, symName: __ZNK2OT7ArrayOfINS_10ClipRecordENS_7IntTypeIjLj4EEEE16sanitize_shallowEP21hb_sanitize_context_t, symObjAddr: 0x32E4, symBinAddr: 0x3E80C, symSize: 0x9C }
  - { offsetInCU: 0x39506, offset: 0x2ED2F5, size: 0x8, addend: 0x0, symName: __ZNK2OT7ArrayOfINS_10ClipRecordENS_7IntTypeIjLj4EEEE16sanitize_shallowEP21hb_sanitize_context_t, symObjAddr: 0x32E4, symBinAddr: 0x3E80C, symSize: 0x9C }
  - { offsetInCU: 0x3952B, offset: 0x2ED31A, size: 0x8, addend: 0x0, symName: __ZNK2OT7ArrayOfINS_10ClipRecordENS_7IntTypeIjLj4EEEE16sanitize_shallowEP21hb_sanitize_context_t, symObjAddr: 0x32E4, symBinAddr: 0x3E80C, symSize: 0x9C }
  - { offsetInCU: 0x3966F, offset: 0x2ED45E, size: 0x8, addend: 0x0, symName: __ZNK2OT10ClipRecord8sanitizeEP21hb_sanitize_context_tPKv, symObjAddr: 0x3380, symBinAddr: 0x3E8A8, symSize: 0x44 }
  - { offsetInCU: 0x396C3, offset: 0x2ED4B2, size: 0x8, addend: 0x0, symName: __ZNK2OT10ClipRecord8sanitizeEP21hb_sanitize_context_tPKv, symObjAddr: 0x3380, symBinAddr: 0x3E8A8, symSize: 0x44 }
  - { offsetInCU: 0x396E9, offset: 0x2ED4D8, size: 0x8, addend: 0x0, symName: __ZNK2OT10ClipRecord8sanitizeEP21hb_sanitize_context_tPKv, symObjAddr: 0x3380, symBinAddr: 0x3E8A8, symSize: 0x44 }
  - { offsetInCU: 0x397E3, offset: 0x2ED5D2, size: 0x8, addend: 0x0, symName: __ZNK2OT8OffsetToINS_7ClipBoxENS_7IntTypeIjLj3EEELb1EE8sanitizeIJEEEbP21hb_sanitize_context_tPKvDpOT_, symObjAddr: 0x33C4, symBinAddr: 0x3E8EC, symSize: 0xB0 }
  - { offsetInCU: 0x39C22, offset: 0x2EDA11, size: 0x8, addend: 0x0, symName: __ZNK2OT7ClipBox8dispatchI21hb_sanitize_context_tJEEENT_8return_tEPS3_DpOT0_, symObjAddr: 0x3474, symBinAddr: 0x3E99C, symSize: 0x98 }
  - { offsetInCU: 0x39C67, offset: 0x2EDA56, size: 0x8, addend: 0x0, symName: __ZNK2OT7ClipBox8dispatchI21hb_sanitize_context_tJEEENT_8return_tEPS3_DpOT0_, symObjAddr: 0x3474, symBinAddr: 0x3E99C, symSize: 0x98 }
  - { offsetInCU: 0x39C95, offset: 0x2EDA84, size: 0x8, addend: 0x0, symName: __ZNK2OT7ClipBox8dispatchI21hb_sanitize_context_tJEEENT_8return_tEPS3_DpOT0_, symObjAddr: 0x3474, symBinAddr: 0x3E99C, symSize: 0x98 }
  - { offsetInCU: 0x39CBA, offset: 0x2EDAA9, size: 0x8, addend: 0x0, symName: __ZNK2OT7ClipBox8dispatchI21hb_sanitize_context_tJEEENT_8return_tEPS3_DpOT0_, symObjAddr: 0x3474, symBinAddr: 0x3E99C, symSize: 0x98 }
  - { offsetInCU: 0x39CDF, offset: 0x2EDACE, size: 0x8, addend: 0x0, symName: __ZNK2OT7ClipBox8dispatchI21hb_sanitize_context_tJEEENT_8return_tEPS3_DpOT0_, symObjAddr: 0x3474, symBinAddr: 0x3E99C, symSize: 0x98 }
  - { offsetInCU: 0x3B3CF, offset: 0x2EF1BE, size: 0x8, addend: 0x0, symName: __ZN16hb_lazy_loader_tIN2OT17SVG_accelerator_tE21hb_face_lazy_loader_tIS1_Lj38EE9hb_face_tLj38ES1_E6createEPS4_, symObjAddr: 0x3C8C, symBinAddr: 0x3EADC, symSize: 0x78 }
  - { offsetInCU: 0x3B53A, offset: 0x2EF329, size: 0x8, addend: 0x0, symName: __ZN16hb_lazy_loader_tIN2OT17SVG_accelerator_tE21hb_face_lazy_loader_tIS1_Lj38EE9hb_face_tLj38ES1_E10do_destroyEPS1_, symObjAddr: 0x3C60, symBinAddr: 0x3EAB0, symSize: 0x2C }
  - { offsetInCU: 0x3B613, offset: 0x2EF402, size: 0x8, addend: 0x0, symName: __ZN2OT3SVG13accelerator_tD2Ev, symObjAddr: 0x3FC0, symBinAddr: 0x3EE10, symSize: 0x30 }
  - { offsetInCU: 0x3B771, offset: 0x2EF560, size: 0x8, addend: 0x0, symName: __ZN21hb_sanitize_context_t15reference_tableIN2OT3SVGEEEP9hb_blob_tPK9hb_face_tj, symObjAddr: 0x3D04, symBinAddr: 0x3EB54, symSize: 0x5C }
  - { offsetInCU: 0x3B834, offset: 0x2EF623, size: 0x8, addend: 0x0, symName: __ZN21hb_sanitize_context_t13sanitize_blobIN2OT3SVGEEEP9hb_blob_tS4_, symObjAddr: 0x3D60, symBinAddr: 0x3EBB0, symSize: 0x168 }
  - { offsetInCU: 0x3BA4A, offset: 0x2EF839, size: 0x8, addend: 0x0, symName: __ZNK2OT3SVG8sanitizeEP21hb_sanitize_context_t, symObjAddr: 0x3EC8, symBinAddr: 0x3ED18, symSize: 0x5C }
  - { offsetInCU: 0x3BA8D, offset: 0x2EF87C, size: 0x8, addend: 0x0, symName: __ZNK2OT3SVG8sanitizeEP21hb_sanitize_context_t, symObjAddr: 0x3EC8, symBinAddr: 0x3ED18, symSize: 0x5C }
  - { offsetInCU: 0x3BAB2, offset: 0x2EF8A1, size: 0x8, addend: 0x0, symName: __ZNK2OT3SVG8sanitizeEP21hb_sanitize_context_t, symObjAddr: 0x3EC8, symBinAddr: 0x3ED18, symSize: 0x5C }
  - { offsetInCU: 0x3BBCC, offset: 0x2EF9BB, size: 0x8, addend: 0x0, symName: __ZNK2OT7ArrayOfINS_21SVGDocumentIndexEntryENS_7IntTypeItLj2EEEE16sanitize_shallowEP21hb_sanitize_context_t, symObjAddr: 0x3F24, symBinAddr: 0x3ED74, symSize: 0x9C }
  - { offsetInCU: 0x3BC11, offset: 0x2EFA00, size: 0x8, addend: 0x0, symName: __ZNK2OT7ArrayOfINS_21SVGDocumentIndexEntryENS_7IntTypeItLj2EEEE16sanitize_shallowEP21hb_sanitize_context_t, symObjAddr: 0x3F24, symBinAddr: 0x3ED74, symSize: 0x9C }
  - { offsetInCU: 0x3BC37, offset: 0x2EFA26, size: 0x8, addend: 0x0, symName: __ZNK2OT7ArrayOfINS_21SVGDocumentIndexEntryENS_7IntTypeItLj2EEEE16sanitize_shallowEP21hb_sanitize_context_t, symObjAddr: 0x3F24, symBinAddr: 0x3ED74, symSize: 0x9C }
  - { offsetInCU: 0x3BC5C, offset: 0x2EFA4B, size: 0x8, addend: 0x0, symName: __ZNK2OT7ArrayOfINS_21SVGDocumentIndexEntryENS_7IntTypeItLj2EEEE16sanitize_shallowEP21hb_sanitize_context_t, symObjAddr: 0x3F24, symBinAddr: 0x3ED74, symSize: 0x9C }
  - { offsetInCU: 0x3BEEB, offset: 0x2EFCDA, size: 0x8, addend: 0x0, symName: __ZN16hb_lazy_loader_tIN2OT18CBDT_accelerator_tE21hb_face_lazy_loader_tIS1_Lj36EE9hb_face_tLj36ES1_E6createEPS4_, symObjAddr: 0x40A4, symBinAddr: 0x3EEE8, symSize: 0x34 }
  - { offsetInCU: 0x3BF84, offset: 0x2EFD73, size: 0x8, addend: 0x0, symName: __ZN16hb_lazy_loader_tIN2OT18CBDT_accelerator_tE21hb_face_lazy_loader_tIS1_Lj36EE9hb_face_tLj36ES1_E10do_destroyEPS1_, symObjAddr: 0x4078, symBinAddr: 0x3EEBC, symSize: 0x2C }
  - { offsetInCU: 0x3C060, offset: 0x2EFE4F, size: 0x8, addend: 0x0, symName: __ZN2OT4CBDT13accelerator_tD2Ev, symObjAddr: 0x4BF0, symBinAddr: 0x3FA34, symSize: 0x3C }
  - { offsetInCU: 0x3C1B5, offset: 0x2EFFA4, size: 0x8, addend: 0x0, symName: __ZN2OT4CBDT13accelerator_tC2EP9hb_face_t, symObjAddr: 0x40D8, symBinAddr: 0x3EF1C, symSize: 0xB8 }
  - { offsetInCU: 0x3C508, offset: 0x2F02F7, size: 0x8, addend: 0x0, symName: __ZN21hb_sanitize_context_t15reference_tableIN2OT4CBLCEEEP9hb_blob_tPK9hb_face_tj, symObjAddr: 0x4190, symBinAddr: 0x3EFD4, symSize: 0x5C }
  - { offsetInCU: 0x3C5CB, offset: 0x2F03BA, size: 0x8, addend: 0x0, symName: __ZN21hb_sanitize_context_t15reference_tableIN2OT4CBDTEEEP9hb_blob_tPK9hb_face_tj, symObjAddr: 0x41EC, symBinAddr: 0x3F030, symSize: 0x5C }
  - { offsetInCU: 0x3C6A0, offset: 0x2F048F, size: 0x8, addend: 0x0, symName: __ZN21hb_sanitize_context_t13sanitize_blobIN2OT4CBLCEEEP9hb_blob_tS4_, symObjAddr: 0x4248, symBinAddr: 0x3F08C, symSize: 0x168 }
  - { offsetInCU: 0x3C8B5, offset: 0x2F06A4, size: 0x8, addend: 0x0, symName: __ZN21hb_sanitize_context_t13sanitize_blobIN2OT4CBDTEEEP9hb_blob_tS4_, symObjAddr: 0x4A2C, symBinAddr: 0x3F870, symSize: 0x168 }
  - { offsetInCU: 0x3CACA, offset: 0x2F08B9, size: 0x8, addend: 0x0, symName: __ZNK2OT4CBLC8sanitizeEP21hb_sanitize_context_t, symObjAddr: 0x43B0, symBinAddr: 0x3F1F4, symSize: 0x84 }
  - { offsetInCU: 0x3CBF2, offset: 0x2F09E1, size: 0x8, addend: 0x0, symName: __ZNK2OT7ArrayOfINS_15BitmapSizeTableENS_7IntTypeIjLj4EEEE8sanitizeIJPKNS_4CBLCEEEEbP21hb_sanitize_context_tDpOT_, symObjAddr: 0x4434, symBinAddr: 0x3F278, symSize: 0x74 }
  - { offsetInCU: 0x3CDEB, offset: 0x2F0BDA, size: 0x8, addend: 0x0, symName: __ZNK2OT7ArrayOfINS_15BitmapSizeTableENS_7IntTypeIjLj4EEEE16sanitize_shallowEP21hb_sanitize_context_t, symObjAddr: 0x44A8, symBinAddr: 0x3F2EC, symSize: 0x9C }
  - { offsetInCU: 0x3CE30, offset: 0x2F0C1F, size: 0x8, addend: 0x0, symName: __ZNK2OT7ArrayOfINS_15BitmapSizeTableENS_7IntTypeIjLj4EEEE16sanitize_shallowEP21hb_sanitize_context_t, symObjAddr: 0x44A8, symBinAddr: 0x3F2EC, symSize: 0x9C }
  - { offsetInCU: 0x3CE56, offset: 0x2F0C45, size: 0x8, addend: 0x0, symName: __ZNK2OT7ArrayOfINS_15BitmapSizeTableENS_7IntTypeIjLj4EEEE16sanitize_shallowEP21hb_sanitize_context_t, symObjAddr: 0x44A8, symBinAddr: 0x3F2EC, symSize: 0x9C }
  - { offsetInCU: 0x3CE7B, offset: 0x2F0C6A, size: 0x8, addend: 0x0, symName: __ZNK2OT7ArrayOfINS_15BitmapSizeTableENS_7IntTypeIjLj4EEEE16sanitize_shallowEP21hb_sanitize_context_t, symObjAddr: 0x44A8, symBinAddr: 0x3F2EC, symSize: 0x9C }
  - { offsetInCU: 0x3CFBE, offset: 0x2F0DAD, size: 0x8, addend: 0x0, symName: __ZNK2OT15BitmapSizeTable8sanitizeEP21hb_sanitize_context_tPKv, symObjAddr: 0x4544, symBinAddr: 0x3F388, symSize: 0xEC }
  - { offsetInCU: 0x3D2B8, offset: 0x2F10A7, size: 0x8, addend: 0x0, symName: __ZNK2OT8OffsetToINS_18IndexSubtableArrayENS_7IntTypeIjLj4EEELb0EE8sanitizeIJRKS3_EEEbP21hb_sanitize_context_tPKvDpOT_, symObjAddr: 0x4630, symBinAddr: 0x3F474, symSize: 0x78 }
  - { offsetInCU: 0x3D676, offset: 0x2F1465, size: 0x8, addend: 0x0, symName: __ZNK2OT14UnsizedArrayOfINS_19IndexSubtableRecordEE8sanitizeIJPKNS_18IndexSubtableArrayEEEEbP21hb_sanitize_context_tjDpOT_, symObjAddr: 0x46A8, symBinAddr: 0x3F4EC, symSize: 0xB0 }
  - { offsetInCU: 0x3D9BD, offset: 0x2F17AC, size: 0x8, addend: 0x0, symName: __ZNK2OT19IndexSubtableRecord8sanitizeEP21hb_sanitize_context_tPKv, symObjAddr: 0x4758, symBinAddr: 0x3F59C, symSize: 0x8C }
  - { offsetInCU: 0x3DB31, offset: 0x2F1920, size: 0x8, addend: 0x0, symName: __ZNK2OT8OffsetToINS_13IndexSubtableENS_7IntTypeIjLj4EEELb1EE8sanitizeIJjEEEbP21hb_sanitize_context_tPKvDpOT_, symObjAddr: 0x47E4, symBinAddr: 0x3F628, symSize: 0xA4 }
  - { offsetInCU: 0x3DFB9, offset: 0x2F1DA8, size: 0x8, addend: 0x0, symName: __ZNK2OT13IndexSubtable8sanitizeEP21hb_sanitize_context_tj, symObjAddr: 0x4888, symBinAddr: 0x3F6CC, symSize: 0x68 }
  - { offsetInCU: 0x3E00A, offset: 0x2F1DF9, size: 0x8, addend: 0x0, symName: __ZNK2OT13IndexSubtable8sanitizeEP21hb_sanitize_context_tj, symObjAddr: 0x4888, symBinAddr: 0x3F6CC, symSize: 0x68 }
  - { offsetInCU: 0x3E02F, offset: 0x2F1E1E, size: 0x8, addend: 0x0, symName: __ZNK2OT13IndexSubtable8sanitizeEP21hb_sanitize_context_tj, symObjAddr: 0x4888, symBinAddr: 0x3F6CC, symSize: 0x68 }
  - { offsetInCU: 0x3E054, offset: 0x2F1E43, size: 0x8, addend: 0x0, symName: __ZNK2OT13IndexSubtable8sanitizeEP21hb_sanitize_context_tj, symObjAddr: 0x4888, symBinAddr: 0x3F6CC, symSize: 0x68 }
  - { offsetInCU: 0x3E13D, offset: 0x2F1F2C, size: 0x8, addend: 0x0, symName: __ZNK2OT23IndexSubtableFormat1Or3INS_7IntTypeIjLj4EEEE8sanitizeEP21hb_sanitize_context_tj, symObjAddr: 0x48F0, symBinAddr: 0x3F734, symSize: 0x4C }
  - { offsetInCU: 0x3E190, offset: 0x2F1F7F, size: 0x8, addend: 0x0, symName: __ZNK2OT23IndexSubtableFormat1Or3INS_7IntTypeIjLj4EEEE8sanitizeEP21hb_sanitize_context_tj, symObjAddr: 0x48F0, symBinAddr: 0x3F734, symSize: 0x4C }
  - { offsetInCU: 0x3E1B5, offset: 0x2F1FA4, size: 0x8, addend: 0x0, symName: __ZNK2OT23IndexSubtableFormat1Or3INS_7IntTypeIjLj4EEEE8sanitizeEP21hb_sanitize_context_tj, symObjAddr: 0x48F0, symBinAddr: 0x3F734, symSize: 0x4C }
  - { offsetInCU: 0x3E1F8, offset: 0x2F1FE7, size: 0x8, addend: 0x0, symName: __ZNK2OT23IndexSubtableFormat1Or3INS_7IntTypeItLj2EEEE8sanitizeEP21hb_sanitize_context_tj, symObjAddr: 0x493C, symBinAddr: 0x3F780, symSize: 0x4C }
  - { offsetInCU: 0x3E24B, offset: 0x2F203A, size: 0x8, addend: 0x0, symName: __ZNK2OT23IndexSubtableFormat1Or3INS_7IntTypeItLj2EEEE8sanitizeEP21hb_sanitize_context_tj, symObjAddr: 0x493C, symBinAddr: 0x3F780, symSize: 0x4C }
  - { offsetInCU: 0x3E270, offset: 0x2F205F, size: 0x8, addend: 0x0, symName: __ZNK2OT23IndexSubtableFormat1Or3INS_7IntTypeItLj2EEEE8sanitizeEP21hb_sanitize_context_tj, symObjAddr: 0x493C, symBinAddr: 0x3F780, symSize: 0x4C }
  - { offsetInCU: 0x3E2E5, offset: 0x2F20D4, size: 0x8, addend: 0x0, symName: __ZNK2OT14UnsizedArrayOfINS_6OffsetINS_7IntTypeIjLj4EEELb1EEEE8sanitizeIJEEEbP21hb_sanitize_context_tjDpOT_, symObjAddr: 0x4988, symBinAddr: 0x3F7CC, symSize: 0x54 }
  - { offsetInCU: 0x3E339, offset: 0x2F2128, size: 0x8, addend: 0x0, symName: __ZNK2OT14UnsizedArrayOfINS_6OffsetINS_7IntTypeIjLj4EEELb1EEEE8sanitizeIJEEEbP21hb_sanitize_context_tjDpOT_, symObjAddr: 0x4988, symBinAddr: 0x3F7CC, symSize: 0x54 }
  - { offsetInCU: 0x3E367, offset: 0x2F2156, size: 0x8, addend: 0x0, symName: __ZNK2OT14UnsizedArrayOfINS_6OffsetINS_7IntTypeIjLj4EEELb1EEEE8sanitizeIJEEEbP21hb_sanitize_context_tjDpOT_, symObjAddr: 0x4988, symBinAddr: 0x3F7CC, symSize: 0x54 }
  - { offsetInCU: 0x3E395, offset: 0x2F2184, size: 0x8, addend: 0x0, symName: __ZNK2OT14UnsizedArrayOfINS_6OffsetINS_7IntTypeIjLj4EEELb1EEEE8sanitizeIJEEEbP21hb_sanitize_context_tjDpOT_, symObjAddr: 0x4988, symBinAddr: 0x3F7CC, symSize: 0x54 }
  - { offsetInCU: 0x3E446, offset: 0x2F2235, size: 0x8, addend: 0x0, symName: __ZNK2OT14UnsizedArrayOfINS_6OffsetINS_7IntTypeItLj2EEELb1EEEE8sanitizeIJEEEbP21hb_sanitize_context_tjDpOT_, symObjAddr: 0x49DC, symBinAddr: 0x3F820, symSize: 0x50 }
  - { offsetInCU: 0x3E49A, offset: 0x2F2289, size: 0x8, addend: 0x0, symName: __ZNK2OT14UnsizedArrayOfINS_6OffsetINS_7IntTypeItLj2EEELb1EEEE8sanitizeIJEEEbP21hb_sanitize_context_tjDpOT_, symObjAddr: 0x49DC, symBinAddr: 0x3F820, symSize: 0x50 }
  - { offsetInCU: 0x3E4C8, offset: 0x2F22B7, size: 0x8, addend: 0x0, symName: __ZNK2OT14UnsizedArrayOfINS_6OffsetINS_7IntTypeItLj2EEELb1EEEE8sanitizeIJEEEbP21hb_sanitize_context_tjDpOT_, symObjAddr: 0x49DC, symBinAddr: 0x3F820, symSize: 0x50 }
  - { offsetInCU: 0x3E4F6, offset: 0x2F22E5, size: 0x8, addend: 0x0, symName: __ZNK2OT14UnsizedArrayOfINS_6OffsetINS_7IntTypeItLj2EEELb1EEEE8sanitizeIJEEEbP21hb_sanitize_context_tjDpOT_, symObjAddr: 0x49DC, symBinAddr: 0x3F820, symSize: 0x50 }
  - { offsetInCU: 0x3E705, offset: 0x2F24F4, size: 0x8, addend: 0x0, symName: __ZNK2OT4CBDT8sanitizeEP21hb_sanitize_context_t, symObjAddr: 0x4B94, symBinAddr: 0x3F9D8, symSize: 0x5C }
  - { offsetInCU: 0x3E74A, offset: 0x2F2539, size: 0x8, addend: 0x0, symName: __ZNK2OT4CBDT8sanitizeEP21hb_sanitize_context_t, symObjAddr: 0x4B94, symBinAddr: 0x3F9D8, symSize: 0x5C }
  - { offsetInCU: 0x3E770, offset: 0x2F255F, size: 0x8, addend: 0x0, symName: __ZNK2OT4CBDT8sanitizeEP21hb_sanitize_context_t, symObjAddr: 0x4B94, symBinAddr: 0x3F9D8, symSize: 0x5C }
  - { offsetInCU: 0x3E90D, offset: 0x2F26FC, size: 0x8, addend: 0x0, symName: __ZN16hb_lazy_loader_tIN2OT18sbix_accelerator_tE21hb_face_lazy_loader_tIS1_Lj37EE9hb_face_tLj37ES1_E6createEPS4_, symObjAddr: 0x4CD4, symBinAddr: 0x3FB18, symSize: 0x34 }
  - { offsetInCU: 0x3E9A6, offset: 0x2F2795, size: 0x8, addend: 0x0, symName: __ZN16hb_lazy_loader_tIN2OT18sbix_accelerator_tE21hb_face_lazy_loader_tIS1_Lj37EE9hb_face_tLj37ES1_E10do_destroyEPS1_, symObjAddr: 0x4CA8, symBinAddr: 0x3FAEC, symSize: 0x2C }
  - { offsetInCU: 0x3EA82, offset: 0x2F2871, size: 0x8, addend: 0x0, symName: __ZN2OT4sbix13accelerator_tD2Ev, symObjAddr: 0x5224, symBinAddr: 0x40068, symSize: 0x30 }
  - { offsetInCU: 0x3EB6A, offset: 0x2F2959, size: 0x8, addend: 0x0, symName: __ZN2OT4sbix13accelerator_tC2EP9hb_face_t, symObjAddr: 0x4D08, symBinAddr: 0x3FB4C, symSize: 0x84 }
  - { offsetInCU: 0x3EE29, offset: 0x2F2C18, size: 0x8, addend: 0x0, symName: __ZN21hb_sanitize_context_t15reference_tableIN2OT4sbixEEEP9hb_blob_tPK9hb_face_tj, symObjAddr: 0x4D8C, symBinAddr: 0x3FBD0, symSize: 0x5C }
  - { offsetInCU: 0x3EEEC, offset: 0x2F2CDB, size: 0x8, addend: 0x0, symName: __ZN21hb_sanitize_context_t13sanitize_blobIN2OT4sbixEEEP9hb_blob_tS4_, symObjAddr: 0x4DE8, symBinAddr: 0x3FC2C, symSize: 0x168 }
  - { offsetInCU: 0x3F101, offset: 0x2F2EF0, size: 0x8, addend: 0x0, symName: __ZNK2OT4sbix8sanitizeEP21hb_sanitize_context_t, symObjAddr: 0x4F50, symBinAddr: 0x3FD94, symSize: 0x78 }
  - { offsetInCU: 0x3F229, offset: 0x2F3018, size: 0x8, addend: 0x0, symName: __ZNK2OT7ArrayOfINS_8OffsetToINS_10SBIXStrikeENS_7IntTypeIjLj4EEELb1EEES4_E8sanitizeIJPKNS_4sbixEEEEbP21hb_sanitize_context_tDpOT_, symObjAddr: 0x4FC8, symBinAddr: 0x3FE0C, symSize: 0x74 }
  - { offsetInCU: 0x3F422, offset: 0x2F3211, size: 0x8, addend: 0x0, symName: __ZNK2OT7ArrayOfINS_8OffsetToINS_10SBIXStrikeENS_7IntTypeIjLj4EEELb1EEES4_E16sanitize_shallowEP21hb_sanitize_context_t, symObjAddr: 0x503C, symBinAddr: 0x3FE80, symSize: 0xB0 }
  - { offsetInCU: 0x3F467, offset: 0x2F3256, size: 0x8, addend: 0x0, symName: __ZNK2OT7ArrayOfINS_8OffsetToINS_10SBIXStrikeENS_7IntTypeIjLj4EEELb1EEES4_E16sanitize_shallowEP21hb_sanitize_context_t, symObjAddr: 0x503C, symBinAddr: 0x3FE80, symSize: 0xB0 }
  - { offsetInCU: 0x3F48D, offset: 0x2F327C, size: 0x8, addend: 0x0, symName: __ZNK2OT7ArrayOfINS_8OffsetToINS_10SBIXStrikeENS_7IntTypeIjLj4EEELb1EEES4_E16sanitize_shallowEP21hb_sanitize_context_t, symObjAddr: 0x503C, symBinAddr: 0x3FE80, symSize: 0xB0 }
  - { offsetInCU: 0x3F4B2, offset: 0x2F32A1, size: 0x8, addend: 0x0, symName: __ZNK2OT7ArrayOfINS_8OffsetToINS_10SBIXStrikeENS_7IntTypeIjLj4EEELb1EEES4_E16sanitize_shallowEP21hb_sanitize_context_t, symObjAddr: 0x503C, symBinAddr: 0x3FE80, symSize: 0xB0 }
  - { offsetInCU: 0x3F5C9, offset: 0x2F33B8, size: 0x8, addend: 0x0, symName: __ZNK2OT8OffsetToINS_10SBIXStrikeENS_7IntTypeIjLj4EEELb1EE8sanitizeIJEEEbP21hb_sanitize_context_tPKvDpOT_, symObjAddr: 0x50EC, symBinAddr: 0x3FF30, symSize: 0xA0 }
  - { offsetInCU: 0x3FA8E, offset: 0x2F387D, size: 0x8, addend: 0x0, symName: __ZNK2OT10SBIXStrike8sanitizeEP21hb_sanitize_context_t, symObjAddr: 0x518C, symBinAddr: 0x3FFD0, symSize: 0x98 }
  - { offsetInCU: 0x3FAD1, offset: 0x2F38C0, size: 0x8, addend: 0x0, symName: __ZNK2OT10SBIXStrike8sanitizeEP21hb_sanitize_context_t, symObjAddr: 0x518C, symBinAddr: 0x3FFD0, symSize: 0x98 }
  - { offsetInCU: 0x3FAF6, offset: 0x2F38E5, size: 0x8, addend: 0x0, symName: __ZNK2OT10SBIXStrike8sanitizeEP21hb_sanitize_context_t, symObjAddr: 0x518C, symBinAddr: 0x3FFD0, symSize: 0x98 }
  - { offsetInCU: 0x3B8BD, offset: 0x32F40F, size: 0x8, addend: 0x0, symName: __ZN12hb_ot_face_t5init0EP9hb_face_t, symObjAddr: 0x0, symBinAddr: 0x40098, symSize: 0x8 }
  - { offsetInCU: 0x3C4CB, offset: 0x33001D, size: 0x8, addend: 0x0, symName: __ZN12hb_ot_face_t4finiEv, symObjAddr: 0x8, symBinAddr: 0x400A0, symSize: 0x28C }
  - { offsetInCU: 0x3D84E, offset: 0x3313A0, size: 0x8, addend: 0x0, symName: __ZN16hb_lazy_loader_tIN2OT4headE22hb_table_lazy_loader_tIS1_Lj1ELb1EE9hb_face_tLj1E9hb_blob_tE10do_destroyEPS5_, symObjAddr: 0x294, symBinAddr: 0x4032C, symSize: 0x3C }
  - { offsetInCU: 0x3D8CC, offset: 0x33141E, size: 0x8, addend: 0x0, symName: __ZN16hb_lazy_loader_tIN2OT4maxpE22hb_table_lazy_loader_tIS1_Lj2ELb1EE9hb_face_tLj2E9hb_blob_tE10do_destroyEPS5_, symObjAddr: 0x2D0, symBinAddr: 0x40368, symSize: 0x3C }
  - { offsetInCU: 0x3D99D, offset: 0x3314EF, size: 0x8, addend: 0x0, symName: __ZN16hb_lazy_loader_tIN2OT4hheaE22hb_table_lazy_loader_tIS1_Lj4ELb1EE9hb_face_tLj4E9hb_blob_tE10do_destroyEPS5_, symObjAddr: 0x374, symBinAddr: 0x403A4, symSize: 0x3C }
  - { offsetInCU: 0x3DA1B, offset: 0x33156D, size: 0x8, addend: 0x0, symName: __ZN16hb_lazy_loader_tIN2OT18hmtx_accelerator_tE21hb_face_lazy_loader_tIS1_Lj5EE9hb_face_tLj5ES1_E10do_destroyEPS1_, symObjAddr: 0x3B0, symBinAddr: 0x403E0, symSize: 0x2C }
  - { offsetInCU: 0x3DAF6, offset: 0x331648, size: 0x8, addend: 0x0, symName: __ZN16hb_lazy_loader_tIN2OT18post_accelerator_tE21hb_face_lazy_loader_tIS1_Lj7EE9hb_face_tLj7ES1_E10do_destroyEPS1_, symObjAddr: 0x454, symBinAddr: 0x40448, symSize: 0x2C }
  - { offsetInCU: 0x3DB83, offset: 0x3316D5, size: 0x8, addend: 0x0, symName: __ZN16hb_lazy_loader_tIN2OT18name_accelerator_tE21hb_face_lazy_loader_tIS1_Lj8EE9hb_face_tLj8ES1_E10do_destroyEPS1_, symObjAddr: 0x4D4, symBinAddr: 0x404C8, symSize: 0x2C }
  - { offsetInCU: 0x3DC10, offset: 0x331762, size: 0x8, addend: 0x0, symName: __ZN16hb_lazy_loader_tIN2OT4STATE22hb_table_lazy_loader_tIS1_Lj9ELb1EE9hb_face_tLj9E9hb_blob_tE10do_destroyEPS5_, symObjAddr: 0x548, symBinAddr: 0x4053C, symSize: 0x3C }
  - { offsetInCU: 0x3DC8E, offset: 0x3317E0, size: 0x8, addend: 0x0, symName: __ZN16hb_lazy_loader_tIN2OT18meta_accelerator_tE21hb_face_lazy_loader_tIS1_Lj10EE9hb_face_tLj10ES1_E10do_destroyEPS1_, symObjAddr: 0x584, symBinAddr: 0x40578, symSize: 0x2C }
  - { offsetInCU: 0x3DD1A, offset: 0x33186C, size: 0x8, addend: 0x0, symName: __ZN16hb_lazy_loader_tIN2OT4vheaE22hb_table_lazy_loader_tIS1_Lj11ELb1EE9hb_face_tLj11E9hb_blob_tE10do_destroyEPS5_, symObjAddr: 0x5E0, symBinAddr: 0x405D4, symSize: 0x3C }
  - { offsetInCU: 0x3DD98, offset: 0x3318EA, size: 0x8, addend: 0x0, symName: __ZN16hb_lazy_loader_tIN2OT18vmtx_accelerator_tE21hb_face_lazy_loader_tIS1_Lj12EE9hb_face_tLj12ES1_E10do_destroyEPS1_, symObjAddr: 0x61C, symBinAddr: 0x40610, symSize: 0x2C }
  - { offsetInCU: 0x3DE25, offset: 0x331977, size: 0x8, addend: 0x0, symName: __ZN16hb_lazy_loader_tIN2OT4VORGE22hb_table_lazy_loader_tIS1_Lj13ELb1EE9hb_face_tLj13E9hb_blob_tE10do_destroyEPS5_, symObjAddr: 0x684, symBinAddr: 0x40678, symSize: 0x3C }
  - { offsetInCU: 0x3DEA3, offset: 0x3319F5, size: 0x8, addend: 0x0, symName: __ZN16hb_lazy_loader_tIN2OT4locaE22hb_table_lazy_loader_tIS1_Lj14ELb1EE9hb_face_tLj14E9hb_blob_tE10do_destroyEPS5_, symObjAddr: 0x6C0, symBinAddr: 0x406B4, symSize: 0x3C }
  - { offsetInCU: 0x3DF21, offset: 0x331A73, size: 0x8, addend: 0x0, symName: __ZN16hb_lazy_loader_tIN2OT18glyf_accelerator_tE21hb_face_lazy_loader_tIS1_Lj15EE9hb_face_tLj15ES1_E10do_destroyEPS1_, symObjAddr: 0x6FC, symBinAddr: 0x406F0, symSize: 0x2C }
  - { offsetInCU: 0x3DF8F, offset: 0x331AE1, size: 0x8, addend: 0x0, symName: __ZN16hb_lazy_loader_tIN2OT18cff1_accelerator_tE21hb_face_lazy_loader_tIS1_Lj16EE9hb_face_tLj16ES1_E10do_destroyEPS1_, symObjAddr: 0x758, symBinAddr: 0x4074C, symSize: 0x2C }
  - { offsetInCU: 0x3E01C, offset: 0x331B6E, size: 0x8, addend: 0x0, symName: __ZN16hb_lazy_loader_tIN2OT18cff2_accelerator_tE21hb_face_lazy_loader_tIS1_Lj17EE9hb_face_tLj17ES1_E10do_destroyEPS1_, symObjAddr: 0x97C, symBinAddr: 0x40970, symSize: 0x2C }
  - { offsetInCU: 0x3E164, offset: 0x331CB6, size: 0x8, addend: 0x0, symName: __ZN16hb_lazy_loader_tIN2OT18gvar_accelerator_tE21hb_face_lazy_loader_tIS1_Lj20EE9hb_face_tLj20ES1_E10do_destroyEPS1_, symObjAddr: 0xBF0, symBinAddr: 0x40B6C, symSize: 0x2C }
  - { offsetInCU: 0x3E1F1, offset: 0x331D43, size: 0x8, addend: 0x0, symName: __ZN16hb_lazy_loader_tIN2OT4MVARE22hb_table_lazy_loader_tIS1_Lj21ELb1EE9hb_face_tLj21E9hb_blob_tE10do_destroyEPS5_, symObjAddr: 0xC4C, symBinAddr: 0x40BC8, symSize: 0x3C }
  - { offsetInCU: 0x3E26F, offset: 0x331DC1, size: 0x8, addend: 0x0, symName: __ZN16hb_lazy_loader_tIN2OT4kernE22hb_table_lazy_loader_tIS1_Lj22ELb1EE9hb_face_tLj22E9hb_blob_tE10do_destroyEPS5_, symObjAddr: 0xC88, symBinAddr: 0x40C04, symSize: 0x3C }
  - { offsetInCU: 0x3E340, offset: 0x331E92, size: 0x8, addend: 0x0, symName: __ZN16hb_lazy_loader_tIN2OT18GSUB_accelerator_tE21hb_face_lazy_loader_tIS1_Lj24EE9hb_face_tLj24ES1_E10do_destroyEPS1_, symObjAddr: 0xD20, symBinAddr: 0x40C40, symSize: 0x2C }
  - { offsetInCU: 0x3E3CC, offset: 0x331F1E, size: 0x8, addend: 0x0, symName: __ZN16hb_lazy_loader_tIN2OT18GPOS_accelerator_tE21hb_face_lazy_loader_tIS1_Lj25EE9hb_face_tLj25ES1_E10do_destroyEPS1_, symObjAddr: 0xDD0, symBinAddr: 0x40CF0, symSize: 0x2C }
  - { offsetInCU: 0x3E458, offset: 0x331FAA, size: 0x8, addend: 0x0, symName: __ZN16hb_lazy_loader_tIN2OT4BASEE22hb_table_lazy_loader_tIS1_Lj26ELb1EE9hb_face_tLj26E9hb_blob_tE10do_destroyEPS5_, symObjAddr: 0xE80, symBinAddr: 0x40DA0, symSize: 0x3C }
  - { offsetInCU: 0x3E88C, offset: 0x3323DE, size: 0x8, addend: 0x0, symName: __ZN16hb_lazy_loader_tIN2OT4MATHE22hb_table_lazy_loader_tIS1_Lj39ELb1EE9hb_face_tLj39E9hb_blob_tE10do_destroyEPS5_, symObjAddr: 0x11F8, symBinAddr: 0x40DDC, symSize: 0x3C }
  - { offsetInCU: 0x3EACC, offset: 0x33261E, size: 0x8, addend: 0x0, symName: __ZN2OT8hmtxvmtxINS_4hmtxENS_4hheaENS_4HVAREE13accelerator_tD2Ev, symObjAddr: 0x3DC, symBinAddr: 0x4040C, symSize: 0x3C }
  - { offsetInCU: 0x3EC6E, offset: 0x3327C0, size: 0x8, addend: 0x0, symName: __ZN2OT4post13accelerator_tD2Ev, symObjAddr: 0x480, symBinAddr: 0x40474, symSize: 0x54 }
  - { offsetInCU: 0x3EED5, offset: 0x332A27, size: 0x8, addend: 0x0, symName: __ZN2OT4name13accelerator_tD2Ev, symObjAddr: 0x500, symBinAddr: 0x404F4, symSize: 0x48 }
  - { offsetInCU: 0x3F120, offset: 0x332C72, size: 0x8, addend: 0x0, symName: __ZN2OT4meta13accelerator_tD2Ev, symObjAddr: 0x5B0, symBinAddr: 0x405A4, symSize: 0x30 }
  - { offsetInCU: 0x3F240, offset: 0x332D92, size: 0x8, addend: 0x0, symName: __ZN2OT8hmtxvmtxINS_4vmtxENS_4vheaENS_4VVAREE13accelerator_tD2Ev, symObjAddr: 0x648, symBinAddr: 0x4063C, symSize: 0x3C }
  - { offsetInCU: 0x3F3DE, offset: 0x332F30, size: 0x8, addend: 0x0, symName: __ZN2OT18glyf_accelerator_tD2Ev, symObjAddr: 0x728, symBinAddr: 0x4071C, symSize: 0x30 }
  - { offsetInCU: 0x3F4DE, offset: 0x333030, size: 0x8, addend: 0x0, symName: __ZN2OT4cff113accelerator_tD2Ev, symObjAddr: 0x784, symBinAddr: 0x40778, symSize: 0x98 }
  - { offsetInCU: 0x3FAAD, offset: 0x3335FF, size: 0x8, addend: 0x0, symName: __ZN2OT4cff119accelerator_templ_tIN3CFF25cff1_private_dict_opset_tENS2_31cff1_private_dict_values_base_tINS2_10dict_val_tEEEE4finiEv, symObjAddr: 0x81C, symBinAddr: 0x40810, symSize: 0x80 }
  - { offsetInCU: 0x3FC88, offset: 0x3337DA, size: 0x8, addend: 0x0, symName: __ZN11hb_vector_tIN3CFF31cff1_private_dict_values_base_tINS0_10dict_val_tEEELb0EE13shrink_vectorEj, symObjAddr: 0x90C, symBinAddr: 0x40900, symSize: 0x70 }
  - { offsetInCU: 0x3FDE3, offset: 0x333935, size: 0x8, addend: 0x0, symName: __ZN11hb_vector_tIN3CFF23cff1_font_dict_values_tELb0EE13shrink_vectorEj, symObjAddr: 0x89C, symBinAddr: 0x40890, symSize: 0x70 }
  - { offsetInCU: 0x4021B, offset: 0x333D6D, size: 0x8, addend: 0x0, symName: __ZN2OT4cff219accelerator_templ_tIN3CFF25cff2_private_dict_opset_tENS2_31cff2_private_dict_values_base_tINS2_10dict_val_tEEEED2Ev, symObjAddr: 0x9A8, symBinAddr: 0x4099C, symSize: 0x70 }
  - { offsetInCU: 0x405FF, offset: 0x334151, size: 0x8, addend: 0x0, symName: __ZN2OT4cff219accelerator_templ_tIN3CFF25cff2_private_dict_opset_tENS2_31cff2_private_dict_values_base_tINS2_10dict_val_tEEEE5_finiEv, symObjAddr: 0xA18, symBinAddr: 0x40A0C, symSize: 0x80 }
  - { offsetInCU: 0x407D9, offset: 0x33432B, size: 0x8, addend: 0x0, symName: __ZN11hb_vector_tIN3CFF31cff2_private_dict_values_base_tINS0_10dict_val_tEEELb0EE13shrink_vectorEj, symObjAddr: 0xB08, symBinAddr: 0x40AFC, symSize: 0x70 }
  - { offsetInCU: 0x40932, offset: 0x334484, size: 0x8, addend: 0x0, symName: __ZN11hb_vector_tIN3CFF23cff2_font_dict_values_tELb0EE13shrink_vectorEj, symObjAddr: 0xA98, symBinAddr: 0x40A8C, symSize: 0x70 }
  - { offsetInCU: 0x40BC4, offset: 0x334716, size: 0x8, addend: 0x0, symName: __ZN2OT4gvar13accelerator_tD2Ev, symObjAddr: 0xC1C, symBinAddr: 0x40B98, symSize: 0x30 }
  - { offsetInCU: 0x40DC8, offset: 0x33491A, size: 0x8, addend: 0x0, symName: __ZN2OT8GSUBGPOS13accelerator_tINS_6Layout4GSUBEED2Ev, symObjAddr: 0xD4C, symBinAddr: 0x40C6C, symSize: 0x84 }
  - { offsetInCU: 0x40FBA, offset: 0x334B0C, size: 0x8, addend: 0x0, symName: __ZN2OT8GSUBGPOS13accelerator_tINS_6Layout4GPOSEED2Ev, symObjAddr: 0xDFC, symBinAddr: 0x40D1C, symSize: 0x84 }
  - { offsetInCU: 0x41, offset: 0x3350CE, size: 0x8, addend: 0x0, symName: __ZL15static_ot_funcs, symObjAddr: 0x2D3590, symBinAddr: 0x13AFD0, symSize: 0x0 }
  - { offsetInCU: 0x25F54, offset: 0x35AFE1, size: 0x8, addend: 0x0, symName: __ZL20format1_names_msgstr, symObjAddr: 0x14552, symBinAddr: 0x105022, symSize: 0x0 }
  - { offsetInCU: 0x26D8B, offset: 0x35BE18, size: 0x8, addend: 0x0, symName: __ZL20format1_names_msgidx, symObjAddr: 0x14C8C, symBinAddr: 0x10575C, symSize: 0x0 }
  - { offsetInCU: 0x26DC1, offset: 0x35BE4E, size: 0x8, addend: 0x0, symName: __ZL23cff1_std_strings_msgstr, symObjAddr: 0x15098, symBinAddr: 0x105B68, symSize: 0x0 }
  - { offsetInCU: 0x28297, offset: 0x35D324, size: 0x8, addend: 0x0, symName: __ZL23cff1_std_strings_msgidx, symObjAddr: 0x15E0C, symBinAddr: 0x1068DC, symSize: 0x0 }
  - { offsetInCU: 0x28781, offset: 0x35D80E, size: 0x8, addend: 0x0, symName: __ZN2OT18GlyphVariationData13unpack_pointsERPKNS_7IntTypeIhLj1EEER11hb_vector_tIjLb0EES4_, symObjAddr: 0x7BF0, symBinAddr: 0x45BD0, symSize: 0x134 }
  - { offsetInCU: 0x2899E, offset: 0x35DA2B, size: 0x8, addend: 0x0, symName: __ZN2OT18GlyphVariationData13unpack_deltasERPKNS_7IntTypeIhLj1EEER11hb_vector_tIiLb0EES4_, symObjAddr: 0x7D24, symBinAddr: 0x45D04, symSize: 0xE0 }
  - { offsetInCU: 0x28AD5, offset: 0x35DB62, size: 0x8, addend: 0x0, symName: __ZN3CFF12dict_opset_t9parse_bcdERNS_14byte_str_ref_tE, symObjAddr: 0xA988, symBinAddr: 0x482FC, symSize: 0x13C }
  - { offsetInCU: 0x2AF72, offset: 0x35FFFF, size: 0x8, addend: 0x0, symName: _hb_ot_font_set_funcs, symObjAddr: 0x0, symBinAddr: 0x40E18, symSize: 0x68 }
  - { offsetInCU: 0x2B038, offset: 0x3600C5, size: 0x8, addend: 0x0, symName: __ZNK16hb_lazy_loader_tI15hb_font_funcs_t30hb_ot_font_funcs_lazy_loader_tvLj0ES0_E10get_storedEv, symObjAddr: 0x344, symBinAddr: 0x410CC, symSize: 0x5C }
  - { offsetInCU: 0x2B1BB, offset: 0x360248, size: 0x8, addend: 0x0, symName: __ZL19_hb_ot_font_destroyPv, symObjAddr: 0x68, symBinAddr: 0x40E80, symSize: 0x2C }
  - { offsetInCU: 0x2B257, offset: 0x3602E4, size: 0x8, addend: 0x0, symName: __ZNK16hb_lazy_loader_tIN2OT18glyf_accelerator_tE21hb_face_lazy_loader_tIS1_Lj15EE9hb_face_tLj15ES1_E10get_storedEv, symObjAddr: 0x12D54, symBinAddr: 0x4CA30, symSize: 0x70 }
  - { offsetInCU: 0x2B3BA, offset: 0x360447, size: 0x8, addend: 0x0, symName: __ZNK2OT18glyf_accelerator_t37get_leading_bearing_with_var_unscaledEP9hb_font_tjbPi, symObjAddr: 0xE0, symBinAddr: 0x40EAC, symSize: 0xF0 }
  - { offsetInCU: 0x2B6F0, offset: 0x36077D, size: 0x8, addend: 0x0, symName: __ZNK2OT18glyf_accelerator_t10get_pointsINS0_19points_aggregator_tEEEbP9hb_font_tjT_, symObjAddr: 0x5D0C, symBinAddr: 0x43CEC, symSize: 0x1FC }
  - { offsetInCU: 0x2BC0F, offset: 0x360C9C, size: 0x8, addend: 0x0, symName: __ZNK2OT18glyf_accelerator_t29get_advance_with_var_unscaledEP9hb_font_tjb, symObjAddr: 0x214, symBinAddr: 0x40F9C, symSize: 0x130 }
  - { offsetInCU: 0x2BE0F, offset: 0x360E9C, size: 0x8, addend: 0x0, symName: __ZNK2OT8hmtxvmtxINS_4vmtxENS_4vheaENS_4VVAREE13accelerator_t32get_advance_without_var_unscaledEj, symObjAddr: 0x5624, symBinAddr: 0x43640, symSize: 0x5C }
  - { offsetInCU: 0x2BF9C, offset: 0x361029, size: 0x8, addend: 0x0, symName: __ZNK2OT8hmtxvmtxINS_4hmtxENS_4hheaENS_4HVAREE13accelerator_t32get_advance_without_var_unscaledEj, symObjAddr: 0x4640, symBinAddr: 0x42C48, symSize: 0x5C }
  - { offsetInCU: 0x2C224, offset: 0x3612B1, size: 0x8, addend: 0x0, symName: __ZN30hb_ot_font_funcs_lazy_loader_t6createEv, symObjAddr: 0x3DC, symBinAddr: 0x41164, symSize: 0x148 }
  - { offsetInCU: 0x2C3FF, offset: 0x36148C, size: 0x8, addend: 0x0, symName: __ZN16hb_lazy_loader_tI15hb_font_funcs_t30hb_ot_font_funcs_lazy_loader_tvLj0ES0_E10do_destroyEPS0_, symObjAddr: 0x3A0, symBinAddr: 0x41128, symSize: 0x3C }
  - { offsetInCU: 0x2C688, offset: 0x361715, size: 0x8, addend: 0x0, symName: __ZL23hb_ot_get_nominal_glyphP9hb_font_tPvjPjS1_, symObjAddr: 0x524, symBinAddr: 0x412AC, symSize: 0x4C }
  - { offsetInCU: 0x2C95D, offset: 0x3619EA, size: 0x8, addend: 0x0, symName: __ZL24hb_ot_get_nominal_glyphsP9hb_font_tPvjPKjjPjjS1_, symObjAddr: 0x570, symBinAddr: 0x412F8, symSize: 0xA4 }
  - { offsetInCU: 0x2CB09, offset: 0x361B96, size: 0x8, addend: 0x0, symName: __ZL25hb_ot_get_variation_glyphP9hb_font_tPvjjPjS1_, symObjAddr: 0x614, symBinAddr: 0x4139C, symSize: 0x48 }
  - { offsetInCU: 0x2CC0E, offset: 0x361C9B, size: 0x8, addend: 0x0, symName: __ZNK2OT4cmap13accelerator_t19get_variation_glyphEjjPj, symObjAddr: 0x2C84, symBinAddr: 0x41CD4, symSize: 0x98 }
  - { offsetInCU: 0x2CD6D, offset: 0x361DFA, size: 0x8, addend: 0x0, symName: __ZL24hb_ot_get_font_h_extentsP9hb_font_tPvP17hb_font_extents_tS1_, symObjAddr: 0x65C, symBinAddr: 0x413E4, symSize: 0x68 }
  - { offsetInCU: 0x2D1CE, offset: 0x36225B, size: 0x8, addend: 0x0, symName: __ZL26hb_ot_get_glyph_h_advancesP9hb_font_tPvjPKjjPijS1_, symObjAddr: 0x6C4, symBinAddr: 0x4144C, symSize: 0x250 }
  - { offsetInCU: 0x2DAB5, offset: 0x362B42, size: 0x8, addend: 0x0, symName: __ZNK16hb_lazy_loader_tIN2OT18hmtx_accelerator_tE21hb_face_lazy_loader_tIS1_Lj5EE9hb_face_tLj5ES1_E10get_storedEv, symObjAddr: 0x3154, symBinAddr: 0x42054, symSize: 0x70 }
  - { offsetInCU: 0x2DCDE, offset: 0x362D6B, size: 0x8, addend: 0x0, symName: __ZNK2OT8hmtxvmtxINS_4hmtxENS_4hheaENS_4HVAREE13accelerator_t29get_advance_with_var_unscaledEjP9hb_font_tPf, symObjAddr: 0x3088, symBinAddr: 0x41F88, symSize: 0xCC }
  - { offsetInCU: 0x2DF09, offset: 0x362F96, size: 0x8, addend: 0x0, symName: __ZL24hb_ot_get_font_v_extentsP9hb_font_tPvP17hb_font_extents_tS1_, symObjAddr: 0x914, symBinAddr: 0x4169C, symSize: 0x68 }
  - { offsetInCU: 0x2E079, offset: 0x363106, size: 0x8, addend: 0x0, symName: __ZL26hb_ot_get_glyph_v_advancesP9hb_font_tPvjPKjjPijS1_, symObjAddr: 0x97C, symBinAddr: 0x41704, symSize: 0x160 }
  - { offsetInCU: 0x2E4F1, offset: 0x36357E, size: 0x8, addend: 0x0, symName: __ZNK16hb_lazy_loader_tIN2OT18vmtx_accelerator_tE21hb_face_lazy_loader_tIS1_Lj12EE9hb_face_tLj12ES1_E10get_storedEv, symObjAddr: 0x4D34, symBinAddr: 0x42DF4, symSize: 0x70 }
  - { offsetInCU: 0x2E6C2, offset: 0x36374F, size: 0x8, addend: 0x0, symName: __ZNK2OT8hmtxvmtxINS_4vmtxENS_4vheaENS_4VVAREE13accelerator_t29get_advance_with_var_unscaledEjP9hb_font_tPf, symObjAddr: 0x4BEC, symBinAddr: 0x42D28, symSize: 0xCC }
  - { offsetInCU: 0x2EA72, offset: 0x363AFF, size: 0x8, addend: 0x0, symName: __ZL24hb_ot_get_glyph_v_originP9hb_font_tPvjPiS2_S1_, symObjAddr: 0xADC, symBinAddr: 0x41864, symSize: 0x1B8 }
  - { offsetInCU: 0x2F08B, offset: 0x364118, size: 0x8, addend: 0x0, symName: __ZNK16hb_lazy_loader_tIN2OT4VORGE22hb_table_lazy_loader_tIS1_Lj13ELb1EE9hb_face_tLj13E9hb_blob_tE10get_storedEv, symObjAddr: 0x595C, symBinAddr: 0x43978, symSize: 0x74 }
  - { offsetInCU: 0x2F21E, offset: 0x3642AB, size: 0x8, addend: 0x0, symName: __ZNK2OT4VVAR23get_vorg_delta_unscaledEjPKijPf, symObjAddr: 0x5680, symBinAddr: 0x4369C, symSize: 0x90 }
  - { offsetInCU: 0x2F441, offset: 0x3644CE, size: 0x8, addend: 0x0, symName: __ZNK2OT4VORG12get_y_originEj, symObjAddr: 0x5710, symBinAddr: 0x4372C, symSize: 0x98 }
  - { offsetInCU: 0x2F485, offset: 0x364512, size: 0x8, addend: 0x0, symName: __ZNK2OT4VORG12get_y_originEj, symObjAddr: 0x5710, symBinAddr: 0x4372C, symSize: 0x98 }
  - { offsetInCU: 0x2F4B8, offset: 0x364545, size: 0x8, addend: 0x0, symName: __ZNK2OT4VORG12get_y_originEj, symObjAddr: 0x5710, symBinAddr: 0x4372C, symSize: 0x98 }
  - { offsetInCU: 0x2F4D8, offset: 0x364565, size: 0x8, addend: 0x0, symName: __ZNK2OT4VORG12get_y_originEj, symObjAddr: 0x5710, symBinAddr: 0x4372C, symSize: 0x98 }
  - { offsetInCU: 0x2F4F8, offset: 0x364585, size: 0x8, addend: 0x0, symName: __ZNK2OT4VORG12get_y_originEj, symObjAddr: 0x5710, symBinAddr: 0x4372C, symSize: 0x98 }
  - { offsetInCU: 0x2F6E7, offset: 0x364774, size: 0x8, addend: 0x0, symName: __ZNK2OT18glyf_accelerator_t11get_extentsEP9hb_font_tjP18hb_glyph_extents_t, symObjAddr: 0x57A8, symBinAddr: 0x437C4, symSize: 0xBC }
  - { offsetInCU: 0x2F88F, offset: 0x36491C, size: 0x8, addend: 0x0, symName: __ZNK2OT8hmtxvmtxINS_4vmtxENS_4vheaENS_4VVAREE13accelerator_t37get_leading_bearing_with_var_unscaledEP9hb_font_tjPi, symObjAddr: 0x5864, symBinAddr: 0x43880, symSize: 0xF8 }
  - { offsetInCU: 0x2FCB6, offset: 0x364D43, size: 0x8, addend: 0x0, symName: __ZL21hb_ot_get_glyph_shapeP9hb_font_tPvjP15hb_draw_funcs_tS1_S1_, symObjAddr: 0xC94, symBinAddr: 0x41A1C, symSize: 0xEC }
  - { offsetInCU: 0x2FF8C, offset: 0x365019, size: 0x8, addend: 0x0, symName: __ZNK2OT18glyf_accelerator_t10get_pointsINS_9glyf_impl14path_builder_tEEEbP9hb_font_tjT_, symObjAddr: 0x8794, symBinAddr: 0x46664, symSize: 0x144 }
  - { offsetInCU: 0x302EA, offset: 0x365377, size: 0x8, addend: 0x0, symName: __ZNK16hb_lazy_loader_tIN2OT18cff1_accelerator_tE21hb_face_lazy_loader_tIS1_Lj16EE9hb_face_tLj16ES1_E10get_storedEv, symObjAddr: 0x8E04, symBinAddr: 0x46A60, symSize: 0x70 }
  - { offsetInCU: 0x3044D, offset: 0x3654DA, size: 0x8, addend: 0x0, symName: __ZNK16hb_lazy_loader_tIN2OT18cff2_accelerator_tE21hb_face_lazy_loader_tIS1_Lj17EE9hb_face_tLj17ES1_E10get_storedEv, symObjAddr: 0xBDB0, symBinAddr: 0x4947C, symSize: 0x70 }
  - { offsetInCU: 0x305B0, offset: 0x36563D, size: 0x8, addend: 0x0, symName: __ZN17hb_draw_session_tD2Ev, symObjAddr: 0xDACC, symBinAddr: 0x4AE40, symSize: 0x34 }
  - { offsetInCU: 0x30748, offset: 0x3657D5, size: 0x8, addend: 0x0, symName: __ZL23hb_ot_get_glyph_extentsP9hb_font_tPvjP18hb_glyph_extents_tS1_, symObjAddr: 0xD80, symBinAddr: 0x41B08, symSize: 0xF4 }
  - { offsetInCU: 0x30BF1, offset: 0x365C7E, size: 0x8, addend: 0x0, symName: __ZNK2OT4sbix13accelerator_t15get_png_extentsEP9hb_font_tjP18hb_glyph_extents_t, symObjAddr: 0xE3EC, symBinAddr: 0x4B138, symSize: 0x22C }
  - { offsetInCU: 0x313E8, offset: 0x366475, size: 0x8, addend: 0x0, symName: __ZNK2OT4CBDT13accelerator_t11get_extentsEP9hb_font_tjP18hb_glyph_extents_t, symObjAddr: 0xDB00, symBinAddr: 0x4AE74, symSize: 0x1DC }
  - { offsetInCU: 0x31954, offset: 0x3669E1, size: 0x8, addend: 0x0, symName: __ZNK2OT4COLR11get_extentsEP9hb_font_tjP18hb_glyph_extents_t, symObjAddr: 0xDCDC, symBinAddr: 0x4B050, symSize: 0xE8 }
  - { offsetInCU: 0x31D55, offset: 0x366DE2, size: 0x8, addend: 0x0, symName: __ZL20hb_ot_get_glyph_nameP9hb_font_tPvjPcjS1_, symObjAddr: 0xE74, symBinAddr: 0x41BFC, symSize: 0x6C }
  - { offsetInCU: 0x31EE4, offset: 0x366F71, size: 0x8, addend: 0x0, symName: __ZNK16hb_lazy_loader_tIN2OT18post_accelerator_tE21hb_face_lazy_loader_tIS1_Lj7EE9hb_face_tLj7ES1_E10get_storedEv, symObjAddr: 0x11984, symBinAddr: 0x4B840, symSize: 0x70 }
  - { offsetInCU: 0x32047, offset: 0x3670D4, size: 0x8, addend: 0x0, symName: __ZNK2OT4post13accelerator_t14get_glyph_nameEjPcj, symObjAddr: 0x1184C, symBinAddr: 0x4B708, symSize: 0x64 }
  - { offsetInCU: 0x320DD, offset: 0x36716A, size: 0x8, addend: 0x0, symName: __ZNK2OT4cff113accelerator_t14get_glyph_nameEjPcj, symObjAddr: 0x118B0, symBinAddr: 0x4B76C, symSize: 0xD4 }
  - { offsetInCU: 0x32297, offset: 0x367324, size: 0x8, addend: 0x0, symName: __ZL25hb_ot_get_glyph_from_nameP9hb_font_tPvPKciPjS1_, symObjAddr: 0xEE0, symBinAddr: 0x41C68, symSize: 0x6C }
  - { offsetInCU: 0x32426, offset: 0x3674B3, size: 0x8, addend: 0x0, symName: __ZNK2OT4post13accelerator_t19get_glyph_from_nameEPKciPj, symObjAddr: 0x1211C, symBinAddr: 0x4BF58, symSize: 0x174 }
  - { offsetInCU: 0x32745, offset: 0x3677D2, size: 0x8, addend: 0x0, symName: __ZNK2OT4cff113accelerator_t19get_glyph_from_nameEPKciPj, symObjAddr: 0x12290, symBinAddr: 0x4C0CC, symSize: 0x23C }
  - { offsetInCU: 0x36CC9, offset: 0x36BD56, size: 0x8, addend: 0x0, symName: __ZNK2OT23VariationSelectorRecord9get_glyphEjPjPKv, symObjAddr: 0x2D70, symBinAddr: 0x41D6C, symSize: 0xB8 }
  - { offsetInCU: 0x372B4, offset: 0x36C341, size: 0x8, addend: 0x0, symName: __ZNK17hb_sorted_array_tIKN2OT17UnicodeValueRangeEE12bsearch_implIjJEEEbRKT_PjDpT0_, symObjAddr: 0x2F00, symBinAddr: 0x41E78, symSize: 0x8C }
  - { offsetInCU: 0x37427, offset: 0x36C4B4, size: 0x8, addend: 0x0, symName: __ZNK2OT13SortedArrayOfINS_10UVSMappingENS_7IntTypeIjLj4EEEE7bsearchIjEERKS1_RKT_S7_, symObjAddr: 0x2EAC, symBinAddr: 0x41E24, symSize: 0x54 }
  - { offsetInCU: 0x377D9, offset: 0x36C866, size: 0x8, addend: 0x0, symName: __ZNK17hb_sorted_array_tIKN2OT10UVSMappingEE12bsearch_implIjJEEEbRKT_PjDpT0_, symObjAddr: 0x2F8C, symBinAddr: 0x41F04, symSize: 0x84 }
  - { offsetInCU: 0x37C5F, offset: 0x36CCEC, size: 0x8, addend: 0x0, symName: __ZNK2OT8HVARVVAR26get_advance_delta_unscaledEjPKijPf, symObjAddr: 0x469C, symBinAddr: 0x42CA4, symSize: 0x84 }
  - { offsetInCU: 0x37F99, offset: 0x36D026, size: 0x8, addend: 0x0, symName: __ZN16hb_lazy_loader_tIN2OT18hmtx_accelerator_tE21hb_face_lazy_loader_tIS1_Lj5EE9hb_face_tLj5ES1_E6createEPS4_, symObjAddr: 0x31F0, symBinAddr: 0x420C4, symSize: 0x34 }
  - { offsetInCU: 0x381B9, offset: 0x36D246, size: 0x8, addend: 0x0, symName: __ZN2OT8hmtxvmtxINS_4hmtxENS_4hheaENS_4HVAREE13accelerator_tC2EP9hb_face_t, symObjAddr: 0x3224, symBinAddr: 0x420F8, symSize: 0x1C4 }
  - { offsetInCU: 0x3893E, offset: 0x36D9CB, size: 0x8, addend: 0x0, symName: __ZN21hb_sanitize_context_t15reference_tableIN2OT8hmtxvmtxINS1_4hmtxENS1_4hheaENS1_4HVAREEEEEP9hb_blob_tPK9hb_face_tj, symObjAddr: 0x33E8, symBinAddr: 0x422BC, symSize: 0x5C }
  - { offsetInCU: 0x38A01, offset: 0x36DA8E, size: 0x8, addend: 0x0, symName: __ZN21hb_sanitize_context_t15reference_tableIN2OT4HVAREEEP9hb_blob_tPK9hb_face_tj, symObjAddr: 0x3444, symBinAddr: 0x42318, symSize: 0x5C }
  - { offsetInCU: 0x38AD6, offset: 0x36DB63, size: 0x8, addend: 0x0, symName: __ZNK16hb_lazy_loader_tIN2OT4hheaE22hb_table_lazy_loader_tIS1_Lj4ELb1EE9hb_face_tLj4E9hb_blob_tE10get_storedEv, symObjAddr: 0x3F84, symBinAddr: 0x42640, symSize: 0x74 }
  - { offsetInCU: 0x38C69, offset: 0x36DCF6, size: 0x8, addend: 0x0, symName: __ZNK16hb_lazy_loader_tIN2OT4maxpE22hb_table_lazy_loader_tIS1_Lj2ELb1EE9hb_face_tLj2E9hb_blob_tE10get_storedEv, symObjAddr: 0x42A4, symBinAddr: 0x42924, symSize: 0x74 }
  - { offsetInCU: 0x38DFC, offset: 0x36DE89, size: 0x8, addend: 0x0, symName: __ZN21hb_sanitize_context_t13sanitize_blobIN2OT8hmtxvmtxINS1_4hmtxENS1_4hheaENS1_4HVAREEEEEP9hb_blob_tS8_, symObjAddr: 0x34A0, symBinAddr: 0x42374, symSize: 0xA4 }
  - { offsetInCU: 0x38F19, offset: 0x36DFA6, size: 0x8, addend: 0x0, symName: __ZN21hb_sanitize_context_t13sanitize_blobIN2OT4HVAREEEP9hb_blob_tS4_, symObjAddr: 0x3544, symBinAddr: 0x42418, symSize: 0x168 }
  - { offsetInCU: 0x3912E, offset: 0x36E1BB, size: 0x8, addend: 0x0, symName: __ZNK2OT8HVARVVAR8sanitizeEP21hb_sanitize_context_t, symObjAddr: 0x36AC, symBinAddr: 0x42580, symSize: 0xC0 }
  - { offsetInCU: 0x3AED4, offset: 0x36FF61, size: 0x8, addend: 0x0, symName: __ZNK17hb_data_wrapper_tI9hb_face_tLj4EE11call_createI9hb_blob_t22hb_table_lazy_loader_tIN2OT4hheaELj4ELb1EEEEPT_v, symObjAddr: 0x3FF8, symBinAddr: 0x426B4, symSize: 0x50 }
  - { offsetInCU: 0x3B05B, offset: 0x3700E8, size: 0x8, addend: 0x0, symName: __ZN21hb_sanitize_context_t15reference_tableIN2OT4hheaEEEP9hb_blob_tPK9hb_face_tj, symObjAddr: 0x4084, symBinAddr: 0x42704, symSize: 0x5C }
  - { offsetInCU: 0x3B133, offset: 0x3701C0, size: 0x8, addend: 0x0, symName: __ZN21hb_sanitize_context_t13sanitize_blobIN2OT4hheaEEEP9hb_blob_tS4_, symObjAddr: 0x40E0, symBinAddr: 0x42760, symSize: 0x168 }
  - { offsetInCU: 0x3B348, offset: 0x3703D5, size: 0x8, addend: 0x0, symName: __ZNK2OT4_heaINS_4hheaEE8sanitizeEP21hb_sanitize_context_t, symObjAddr: 0x4248, symBinAddr: 0x428C8, symSize: 0x5C }
  - { offsetInCU: 0x3B4BA, offset: 0x370547, size: 0x8, addend: 0x0, symName: __ZNK17hb_data_wrapper_tI9hb_face_tLj2EE11call_createI9hb_blob_t22hb_table_lazy_loader_tIN2OT4maxpELj2ELb1EEEEPT_v, symObjAddr: 0x4318, symBinAddr: 0x42998, symSize: 0x50 }
  - { offsetInCU: 0x3B641, offset: 0x3706CE, size: 0x8, addend: 0x0, symName: __ZN21hb_sanitize_context_t15reference_tableIN2OT4maxpEEEP9hb_blob_tPK9hb_face_tj, symObjAddr: 0x43A4, symBinAddr: 0x429E8, symSize: 0x5C }
  - { offsetInCU: 0x3B719, offset: 0x3707A6, size: 0x8, addend: 0x0, symName: __ZN21hb_sanitize_context_t13sanitize_blobIN2OT4maxpEEEP9hb_blob_tS4_, symObjAddr: 0x4400, symBinAddr: 0x42A44, symSize: 0x168 }
  - { offsetInCU: 0x3B92E, offset: 0x3709BB, size: 0x8, addend: 0x0, symName: __ZNK2OT4maxp8sanitizeEP21hb_sanitize_context_t, symObjAddr: 0x4568, symBinAddr: 0x42BAC, symSize: 0x9C }
  - { offsetInCU: 0x3B972, offset: 0x3709FF, size: 0x8, addend: 0x0, symName: __ZNK2OT4maxp8sanitizeEP21hb_sanitize_context_t, symObjAddr: 0x4568, symBinAddr: 0x42BAC, symSize: 0x9C }
  - { offsetInCU: 0x3B997, offset: 0x370A24, size: 0x8, addend: 0x0, symName: __ZNK2OT4maxp8sanitizeEP21hb_sanitize_context_t, symObjAddr: 0x4568, symBinAddr: 0x42BAC, symSize: 0x9C }
  - { offsetInCU: 0x3C909, offset: 0x371996, size: 0x8, addend: 0x0, symName: __ZN16hb_lazy_loader_tIN2OT18vmtx_accelerator_tE21hb_face_lazy_loader_tIS1_Lj12EE9hb_face_tLj12ES1_E6createEPS4_, symObjAddr: 0x4DD0, symBinAddr: 0x42E64, symSize: 0x34 }
  - { offsetInCU: 0x3CB29, offset: 0x371BB6, size: 0x8, addend: 0x0, symName: __ZN2OT8hmtxvmtxINS_4vmtxENS_4vheaENS_4VVAREE13accelerator_tC2EP9hb_face_t, symObjAddr: 0x4E04, symBinAddr: 0x42E98, symSize: 0x1C0 }
  - { offsetInCU: 0x3D1D9, offset: 0x372266, size: 0x8, addend: 0x0, symName: __ZN21hb_sanitize_context_t15reference_tableIN2OT8hmtxvmtxINS1_4vmtxENS1_4vheaENS1_4VVAREEEEEP9hb_blob_tPK9hb_face_tj, symObjAddr: 0x4FC4, symBinAddr: 0x43058, symSize: 0x5C }
  - { offsetInCU: 0x3D29C, offset: 0x372329, size: 0x8, addend: 0x0, symName: __ZN21hb_sanitize_context_t15reference_tableIN2OT4VVAREEEP9hb_blob_tPK9hb_face_tj, symObjAddr: 0x5020, symBinAddr: 0x430B4, symSize: 0x5C }
  - { offsetInCU: 0x3D35F, offset: 0x3723EC, size: 0x8, addend: 0x0, symName: __ZNK16hb_lazy_loader_tIN2OT4vheaE22hb_table_lazy_loader_tIS1_Lj11ELb1EE9hb_face_tLj11E9hb_blob_tE10get_storedEv, symObjAddr: 0x52C8, symBinAddr: 0x4335C, symSize: 0x74 }
  - { offsetInCU: 0x3D4F2, offset: 0x37257F, size: 0x8, addend: 0x0, symName: __ZN21hb_sanitize_context_t13sanitize_blobIN2OT8hmtxvmtxINS1_4vmtxENS1_4vheaENS1_4VVAREEEEEP9hb_blob_tS8_, symObjAddr: 0x507C, symBinAddr: 0x43110, symSize: 0xA4 }
  - { offsetInCU: 0x3D60F, offset: 0x37269C, size: 0x8, addend: 0x0, symName: __ZN21hb_sanitize_context_t13sanitize_blobIN2OT4VVAREEEP9hb_blob_tS4_, symObjAddr: 0x5120, symBinAddr: 0x431B4, symSize: 0x168 }
  - { offsetInCU: 0x3D824, offset: 0x3728B1, size: 0x8, addend: 0x0, symName: __ZNK2OT4VVAR8sanitizeEP21hb_sanitize_context_t, symObjAddr: 0x5288, symBinAddr: 0x4331C, symSize: 0x40 }
  - { offsetInCU: 0x3D912, offset: 0x37299F, size: 0x8, addend: 0x0, symName: __ZNK17hb_data_wrapper_tI9hb_face_tLj11EE11call_createI9hb_blob_t22hb_table_lazy_loader_tIN2OT4vheaELj11ELb1EEEEPT_v, symObjAddr: 0x533C, symBinAddr: 0x433D0, symSize: 0x50 }
  - { offsetInCU: 0x3DA99, offset: 0x372B26, size: 0x8, addend: 0x0, symName: __ZN21hb_sanitize_context_t15reference_tableIN2OT4vheaEEEP9hb_blob_tPK9hb_face_tj, symObjAddr: 0x53C8, symBinAddr: 0x43420, symSize: 0x5C }
  - { offsetInCU: 0x3DB71, offset: 0x372BFE, size: 0x8, addend: 0x0, symName: __ZN21hb_sanitize_context_t13sanitize_blobIN2OT4vheaEEEP9hb_blob_tS4_, symObjAddr: 0x5424, symBinAddr: 0x4347C, symSize: 0x168 }
  - { offsetInCU: 0x3DD86, offset: 0x372E13, size: 0x8, addend: 0x0, symName: __ZNK2OT4_heaINS_4vheaEE8sanitizeEP21hb_sanitize_context_t, symObjAddr: 0x558C, symBinAddr: 0x435E4, symSize: 0x5C }
  - { offsetInCU: 0x3E213, offset: 0x3732A0, size: 0x8, addend: 0x0, symName: __ZNK2OT18glyf_accelerator_t13glyph_for_gidEjb, symObjAddr: 0x5F08, symBinAddr: 0x43EE8, symSize: 0x174 }
  - { offsetInCU: 0x3E64B, offset: 0x3736D8, size: 0x8, addend: 0x0, symName: __ZNK2OT9glyf_impl11GlyphHeader30get_extents_without_var_scaledINS_18glyf_accelerator_tEEEbP9hb_font_tRKT_jP18hb_glyph_extents_t, symObjAddr: 0x8558, symBinAddr: 0x46428, symSize: 0x1AC }
  - { offsetInCU: 0x3EC5D, offset: 0x373CEA, size: 0x8, addend: 0x0, symName: __ZNK2OT8HVARVVAR22get_lsb_delta_unscaledEjPKijPf, symObjAddr: 0x8704, symBinAddr: 0x465D4, symSize: 0x90 }
  - { offsetInCU: 0x3EE80, offset: 0x373F0D, size: 0x8, addend: 0x0, symName: __ZNK2OT8hmtxvmtxINS_4vmtxENS_4vheaENS_4VVAREE13accelerator_t40get_leading_bearing_without_var_unscaledEjPi, symObjAddr: 0x6BB4, symBinAddr: 0x44B94, symSize: 0x8C }
  - { offsetInCU: 0x3F17D, offset: 0x37420A, size: 0x8, addend: 0x0, symName: __ZNK17hb_data_wrapper_tI9hb_face_tLj13EE11call_createI9hb_blob_t22hb_table_lazy_loader_tIN2OT4VORGELj13ELb1EEEEPT_v, symObjAddr: 0x59D0, symBinAddr: 0x439EC, symSize: 0x50 }
  - { offsetInCU: 0x3F304, offset: 0x374391, size: 0x8, addend: 0x0, symName: __ZN21hb_sanitize_context_t15reference_tableIN2OT4VORGEEEP9hb_blob_tPK9hb_face_tj, symObjAddr: 0x5A5C, symBinAddr: 0x43A3C, symSize: 0x5C }
  - { offsetInCU: 0x3F3DC, offset: 0x374469, size: 0x8, addend: 0x0, symName: __ZN21hb_sanitize_context_t13sanitize_blobIN2OT4VORGEEEP9hb_blob_tS4_, symObjAddr: 0x5AB8, symBinAddr: 0x43A98, symSize: 0x168 }
  - { offsetInCU: 0x3F5F1, offset: 0x37467E, size: 0x8, addend: 0x0, symName: __ZNK2OT4VORG8sanitizeEP21hb_sanitize_context_t, symObjAddr: 0x5C20, symBinAddr: 0x43C00, symSize: 0x58 }
  - { offsetInCU: 0x3F635, offset: 0x3746C2, size: 0x8, addend: 0x0, symName: __ZNK2OT4VORG8sanitizeEP21hb_sanitize_context_t, symObjAddr: 0x5C20, symBinAddr: 0x43C00, symSize: 0x58 }
  - { offsetInCU: 0x3F65A, offset: 0x3746E7, size: 0x8, addend: 0x0, symName: __ZNK2OT4VORG8sanitizeEP21hb_sanitize_context_t, symObjAddr: 0x5C20, symBinAddr: 0x43C00, symSize: 0x58 }
  - { offsetInCU: 0x3F761, offset: 0x3747EE, size: 0x8, addend: 0x0, symName: __ZNK2OT7ArrayOfINS_16VertOriginMetricENS_7IntTypeItLj2EEEE16sanitize_shallowEP21hb_sanitize_context_t, symObjAddr: 0x5C78, symBinAddr: 0x43C58, symSize: 0x94 }
  - { offsetInCU: 0x3F7A7, offset: 0x374834, size: 0x8, addend: 0x0, symName: __ZNK2OT7ArrayOfINS_16VertOriginMetricENS_7IntTypeItLj2EEEE16sanitize_shallowEP21hb_sanitize_context_t, symObjAddr: 0x5C78, symBinAddr: 0x43C58, symSize: 0x94 }
  - { offsetInCU: 0x3F7CD, offset: 0x37485A, size: 0x8, addend: 0x0, symName: __ZNK2OT7ArrayOfINS_16VertOriginMetricENS_7IntTypeItLj2EEEE16sanitize_shallowEP21hb_sanitize_context_t, symObjAddr: 0x5C78, symBinAddr: 0x43C58, symSize: 0x94 }
  - { offsetInCU: 0x3F7F2, offset: 0x37487F, size: 0x8, addend: 0x0, symName: __ZNK2OT7ArrayOfINS_16VertOriginMetricENS_7IntTypeItLj2EEEE16sanitize_shallowEP21hb_sanitize_context_t, symObjAddr: 0x5C78, symBinAddr: 0x43C58, symSize: 0x94 }
  - { offsetInCU: 0x3FC84, offset: 0x374D11, size: 0x8, addend: 0x0, symName: __ZNK2OT9glyf_impl5Glyph10get_pointsINS_18glyf_accelerator_tEEEbP9hb_font_tRKT_RNS_22contour_point_vector_tEPS9_bbb10hb_array_tIiEj, symObjAddr: 0x607C, symBinAddr: 0x4405C, symSize: 0x86C }
  - { offsetInCU: 0x41136, offset: 0x3761C3, size: 0x8, addend: 0x0, symName: __ZN2OT18glyf_accelerator_t19points_aggregator_t16contour_bounds_t11get_extentsEP9hb_font_tP18hb_glyph_extents_tb, symObjAddr: 0x82E0, symBinAddr: 0x461B0, symSize: 0xBC }
  - { offsetInCU: 0x4118D, offset: 0x37621A, size: 0x8, addend: 0x0, symName: __ZN2OT18glyf_accelerator_t19points_aggregator_t16contour_bounds_t11get_extentsEP9hb_font_tP18hb_glyph_extents_tb, symObjAddr: 0x82E0, symBinAddr: 0x461B0, symSize: 0xBC }
  - { offsetInCU: 0x414A6, offset: 0x376533, size: 0x8, addend: 0x0, symName: __ZNK2OT9glyf_impl5Glyph12trim_paddingEv, symObjAddr: 0x839C, symBinAddr: 0x4626C, symSize: 0x4C }
  - { offsetInCU: 0x41523, offset: 0x3765B0, size: 0x8, addend: 0x0, symName: __ZN2OT9glyf_impl5GlyphC2E10hb_array_tIKcEj, symObjAddr: 0x83E8, symBinAddr: 0x462B8, symSize: 0x64 }
  - { offsetInCU: 0x41ABA, offset: 0x376B47, size: 0x8, addend: 0x0, symName: __ZNK2OT9glyf_impl11SimpleGlyph18get_contour_pointsERNS_22contour_point_vector_tEb, symObjAddr: 0x68E8, symBinAddr: 0x448C8, symSize: 0x1C8 }
  - { offsetInCU: 0x41E18, offset: 0x376EA5, size: 0x8, addend: 0x0, symName: __ZN2OT9glyf_impl19composite_iter_tmplINS0_20CompositeGlyphRecordEE11set_currentEPKS2_, symObjAddr: 0x780C, symBinAddr: 0x457EC, symSize: 0x80 }
  - { offsetInCU: 0x41E5E, offset: 0x376EEB, size: 0x8, addend: 0x0, symName: __ZN2OT9glyf_impl19composite_iter_tmplINS0_20CompositeGlyphRecordEE11set_currentEPKS2_, symObjAddr: 0x780C, symBinAddr: 0x457EC, symSize: 0x80 }
  - { offsetInCU: 0x41F1A, offset: 0x376FA7, size: 0x8, addend: 0x0, symName: __ZNK24hb_iter_fallback_mixin_tIN2OT9glyf_impl19composite_iter_tmplINS1_20CompositeGlyphRecordEEERKS3_E7__len__Ev, symObjAddr: 0x77A4, symBinAddr: 0x45784, symSize: 0x68 }
  - { offsetInCU: 0x4207F, offset: 0x37710C, size: 0x8, addend: 0x0, symName: __ZN11hb_vector_tIN2OT15contour_point_tELb0EE6resizeEib, symObjAddr: 0x6AB0, symBinAddr: 0x44A90, symSize: 0x78 }
  - { offsetInCU: 0x42142, offset: 0x3771CF, size: 0x8, addend: 0x0, symName: __ZNK2OT8hmtxvmtxINS_4hmtxENS_4hheaENS_4HVAREE13accelerator_t40get_leading_bearing_without_var_unscaledEjPi, symObjAddr: 0x6B28, symBinAddr: 0x44B08, symSize: 0x8C }
  - { offsetInCU: 0x423D9, offset: 0x377466, size: 0x8, addend: 0x0, symName: __ZNK2OT4gvar13accelerator_t22apply_deltas_to_pointsEj10hb_array_tIiES2_INS_15contour_point_tEE, symObjAddr: 0x6C40, symBinAddr: 0x44C20, symSize: 0x780 }
  - { offsetInCU: 0x43CD3, offset: 0x378D60, size: 0x8, addend: 0x0, symName: __ZN2OT22contour_point_vector_t6extendERK10hb_array_tINS_15contour_point_tEE, symObjAddr: 0x73C0, symBinAddr: 0x453A0, symSize: 0x7C }
  - { offsetInCU: 0x43DBF, offset: 0x378E4C, size: 0x8, addend: 0x0, symName: __ZNK2OT9glyf_impl5Glyph22get_composite_iteratorEv, symObjAddr: 0x743C, symBinAddr: 0x4541C, symSize: 0x3C }
  - { offsetInCU: 0x43F0B, offset: 0x378F98, size: 0x8, addend: 0x0, symName: __ZNK2OT9glyf_impl20CompositeGlyphRecord16transform_pointsERNS_22contour_point_vector_tE, symObjAddr: 0x7478, symBinAddr: 0x45458, symSize: 0xB0 }
  - { offsetInCU: 0x44093, offset: 0x379120, size: 0x8, addend: 0x0, symName: __ZN2OT22contour_point_vector_t9translateERKNS_15contour_point_tE, symObjAddr: 0x7528, symBinAddr: 0x45508, symSize: 0x40 }
  - { offsetInCU: 0x441BD, offset: 0x37924A, size: 0x8, addend: 0x0, symName: __ZN11hb_vector_tIN2OT15contour_point_tELb0EE5allocEj, symObjAddr: 0x7568, symBinAddr: 0x45548, symSize: 0x90 }
  - { offsetInCU: 0x4426A, offset: 0x3792F7, size: 0x8, addend: 0x0, symName: __ZN2OT9glyf_impl11SimpleGlyph10read_flagsERPKNS_7IntTypeIhLj1EEERNS_22contour_point_vector_tES5_, symObjAddr: 0x75F8, symBinAddr: 0x455D8, symSize: 0xB4 }
  - { offsetInCU: 0x4439C, offset: 0x379429, size: 0x8, addend: 0x0, symName: __ZN2OT9glyf_impl11SimpleGlyph11read_pointsERPKNS_7IntTypeIhLj1EEERNS_22contour_point_vector_tES5_MNS_15contour_point_tEfNS1_19simple_glyph_flag_tESB_, symObjAddr: 0x76AC, symBinAddr: 0x4568C, symSize: 0xF8 }
  - { offsetInCU: 0x44A08, offset: 0x379A95, size: 0x8, addend: 0x0, symName: __ZNK2OT4gvar24get_glyph_var_data_bytesEP9hb_blob_tj, symObjAddr: 0x788C, symBinAddr: 0x4586C, symSize: 0x88 }
  - { offsetInCU: 0x44B7C, offset: 0x379C09, size: 0x8, addend: 0x0, symName: __ZN2OT18GlyphVariationData18get_tuple_iteratorE10hb_array_tIKcEjR11hb_vector_tIjLb0EEPNS0_16tuple_iterator_tE, symObjAddr: 0x7914, symBinAddr: 0x458F4, symSize: 0x64 }
  - { offsetInCU: 0x44CB1, offset: 0x379D3E, size: 0x8, addend: 0x0, symName: __ZN11hb_vector_tIjLb0EE4pushIRjjLPv0EEEPjOT_, symObjAddr: 0x7978, symBinAddr: 0x45958, symSize: 0x60 }
  - { offsetInCU: 0x44D60, offset: 0x379DED, size: 0x8, addend: 0x0, symName: __ZNK2OT20TupleVariationHeader16calculate_scalarE10hb_array_tIiEjS1_IKNS_7HBFixedINS_7IntTypeIsLj2EEELj14EEEE, symObjAddr: 0x79D8, symBinAddr: 0x459B8, symSize: 0x218 }
  - { offsetInCU: 0x453F3, offset: 0x37A480, size: 0x8, addend: 0x0, symName: __ZN2OT4gvar13accelerator_t11infer_deltaE10hb_array_tINS_15contour_point_tEES4_jjjMS3_f, symObjAddr: 0x7E04, symBinAddr: 0x45DE4, symSize: 0x90 }
  - { offsetInCU: 0x454CC, offset: 0x37A559, size: 0x8, addend: 0x0, symName: __ZN2OT18GlyphVariationData16tuple_iterator_t12move_to_nextEv, symObjAddr: 0x7E94, symBinAddr: 0x45E74, symSize: 0x4C }
  - { offsetInCU: 0x45682, offset: 0x37A70F, size: 0x8, addend: 0x0, symName: __ZNK2OT9glyf_impl20CompositeGlyphRecord18get_transformationERA4_fRNS_15contour_point_tE, symObjAddr: 0x813C, symBinAddr: 0x4600C, symSize: 0x14C }
  - { offsetInCU: 0x45AB2, offset: 0x37AB3F, size: 0x8, addend: 0x0, symName: __ZN2OT22contour_point_vector_t9transformERA4_Kf, symObjAddr: 0x8288, symBinAddr: 0x46158, symSize: 0x58 }
  - { offsetInCU: 0x45CA8, offset: 0x37AD35, size: 0x8, addend: 0x0, symName: __ZNK2OT4gvar10get_offsetEj, symObjAddr: 0x7EE0, symBinAddr: 0x45EC0, symSize: 0x4C }
  - { offsetInCU: 0x45CE1, offset: 0x37AD6E, size: 0x8, addend: 0x0, symName: __ZNK2OT4gvar10get_offsetEj, symObjAddr: 0x7EE0, symBinAddr: 0x45EC0, symSize: 0x4C }
  - { offsetInCU: 0x45D01, offset: 0x37AD8E, size: 0x8, addend: 0x0, symName: __ZNK2OT4gvar10get_offsetEj, symObjAddr: 0x7EE0, symBinAddr: 0x45EC0, symSize: 0x4C }
  - { offsetInCU: 0x45ECD, offset: 0x37AF5A, size: 0x8, addend: 0x0, symName: __ZN2OT18GlyphVariationData16tuple_iterator_t18get_shared_indicesER11hb_vector_tIjLb0EE, symObjAddr: 0x7F2C, symBinAddr: 0x45F0C, symSize: 0x78 }
  - { offsetInCU: 0x46077, offset: 0x37B104, size: 0x8, addend: 0x0, symName: __ZNK2OT18GlyphVariationData16tuple_iterator_t8is_validEv, symObjAddr: 0x7FA4, symBinAddr: 0x45F84, symSize: 0x88 }
  - { offsetInCU: 0x467B1, offset: 0x37B83E, size: 0x8, addend: 0x0, symName: __ZNK2OT9glyf_impl11SimpleGlyph12trim_paddingEv, symObjAddr: 0x844C, symBinAddr: 0x4631C, symSize: 0x10C }
  - { offsetInCU: 0x46A2D, offset: 0x37BABA, size: 0x8, addend: 0x0, symName: __ZN2OT9glyf_impl14path_builder_t13consume_pointERKNS_15contour_point_tE, symObjAddr: 0x88D8, symBinAddr: 0x467A8, symSize: 0x28C }
  - { offsetInCU: 0x46E21, offset: 0x37BEAE, size: 0x8, addend: 0x0, symName: __ZN17hb_draw_session_t12quadratic_toEffff, symObjAddr: 0x8BC4, symBinAddr: 0x46A34, symSize: 0x2C }
  - { offsetInCU: 0x473C6, offset: 0x37C453, size: 0x8, addend: 0x0, symName: __ZN16hb_lazy_loader_tIN2OT18cff1_accelerator_tE21hb_face_lazy_loader_tIS1_Lj16EE9hb_face_tLj16ES1_E6createEPS4_, symObjAddr: 0x8EA0, symBinAddr: 0x46AD0, symSize: 0x34 }
  - { offsetInCU: 0x47727, offset: 0x37C7B4, size: 0x8, addend: 0x0, symName: __ZN2OT4cff113accelerator_tC2EP9hb_face_t, symObjAddr: 0x8ED4, symBinAddr: 0x46B04, symSize: 0x88 }
  - { offsetInCU: 0x47B32, offset: 0x37CBBF, size: 0x8, addend: 0x0, symName: __ZN2OT4cff119accelerator_templ_tIN3CFF25cff1_private_dict_opset_tENS2_31cff1_private_dict_values_base_tINS2_10dict_val_tEEEE4initEP9hb_face_t, symObjAddr: 0x8F5C, symBinAddr: 0x46B8C, symSize: 0x724 }
  - { offsetInCU: 0x490E7, offset: 0x37E174, size: 0x8, addend: 0x0, symName: __ZN2OT4cff119accelerator_templ_tIN3CFF25cff1_private_dict_opset_tENS2_31cff1_private_dict_values_base_tINS2_10dict_val_tEEEED2Ev, symObjAddr: 0x9680, symBinAddr: 0x472B0, symSize: 0x68 }
  - { offsetInCU: 0x49B29, offset: 0x37EBB6, size: 0x8, addend: 0x0, symName: __ZN21hb_sanitize_context_t15reference_tableIN2OT4cff1EEEP9hb_blob_tPK9hb_face_tj, symObjAddr: 0x96E8, symBinAddr: 0x47318, symSize: 0x5C }
  - { offsetInCU: 0x49BEC, offset: 0x37EC79, size: 0x8, addend: 0x0, symName: __ZNK3CFF8CFFIndexIN2OT7IntTypeItLj2EEEE8sanitizeEP21hb_sanitize_context_t, symObjAddr: 0x97C4, symBinAddr: 0x47374, symSize: 0x164 }
  - { offsetInCU: 0x4A030, offset: 0x37F0BD, size: 0x8, addend: 0x0, symName: __ZNK3CFF8CFFIndexIN2OT7IntTypeItLj2EEEE8get_sizeEv, symObjAddr: 0x9928, symBinAddr: 0x474D8, symSize: 0x40 }
  - { offsetInCU: 0x4A221, offset: 0x37F2AE, size: 0x8, addend: 0x0, symName: __ZN3CFF18dict_interpreter_tINS_21cff1_top_dict_opset_tENS_22cff1_top_dict_values_tENS_26cff1_top_dict_interp_env_tEE9interpretERS2_, symObjAddr: 0x99E4, symBinAddr: 0x47518, symSize: 0xCC }
  - { offsetInCU: 0x4A5F2, offset: 0x37F67F, size: 0x8, addend: 0x0, symName: __ZNK3CFF7Charset8sanitizeEP21hb_sanitize_context_t, symObjAddr: 0x9AB0, symBinAddr: 0x475E4, symSize: 0xAC }
  - { offsetInCU: 0x4A638, offset: 0x37F6C5, size: 0x8, addend: 0x0, symName: __ZNK3CFF7Charset8sanitizeEP21hb_sanitize_context_t, symObjAddr: 0x9AB0, symBinAddr: 0x475E4, symSize: 0xAC }
  - { offsetInCU: 0x4A65E, offset: 0x37F6EB, size: 0x8, addend: 0x0, symName: __ZNK3CFF7Charset8sanitizeEP21hb_sanitize_context_t, symObjAddr: 0x9AB0, symBinAddr: 0x475E4, symSize: 0xAC }
  - { offsetInCU: 0x4A7E7, offset: 0x37F874, size: 0x8, addend: 0x0, symName: __ZNK3CFF8FDSelect8sanitizeEP21hb_sanitize_context_tj, symObjAddr: 0x9B5C, symBinAddr: 0x47690, symSize: 0x98 }
  - { offsetInCU: 0x4A83C, offset: 0x37F8C9, size: 0x8, addend: 0x0, symName: __ZNK3CFF8FDSelect8sanitizeEP21hb_sanitize_context_tj, symObjAddr: 0x9B5C, symBinAddr: 0x47690, symSize: 0x98 }
  - { offsetInCU: 0x4A862, offset: 0x37F8EF, size: 0x8, addend: 0x0, symName: __ZNK3CFF8FDSelect8sanitizeEP21hb_sanitize_context_tj, symObjAddr: 0x9B5C, symBinAddr: 0x47690, symSize: 0x98 }
  - { offsetInCU: 0x4A9D5, offset: 0x37FA62, size: 0x8, addend: 0x0, symName: __ZNK3CFF8Encoding8sanitizeEP21hb_sanitize_context_t, symObjAddr: 0x9BF4, symBinAddr: 0x47728, symSize: 0xB4 }
  - { offsetInCU: 0x4AC4D, offset: 0x37FCDA, size: 0x8, addend: 0x0, symName: __ZN11hb_vector_tIN3CFF31cff1_private_dict_values_base_tINS0_10dict_val_tEEELb0EE6resizeEib, symObjAddr: 0x9CA8, symBinAddr: 0x477DC, symSize: 0x9C }
